objdump -D obj/fullkernel.o

obj/fullkernel.o:	file format elf32-i386

Disassembly of section .text:

00000000 <_start>:
       0: 66 b8 10 00                  	movw	$16, %ax
       4: 8e d8                        	movl	%eax, %ds
       6: 8e c0                        	movl	%eax, %es
       8: 8e e0                        	movl	%eax, %fs
       a: 8e e8                        	movl	%eax, %gs
       c: 8e d0                        	movl	%eax, %ss
       e: bc ff ff 02 00               	movl	$196607, %esp           # imm = 0x2FFFF
      13: e8 fc ff ff ff               	calll	0x14 <_start+0x14>
      18: eb fe                        	jmp	0x18 <_start+0x18>

0000001a <remap_master_pic>:
      1a: b0 11                        	movb	$17, %al
      1c: e6 20                        	outb	%al, $32
      1e: b0 20                        	movb	$32, %al
      20: e6 21                        	outb	%al, $33
      22: b0 01                        	movb	$1, %al
      24: e6 21                        	outb	%al, $33
      26: c3                           	retl
		...
     1ff: 00 90 c3 66 90 66            	addb	%dl, 1720739523(%eax)

00000200 <init_colours>:
     200: 90                           	nop
     201: c3                           	retl
     202: 66 90                        	nop
     204: 66 90                        	nop
     206: 66 90                        	nop
     208: 66 90                        	nop
     20a: 66 90                        	nop
     20c: 66 90                        	nop
     20e: 66 90                        	nop

00000210 <font_char>:
     210: 83 ec 2c                     	subl	$44, %esp
     213: 8b 54 24 30                  	movl	48(%esp), %edx
     217: 8b 44 24 3c                  	movl	60(%esp), %eax
     21b: 88 54 24 0c                  	movb	%dl, 12(%esp)
     21f: 88 44 24 08                  	movb	%al, 8(%esp)
     223: 0f b6 44 24 0c               	movzbl	12(%esp), %eax
     228: 0f b6 c0                     	movzbl	%al, %eax
     22b: c1 e0 03                     	shll	$3, %eax
     22e: 05 40 00 00 00               	addl	$64, %eax
     233: 89 44 24 14                  	movl	%eax, 20(%esp)
     237: c7 44 24 1c 00 00 00 00      	movl	$0, 28(%esp)
     23f: eb 70                        	jmp	0x2b1 <font_char+0xa1>
     241: c7 44 24 18 00 00 00 00      	movl	$0, 24(%esp)
     249: eb 5a                        	jmp	0x2a5 <font_char+0x95>
     24b: 8b 54 24 14                  	movl	20(%esp), %edx
     24f: 8b 44 24 1c                  	movl	28(%esp), %eax
     253: 01 d0                        	addl	%edx, %eax
     255: 0f b6 00                     	movzbl	(%eax), %eax
     258: 0f b6 d0                     	movzbl	%al, %edx
     25b: 8b 44 24 18                  	movl	24(%esp), %eax
     25f: 89 c1                        	movl	%eax, %ecx
     261: d3 fa                        	sarl	%cl, %edx
     263: 89 d0                        	movl	%edx, %eax
     265: 83 e0 01                     	andl	$1, %eax
     268: 85 c0                        	testl	%eax, %eax
     26a: 74 34                        	je	0x2a0 <font_char+0x90>
     26c: 8b 44 24 38                  	movl	56(%esp), %eax
     270: 89 c2                        	movl	%eax, %edx
     272: 8b 44 24 1c                  	movl	28(%esp), %eax
     276: 01 d0                        	addl	%edx, %eax
     278: 0f b7 c8                     	movzwl	%ax, %ecx
     27b: 8b 44 24 34                  	movl	52(%esp), %eax
     27f: 89 c2                        	movl	%eax, %edx
     281: 8b 44 24 18                  	movl	24(%esp), %eax
     285: 01 d0                        	addl	%edx, %eax
     287: 0f b7 d0                     	movzwl	%ax, %edx
     28a: 0f b6 44 24 08               	movzbl	8(%esp), %eax
     28f: 0f be c0                     	movsbl	%al, %eax
     292: 83 ec 04                     	subl	$4, %esp
     295: 51                           	pushl	%ecx
     296: 52                           	pushl	%edx
     297: 50                           	pushl	%eax
     298: e8 fc ff ff ff               	calll	0x299 <font_char+0x89>
     29d: 83 c4 10                     	addl	$16, %esp
     2a0: 83 44 24 18 01               	addl	$1, 24(%esp)
     2a5: 83 7c 24 18 07               	cmpl	$7, 24(%esp)
     2aa: 76 9f                        	jbe	0x24b <font_char+0x3b>
     2ac: 83 44 24 1c 01               	addl	$1, 28(%esp)
     2b1: 83 7c 24 1c 07               	cmpl	$7, 28(%esp)
     2b6: 76 89                        	jbe	0x241 <font_char+0x31>
     2b8: 90                           	nop
     2b9: 90                           	nop
     2ba: 83 c4 2c                     	addl	$44, %esp
     2bd: c3                           	retl
     2be: 66 90                        	nop

000002c0 <font_str>:
     2c0: 83 ec 2c                     	subl	$44, %esp
     2c3: 8b 44 24 3c                  	movl	60(%esp), %eax
     2c7: 88 44 24 0c                  	movb	%al, 12(%esp)
     2cb: eb 21                        	jmp	0x2ee <font_str+0x2e>
     2cd: 0f b6 54 24 0c               	movzbl	12(%esp), %edx
     2d2: 0f be 44 24 1f               	movsbl	31(%esp), %eax
     2d7: 52                           	pushl	%edx
     2d8: ff 74 24 3c                  	pushl	60(%esp)
     2dc: ff 74 24 3c                  	pushl	60(%esp)
     2e0: 50                           	pushl	%eax
     2e1: e8 fc ff ff ff               	calll	0x2e2 <font_str+0x22>
     2e6: 83 c4 10                     	addl	$16, %esp
     2e9: 83 44 24 34 08               	addl	$8, 52(%esp)
     2ee: 8b 44 24 30                  	movl	48(%esp), %eax
     2f2: 8d 50 01                     	leal	1(%eax), %edx
     2f5: 89 54 24 30                  	movl	%edx, 48(%esp)
     2f9: 0f b6 00                     	movzbl	(%eax), %eax
     2fc: 88 44 24 1f                  	movb	%al, 31(%esp)
     300: 80 7c 24 1f 00               	cmpb	$0, 31(%esp)
     305: 75 c6                        	jne	0x2cd <font_str+0xd>
     307: 90                           	nop
     308: 90                           	nop
     309: 83 c4 2c                     	addl	$44, %esp
     30c: c3                           	retl
     30d: 66 90                        	nop
     30f: 90                           	nop

00000310 <init_pallete>:
     310: 83 ec 04                     	subl	$4, %esp
     313: 8b 44 24 0c                  	movl	12(%esp), %eax
     317: 88 04 24                     	movb	%al, (%esp)
     31a: 90                           	nop
     31b: 83 c4 04                     	addl	$4, %esp
     31e: c3                           	retl
     31f: 90                           	nop

00000320 <init_default_pallete>:
     320: 83 ec 1c                     	subl	$28, %esp
     323: 83 ec 08                     	subl	$8, %esp
     326: 68 ff 00 00 00               	pushl	$255
     32b: 68 c9 03 00 00               	pushl	$969                    # imm = 0x3C9
     330: e8 fc ff ff ff               	calll	0x331 <init_default_pallete+0x11>
     335: 83 c4 10                     	addl	$16, %esp
     338: c6 44 24 0c 00               	movb	$0, 12(%esp)
     33d: c6 44 24 0d 00               	movb	$0, 13(%esp)
     342: c6 44 24 0e 00               	movb	$0, 14(%esp)
     347: 83 ec 08                     	subl	$8, %esp
     34a: 83 ec 04                     	subl	$4, %esp
     34d: 89 e0                        	movl	%esp, %eax
     34f: 0f b7 54 24 18               	movzwl	24(%esp), %edx
     354: 66 89 10                     	movw	%dx, (%eax)
     357: 0f b6 54 24 1a               	movzbl	26(%esp), %edx
     35c: 88 50 02                     	movb	%dl, 2(%eax)
     35f: 6a 00                        	pushl	$0
     361: e8 fc ff ff ff               	calll	0x362 <init_default_pallete+0x42>
     366: 83 c4 10                     	addl	$16, %esp
     369: c6 44 24 0f 01               	movb	$1, 15(%esp)
     36e: eb 62                        	jmp	0x3d2 <init_default_pallete+0xb2>
     370: 0f b6 44 24 0f               	movzbl	15(%esp), %eax
     375: c0 e8 05                     	shrb	$5, %al
     378: c1 e0 03                     	shll	$3, %eax
     37b: 88 44 24 0c                  	movb	%al, 12(%esp)
     37f: 0f b6 44 24 0f               	movzbl	15(%esp), %eax
     384: c0 e8 02                     	shrb	$2, %al
     387: 83 e0 07                     	andl	$7, %eax
     38a: c1 e0 03                     	shll	$3, %eax
     38d: 88 44 24 0d                  	movb	%al, 13(%esp)
     391: 0f b6 44 24 0f               	movzbl	15(%esp), %eax
     396: 83 e0 03                     	andl	$3, %eax
     399: c1 e0 04                     	shll	$4, %eax
     39c: 88 44 24 0e                  	movb	%al, 14(%esp)
     3a0: 0f b6 54 24 0f               	movzbl	15(%esp), %edx
     3a5: 83 ec 08                     	subl	$8, %esp
     3a8: 83 ec 04                     	subl	$4, %esp
     3ab: 89 e0                        	movl	%esp, %eax
     3ad: 0f b7 4c 24 18               	movzwl	24(%esp), %ecx
     3b2: 66 89 08                     	movw	%cx, (%eax)
     3b5: 0f b6 4c 24 1a               	movzbl	26(%esp), %ecx
     3ba: 88 48 02                     	movb	%cl, 2(%eax)
     3bd: 52                           	pushl	%edx
     3be: e8 fc ff ff ff               	calll	0x3bf <init_default_pallete+0x9f>
     3c3: 83 c4 10                     	addl	$16, %esp
     3c6: 0f b6 44 24 0f               	movzbl	15(%esp), %eax
     3cb: 83 c0 01                     	addl	$1, %eax
     3ce: 88 44 24 0f                  	movb	%al, 15(%esp)
     3d2: 80 7c 24 0f ff               	cmpb	$-1, 15(%esp)
     3d7: 75 97                        	jne	0x370 <init_default_pallete+0x50>
     3d9: c6 44 24 0c 3f               	movb	$63, 12(%esp)
     3de: c6 44 24 0d 3f               	movb	$63, 13(%esp)
     3e3: c6 44 24 0e 3f               	movb	$63, 14(%esp)
     3e8: 83 ec 08                     	subl	$8, %esp
     3eb: 83 ec 04                     	subl	$4, %esp
     3ee: 89 e0                        	movl	%esp, %eax
     3f0: 0f b7 54 24 18               	movzwl	24(%esp), %edx
     3f5: 66 89 10                     	movw	%dx, (%eax)
     3f8: 0f b6 54 24 1a               	movzbl	26(%esp), %edx
     3fd: 88 50 02                     	movb	%dl, 2(%eax)
     400: 68 ff 00 00 00               	pushl	$255
     405: e8 fc ff ff ff               	calll	0x406 <init_default_pallete+0xe6>
     40a: 83 c4 10                     	addl	$16, %esp
     40d: 90                           	nop
     40e: 83 c4 1c                     	addl	$28, %esp
     411: c3                           	retl
     412: 8d b4 26 00 00 00 00         	leal	(%esi,%eiz), %esi
     419: 8d b4 26 00 00 00 00         	leal	(%esi,%eiz), %esi

00000420 <pallete_set>:
     420: 83 ec 1c                     	subl	$28, %esp
     423: 8b 44 24 20                  	movl	32(%esp), %eax
     427: 88 44 24 0c                  	movb	%al, 12(%esp)
     42b: 0f b6 44 24 0c               	movzbl	12(%esp), %eax
     430: 83 ec 08                     	subl	$8, %esp
     433: 50                           	pushl	%eax
     434: 68 c8 03 00 00               	pushl	$968                    # imm = 0x3C8
     439: e8 fc ff ff ff               	calll	0x43a <pallete_set+0x1a>
     43e: 83 c4 10                     	addl	$16, %esp
     441: 0f b6 44 24 24               	movzbl	36(%esp), %eax
     446: 0f b6 c0                     	movzbl	%al, %eax
     449: 83 ec 08                     	subl	$8, %esp
     44c: 50                           	pushl	%eax
     44d: 68 c9 03 00 00               	pushl	$969                    # imm = 0x3C9
     452: e8 fc ff ff ff               	calll	0x453 <pallete_set+0x33>
     457: 83 c4 10                     	addl	$16, %esp
     45a: 0f b6 44 24 25               	movzbl	37(%esp), %eax
     45f: 0f b6 c0                     	movzbl	%al, %eax
     462: 83 ec 08                     	subl	$8, %esp
     465: 50                           	pushl	%eax
     466: 68 c9 03 00 00               	pushl	$969                    # imm = 0x3C9
     46b: e8 fc ff ff ff               	calll	0x46c <pallete_set+0x4c>
     470: 83 c4 10                     	addl	$16, %esp
     473: 0f b6 44 24 26               	movzbl	38(%esp), %eax
     478: 0f b6 c0                     	movzbl	%al, %eax
     47b: 83 ec 08                     	subl	$8, %esp
     47e: 50                           	pushl	%eax
     47f: 68 c9 03 00 00               	pushl	$969                    # imm = 0x3C9
     484: e8 fc ff ff ff               	calll	0x485 <pallete_set+0x65>
     489: 83 c4 10                     	addl	$16, %esp
     48c: 90                           	nop
     48d: 83 c4 1c                     	addl	$28, %esp
     490: c3                           	retl
     491: 8d b4 26 00 00 00 00         	leal	(%esi,%eiz), %esi
     498: 8d b4 26 00 00 00 00         	leal	(%esi,%eiz), %esi
     49f: 90                           	nop

000004a0 <init_screen>:
     4a0: 83 ec 1c                     	subl	$28, %esp
     4a3: e8 fc ff ff ff               	calll	0x4a4 <init_screen+0x4>
     4a8: c7 44 24 04 00 00 0a 00      	movl	$655360, 4(%esp)        # imm = 0xA0000
     4b0: c7 44 24 0c 00 00 00 00      	movl	$0, 12(%esp)
     4b8: eb 51                        	jmp	0x50b <init_screen+0x6b>
     4ba: c7 44 24 08 00 00 00 00      	movl	$0, 8(%esp)
     4c2: eb 38                        	jmp	0x4fc <init_screen+0x5c>
     4c4: 8b 44 24 08                  	movl	8(%esp), %eax
     4c8: 89 c2                        	movl	%eax, %edx
     4ca: 89 d0                        	movl	%edx, %eax
     4cc: c1 e0 02                     	shll	$2, %eax
     4cf: 01 d0                        	addl	%edx, %eax
     4d1: c1 e0 06                     	shll	$6, %eax
     4d4: 89 c2                        	movl	%eax, %edx
     4d6: 8b 44 24 0c                  	movl	12(%esp), %eax
     4da: 01 d0                        	addl	%edx, %eax
     4dc: 66 89 44 24 02               	movw	%ax, 2(%esp)
     4e1: 8b 44 24 08                  	movl	8(%esp), %eax
     4e5: 89 c1                        	movl	%eax, %ecx
     4e7: 0f b7 54 24 02               	movzwl	2(%esp), %edx
     4ec: 8b 44 24 04                  	movl	4(%esp), %eax
     4f0: 01 d0                        	addl	%edx, %eax
     4f2: 8d 51 01                     	leal	1(%ecx), %edx
     4f5: 88 10                        	movb	%dl, (%eax)
     4f7: 83 44 24 08 01               	addl	$1, 8(%esp)
     4fc: 81 7c 24 08 c7 00 00 00      	cmpl	$199, 8(%esp)
     504: 7e be                        	jle	0x4c4 <init_screen+0x24>
     506: 83 44 24 0c 01               	addl	$1, 12(%esp)
     50b: 81 7c 24 0c 3f 01 00 00      	cmpl	$319, 12(%esp)          # imm = 0x13F
     513: 7e a5                        	jle	0x4ba <init_screen+0x1a>
     515: 90                           	nop
     516: 90                           	nop
     517: 83 c4 1c                     	addl	$28, %esp
     51a: c3                           	retl
     51b: 8d 74 26 00                  	leal	(%esi,%eiz), %esi
     51f: 90                           	nop

00000520 <screen_set>:
     520: 83 ec 1c                     	subl	$28, %esp
     523: 8b 4c 24 20                  	movl	32(%esp), %ecx
     527: 8b 54 24 24                  	movl	36(%esp), %edx
     52b: 8b 44 24 28                  	movl	40(%esp), %eax
     52f: 88 4c 24 08                  	movb	%cl, 8(%esp)
     533: 66 89 54 24 04               	movw	%dx, 4(%esp)
     538: 66 89 04 24                  	movw	%ax, (%esp)
     53c: c7 44 24 18 00 00 0a 00      	movl	$655360, 24(%esp)       # imm = 0xA0000
     544: 0f b7 14 24                  	movzwl	(%esp), %edx
     548: 89 d0                        	movl	%edx, %eax
     54a: c1 e0 02                     	shll	$2, %eax
     54d: 01 d0                        	addl	%edx, %eax
     54f: c1 e0 06                     	shll	$6, %eax
     552: 89 c2                        	movl	%eax, %edx
     554: 0f b7 44 24 04               	movzwl	4(%esp), %eax
     559: 01 d0                        	addl	%edx, %eax
     55b: 89 c2                        	movl	%eax, %edx
     55d: 8b 44 24 18                  	movl	24(%esp), %eax
     561: 01 c2                        	addl	%eax, %edx
     563: 0f b6 44 24 08               	movzbl	8(%esp), %eax
     568: 88 02                        	movb	%al, (%edx)
     56a: 90                           	nop
     56b: 83 c4 1c                     	addl	$28, %esp
     56e: c3                           	retl
     56f: 90                           	nop

00000570 <idt_zero>:
     570: 83 ec 0c                     	subl	$12, %esp
     573: 83 ec 08                     	subl	$8, %esp
     576: 68 61 04 00 00               	pushl	$1121                   # imm = 0x461
     57b: 68 00 00 00 00               	pushl	$0
     580: e8 fc ff ff ff               	calll	0x581 <idt_zero+0x11>
     585: 83 c4 10                     	addl	$16, %esp
     588: 90                           	nop
     589: 83 c4 0c                     	addl	$12, %esp
     58c: c3                           	retl
     58d: 8d 76 00                     	leal	(%esi), %esi

00000590 <int20h_handler>:
     590: 83 ec 0c                     	subl	$12, %esp
     593: 83 ec 08                     	subl	$8, %esp
     596: 68 77 04 00 00               	pushl	$1143                   # imm = 0x477
     59b: 68 00 00 00 00               	pushl	$0
     5a0: e8 fc ff ff ff               	calll	0x5a1 <int20h_handler+0x11>
     5a5: 83 c4 10                     	addl	$16, %esp
     5a8: 83 ec 08                     	subl	$8, %esp
     5ab: 6a 20                        	pushl	$32
     5ad: 6a 20                        	pushl	$32
     5af: e8 fc ff ff ff               	calll	0x5b0 <int20h_handler+0x20>
     5b4: 83 c4 10                     	addl	$16, %esp
     5b7: 90                           	nop
     5b8: 83 c4 0c                     	addl	$12, %esp
     5bb: c3                           	retl
     5bc: 8d 74 26 00                  	leal	(%esi,%eiz), %esi

000005c0 <no_interrupt_handler>:
     5c0: 83 ec 0c                     	subl	$12, %esp
     5c3: 83 ec 08                     	subl	$8, %esp
     5c6: 6a 20                        	pushl	$32
     5c8: 6a 20                        	pushl	$32
     5ca: e8 fc ff ff ff               	calll	0x5cb <no_interrupt_handler+0xb>
     5cf: 83 c4 10                     	addl	$16, %esp
     5d2: 90                           	nop
     5d3: 83 c4 0c                     	addl	$12, %esp
     5d6: c3                           	retl
     5d7: 8d b4 26 00 00 00 00         	leal	(%esi,%eiz), %esi
     5de: 66 90                        	nop

000005e0 <idt_set>:
     5e0: 83 ec 10                     	subl	$16, %esp
     5e3: 8b 44 24 14                  	movl	20(%esp), %eax
     5e7: c1 e0 03                     	shll	$3, %eax
     5ea: 05 00 00 00 00               	addl	$0, %eax
     5ef: 89 44 24 0c                  	movl	%eax, 12(%esp)
     5f3: 8b 44 24 18                  	movl	24(%esp), %eax
     5f7: 89 c2                        	movl	%eax, %edx
     5f9: 8b 44 24 0c                  	movl	12(%esp), %eax
     5fd: 66 89 10                     	movw	%dx, (%eax)
     600: 8b 44 24 0c                  	movl	12(%esp), %eax
     604: 66 c7 40 02 08 00            	movw	$8, 2(%eax)
     60a: 8b 44 24 0c                  	movl	12(%esp), %eax
     60e: c6 40 04 00                  	movb	$0, 4(%eax)
     612: 8b 44 24 0c                  	movl	12(%esp), %eax
     616: c6 40 05 ee                  	movb	$-18, 5(%eax)
     61a: 8b 44 24 18                  	movl	24(%esp), %eax
     61e: c1 e8 10                     	shrl	$16, %eax
     621: 89 c2                        	movl	%eax, %edx
     623: 8b 44 24 0c                  	movl	12(%esp), %eax
     627: 66 89 50 06                  	movw	%dx, 6(%eax)
     62b: 90                           	nop
     62c: 83 c4 10                     	addl	$16, %esp
     62f: c3                           	retl

00000630 <idt_init>:
     630: 83 ec 1c                     	subl	$28, %esp
     633: 83 ec 04                     	subl	$4, %esp
     636: 68 00 08 00 00               	pushl	$2048                   # imm = 0x800
     63b: 6a 00                        	pushl	$0
     63d: 68 00 00 00 00               	pushl	$0
     642: e8 fc ff ff ff               	calll	0x643 <idt_init+0x13>
     647: 83 c4 10                     	addl	$16, %esp
     64a: 66 c7 05 00 00 00 00 ff 07   	movw	$2047, 0                # imm = 0x7FF
     653: b8 00 00 00 00               	movl	$0, %eax
     658: a3 02 00 00 00               	movl	%eax, 2
     65d: 66 c7 44 24 0e 00 00         	movw	$0, 14(%esp)
     664: eb 23                        	jmp	0x689 <idt_init+0x59>
     666: 0f b7 44 24 0e               	movzwl	14(%esp), %eax
     66b: 83 ec 08                     	subl	$8, %esp
     66e: 68 00 00 00 00               	pushl	$0
     673: 50                           	pushl	%eax
     674: e8 fc ff ff ff               	calll	0x675 <idt_init+0x45>
     679: 83 c4 10                     	addl	$16, %esp
     67c: 0f b7 44 24 0e               	movzwl	14(%esp), %eax
     681: 83 c0 01                     	addl	$1, %eax
     684: 66 89 44 24 0e               	movw	%ax, 14(%esp)
     689: 66 81 7c 24 0e ff 00         	cmpw	$255, 14(%esp)
     690: 76 d4                        	jbe	0x666 <idt_init+0x36>
     692: 83 ec 08                     	subl	$8, %esp
     695: 68 00 00 00 00               	pushl	$0
     69a: 6a 00                        	pushl	$0
     69c: e8 fc ff ff ff               	calll	0x69d <idt_init+0x6d>
     6a1: 83 c4 10                     	addl	$16, %esp
     6a4: 83 ec 0c                     	subl	$12, %esp
     6a7: 68 00 00 00 00               	pushl	$0
     6ac: e8 fc ff ff ff               	calll	0x6ad <idt_init+0x7d>
     6b1: 83 c4 10                     	addl	$16, %esp
     6b4: 90                           	nop
     6b5: 83 c4 1c                     	addl	$28, %esp
     6b8: c3                           	retl
     6b9: 66 90                        	nop
     6bb: 66 90                        	nop
     6bd: 66 90                        	nop
     6bf: 90                           	nop

000006c0 <remap_pic>:
     6c0: 83 ec 1c                     	subl	$28, %esp
     6c3: 83 ec 0c                     	subl	$12, %esp
     6c6: 6a 21                        	pushl	$33
     6c8: e8 fc ff ff ff               	calll	0x6c9 <remap_pic+0x9>
     6cd: 83 c4 10                     	addl	$16, %esp
     6d0: 88 44 24 0f                  	movb	%al, 15(%esp)
     6d4: 83 ec 0c                     	subl	$12, %esp
     6d7: 68 a1 00 00 00               	pushl	$161
     6dc: e8 fc ff ff ff               	calll	0x6dd <remap_pic+0x1d>
     6e1: 83 c4 10                     	addl	$16, %esp
     6e4: 88 44 24 0e                  	movb	%al, 14(%esp)
     6e8: 83 ec 08                     	subl	$8, %esp
     6eb: 6a 11                        	pushl	$17
     6ed: 6a 20                        	pushl	$32
     6ef: e8 fc ff ff ff               	calll	0x6f0 <remap_pic+0x30>
     6f4: 83 c4 10                     	addl	$16, %esp
     6f7: 83 ec 08                     	subl	$8, %esp
     6fa: 6a 11                        	pushl	$17
     6fc: 68 a0 00 00 00               	pushl	$160
     701: e8 fc ff ff ff               	calll	0x702 <remap_pic+0x42>
     706: 83 c4 10                     	addl	$16, %esp
     709: 83 ec 08                     	subl	$8, %esp
     70c: 6a 20                        	pushl	$32
     70e: 6a 21                        	pushl	$33
     710: e8 fc ff ff ff               	calll	0x711 <remap_pic+0x51>
     715: 83 c4 10                     	addl	$16, %esp
     718: 83 ec 08                     	subl	$8, %esp
     71b: 6a 28                        	pushl	$40
     71d: 68 a1 00 00 00               	pushl	$161
     722: e8 fc ff ff ff               	calll	0x723 <remap_pic+0x63>
     727: 83 c4 10                     	addl	$16, %esp
     72a: 83 ec 08                     	subl	$8, %esp
     72d: 6a 04                        	pushl	$4
     72f: 6a 21                        	pushl	$33
     731: e8 fc ff ff ff               	calll	0x732 <remap_pic+0x72>
     736: 83 c4 10                     	addl	$16, %esp
     739: 83 ec 08                     	subl	$8, %esp
     73c: 6a 02                        	pushl	$2
     73e: 68 a1 00 00 00               	pushl	$161
     743: e8 fc ff ff ff               	calll	0x744 <remap_pic+0x84>
     748: 83 c4 10                     	addl	$16, %esp
     74b: 83 ec 08                     	subl	$8, %esp
     74e: 6a 01                        	pushl	$1
     750: 6a 21                        	pushl	$33
     752: e8 fc ff ff ff               	calll	0x753 <remap_pic+0x93>
     757: 83 c4 10                     	addl	$16, %esp
     75a: 83 ec 08                     	subl	$8, %esp
     75d: 6a 01                        	pushl	$1
     75f: 68 a1 00 00 00               	pushl	$161
     764: e8 fc ff ff ff               	calll	0x765 <remap_pic+0xa5>
     769: 83 c4 10                     	addl	$16, %esp
     76c: 0f b6 44 24 0f               	movzbl	15(%esp), %eax
     771: 83 ec 08                     	subl	$8, %esp
     774: 50                           	pushl	%eax
     775: 6a 21                        	pushl	$33
     777: e8 fc ff ff ff               	calll	0x778 <remap_pic+0xb8>
     77c: 83 c4 10                     	addl	$16, %esp
     77f: 0f b6 44 24 0e               	movzbl	14(%esp), %eax
     784: 83 ec 08                     	subl	$8, %esp
     787: 50                           	pushl	%eax
     788: 68 a1 00 00 00               	pushl	$161
     78d: e8 fc ff ff ff               	calll	0x78e <remap_pic+0xce>
     792: 83 c4 10                     	addl	$16, %esp
     795: 90                           	nop
     796: 83 c4 1c                     	addl	$28, %esp
     799: c3                           	retl
     79a: 8d b6 00 00 00 00            	leal	(%esi), %esi

000007a0 <irq_init>:
     7a0: 83 ec 0c                     	subl	$12, %esp
     7a3: e8 fc ff ff ff               	calll	0x7a4 <irq_init+0x4>
     7a8: 90                           	nop
     7a9: 83 c4 0c                     	addl	$12, %esp
     7ac: c3                           	retl
     7ad: 66 90                        	nop
     7af: 90                           	nop

000007b0 <heap_validate_heap_table>:
     7b0: 83 ec 10                     	subl	$16, %esp
     7b3: c7 44 24 0c 00 00 00 00      	movl	$0, 12(%esp)
     7bb: 8b 44 24 18                  	movl	24(%esp), %eax
     7bf: 2b 44 24 14                  	subl	20(%esp), %eax
     7c3: 89 44 24 08                  	movl	%eax, 8(%esp)
     7c7: 8b 44 24 08                  	movl	8(%esp), %eax
     7cb: c1 e8 0c                     	shrl	$12, %eax
     7ce: 89 44 24 04                  	movl	%eax, 4(%esp)
     7d2: 8b 44 24 1c                  	movl	28(%esp), %eax
     7d6: 8b 40 04                     	movl	4(%eax), %eax
     7d9: 39 44 24 04                  	cmpl	%eax, 4(%esp)
     7dd: 74 07                        	je	0x7e6 <heap_validate_heap_table+0x36>
     7df: b8 fe ff ff ff               	movl	$4294967294, %eax       # imm = 0xFFFFFFFE
     7e4: eb 04                        	jmp	0x7ea <heap_validate_heap_table+0x3a>
     7e6: 8b 44 24 0c                  	movl	12(%esp), %eax
     7ea: 83 c4 10                     	addl	$16, %esp
     7ed: c3                           	retl
     7ee: 66 90                        	nop

000007f0 <heap_validate_alignment>:
     7f0: 8b 44 24 04                  	movl	4(%esp), %eax
     7f4: 25 ff 0f 00 00               	andl	$4095, %eax             # imm = 0xFFF
     7f9: 85 c0                        	testl	%eax, %eax
     7fb: 0f 94 c0                     	sete	%al
     7fe: 0f b6 c0                     	movzbl	%al, %eax
     801: c3                           	retl
     802: 8d b4 26 00 00 00 00         	leal	(%esi,%eiz), %esi
     809: 8d b4 26 00 00 00 00         	leal	(%esi,%eiz), %esi

00000810 <heap_create>:
     810: 83 ec 1c                     	subl	$28, %esp
     813: c7 44 24 0c 00 00 00 00      	movl	$0, 12(%esp)
     81b: ff 74 24 24                  	pushl	36(%esp)
     81f: e8 cc ff ff ff               	calll	0x7f0 <heap_validate_alignment>
     824: 83 c4 04                     	addl	$4, %esp
     827: 85 c0                        	testl	%eax, %eax
     829: 74 10                        	je	0x83b <heap_create+0x2b>
     82b: ff 74 24 28                  	pushl	40(%esp)
     82f: e8 bc ff ff ff               	calll	0x7f0 <heap_validate_alignment>
     834: 83 c4 04                     	addl	$4, %esp
     837: 85 c0                        	testl	%eax, %eax
     839: 75 07                        	jne	0x842 <heap_create+0x32>
     83b: b8 fe ff ff ff               	movl	$4294967294, %eax       # imm = 0xFFFFFFFE
     840: eb 78                        	jmp	0x8ba <heap_create+0xaa>
     842: 83 ec 04                     	subl	$4, %esp
     845: 6a 08                        	pushl	$8
     847: 6a 00                        	pushl	$0
     849: ff 74 24 2c                  	pushl	44(%esp)
     84d: e8 fc ff ff ff               	calll	0x84e <heap_create+0x3e>
     852: 83 c4 10                     	addl	$16, %esp
     855: 8b 44 24 20                  	movl	32(%esp), %eax
     859: 8b 54 24 24                  	movl	36(%esp), %edx
     85d: 89 50 04                     	movl	%edx, 4(%eax)
     860: 8b 44 24 20                  	movl	32(%esp), %eax
     864: 8b 54 24 2c                  	movl	44(%esp), %edx
     868: 89 10                        	movl	%edx, (%eax)
     86a: 83 ec 04                     	subl	$4, %esp
     86d: ff 74 24 30                  	pushl	48(%esp)
     871: ff 74 24 30                  	pushl	48(%esp)
     875: ff 74 24 30                  	pushl	48(%esp)
     879: e8 32 ff ff ff               	calll	0x7b0 <heap_validate_heap_table>
     87e: 83 c4 10                     	addl	$16, %esp
     881: 89 44 24 0c                  	movl	%eax, 12(%esp)
     885: 83 7c 24 0c 00               	cmpl	$0, 12(%esp)
     88a: 79 06                        	jns	0x892 <heap_create+0x82>
     88c: 8b 44 24 0c                  	movl	12(%esp), %eax
     890: eb 28                        	jmp	0x8ba <heap_create+0xaa>
     892: 8b 44 24 2c                  	movl	44(%esp), %eax
     896: 8b 40 04                     	movl	4(%eax), %eax
     899: 89 44 24 08                  	movl	%eax, 8(%esp)
     89d: 8b 44 24 2c                  	movl	44(%esp), %eax
     8a1: 8b 00                        	movl	(%eax), %eax
     8a3: 83 ec 04                     	subl	$4, %esp
     8a6: ff 74 24 0c                  	pushl	12(%esp)
     8aa: 6a 00                        	pushl	$0
     8ac: 50                           	pushl	%eax
     8ad: e8 fc ff ff ff               	calll	0x8ae <heap_create+0x9e>
     8b2: 83 c4 10                     	addl	$16, %esp
     8b5: b8 00 00 00 00               	movl	$0, %eax
     8ba: 83 c4 1c                     	addl	$28, %esp
     8bd: c3                           	retl
     8be: 66 90                        	nop

000008c0 <heap_align_value_to_upper>:
     8c0: 8b 44 24 04                  	movl	4(%esp), %eax
     8c4: 25 ff 0f 00 00               	andl	$4095, %eax             # imm = 0xFFF
     8c9: 85 c0                        	testl	%eax, %eax
     8cb: 75 05                        	jne	0x8d2 <heap_align_value_to_upper+0x12>
     8cd: 8b 44 24 04                  	movl	4(%esp), %eax
     8d1: c3                           	retl
     8d2: 8b 44 24 04                  	movl	4(%esp), %eax
     8d6: 25 00 f0 ff ff               	andl	$4294963200, %eax       # imm = 0xFFFFF000
     8db: 05 00 10 00 00               	addl	$4096, %eax             # imm = 0x1000
     8e0: c3                           	retl
     8e1: 8d b4 26 00 00 00 00         	leal	(%esi,%eiz), %esi
     8e8: 8d b4 26 00 00 00 00         	leal	(%esi,%eiz), %esi
     8ef: 90                           	nop

000008f0 <heap_get_entry_type>:
     8f0: 83 ec 04                     	subl	$4, %esp
     8f3: 8b 44 24 08                  	movl	8(%esp), %eax
     8f7: 88 04 24                     	movb	%al, (%esp)
     8fa: 0f b6 04 24                  	movzbl	(%esp), %eax
     8fe: 83 e0 0f                     	andl	$15, %eax
     901: 83 c4 04                     	addl	$4, %esp
     904: c3                           	retl
     905: 8d b4 26 00 00 00 00         	leal	(%esi,%eiz), %esi
     90c: 8d 74 26 00                  	leal	(%esi,%eiz), %esi

00000910 <heap_get_start_block>:
     910: 83 ec 10                     	subl	$16, %esp
     913: c7 44 24 0c 00 00 00 00      	movl	$0, 12(%esp)
     91b: c7 44 24 08 00 00 00 00      	movl	$0, 8(%esp)
     923: 8b 44 24 14                  	movl	20(%esp), %eax
     927: 8b 00                        	movl	(%eax), %eax
     929: 89 04 24                     	movl	%eax, (%esp)
     92c: c7 44 24 04 00 00 00 00      	movl	$0, 4(%esp)
     934: eb 4b                        	jmp	0x981 <heap_get_start_block+0x71>
     936: 8b 04 24                     	movl	(%esp), %eax
     939: 8b 10                        	movl	(%eax), %edx
     93b: 8b 44 24 04                  	movl	4(%esp), %eax
     93f: 01 d0                        	addl	%edx, %eax
     941: 0f b6 00                     	movzbl	(%eax), %eax
     944: 0f b6 c0                     	movzbl	%al, %eax
     947: 50                           	pushl	%eax
     948: e8 a3 ff ff ff               	calll	0x8f0 <heap_get_entry_type>
     94d: 83 c4 04                     	addl	$4, %esp
     950: 84 c0                        	testb	%al, %al
     952: 74 0a                        	je	0x95e <heap_get_start_block+0x4e>
     954: c7 44 24 08 00 00 00 00      	movl	$0, 8(%esp)
     95c: eb 1e                        	jmp	0x97c <heap_get_start_block+0x6c>
     95e: 83 44 24 08 01               	addl	$1, 8(%esp)
     963: 83 7c 24 08 01               	cmpl	$1, 8(%esp)
     968: 75 08                        	jne	0x972 <heap_get_start_block+0x62>
     96a: 8b 44 24 04                  	movl	4(%esp), %eax
     96e: 89 44 24 0c                  	movl	%eax, 12(%esp)
     972: 8b 44 24 08                  	movl	8(%esp), %eax
     976: 3b 44 24 18                  	cmpl	24(%esp), %eax
     97a: 74 13                        	je	0x98f <heap_get_start_block+0x7f>
     97c: 83 44 24 04 01               	addl	$1, 4(%esp)
     981: 8b 04 24                     	movl	(%esp), %eax
     984: 8b 40 04                     	movl	4(%eax), %eax
     987: 39 44 24 04                  	cmpl	%eax, 4(%esp)
     98b: 72 a9                        	jb	0x936 <heap_get_start_block+0x26>
     98d: eb 01                        	jmp	0x990 <heap_get_start_block+0x80>
     98f: 90                           	nop
     990: 83 7c 24 08 00               	cmpl	$0, 8(%esp)
     995: 75 07                        	jne	0x99e <heap_get_start_block+0x8e>
     997: b8 fd ff ff ff               	movl	$4294967293, %eax       # imm = 0xFFFFFFFD
     99c: eb 04                        	jmp	0x9a2 <heap_get_start_block+0x92>
     99e: 8b 44 24 0c                  	movl	12(%esp), %eax
     9a2: 83 c4 10                     	addl	$16, %esp
     9a5: c3                           	retl
     9a6: 8d b4 26 00 00 00 00         	leal	(%esi,%eiz), %esi
     9ad: 8d 76 00                     	leal	(%esi), %esi

000009b0 <heap_malloc_block>:
     9b0: 53                           	pushl	%ebx
     9b1: 83 ec 10                     	subl	$16, %esp
     9b4: ff 74 24 1c                  	pushl	28(%esp)
     9b8: ff 74 24 1c                  	pushl	28(%esp)
     9bc: e8 4f ff ff ff               	calll	0x910 <heap_get_start_block>
     9c1: 83 c4 08                     	addl	$8, %esp
     9c4: 89 44 24 08                  	movl	%eax, 8(%esp)
     9c8: 8b 44 24 18                  	movl	24(%esp), %eax
     9cc: 8b 00                        	movl	(%eax), %eax
     9ce: 8b 10                        	movl	(%eax), %edx
     9d0: 8b 44 24 08                  	movl	8(%esp), %eax
     9d4: 01 d0                        	addl	%edx, %eax
     9d6: 0f b6 10                     	movzbl	(%eax), %edx
     9d9: 8b 44 24 18                  	movl	24(%esp), %eax
     9dd: 8b 00                        	movl	(%eax), %eax
     9df: 8b 08                        	movl	(%eax), %ecx
     9e1: 8b 44 24 08                  	movl	8(%esp), %eax
     9e5: 01 c8                        	addl	%ecx, %eax
     9e7: 83 ca 41                     	orl	$65, %edx
     9ea: 88 10                        	movb	%dl, (%eax)
     9ec: 8b 44 24 08                  	movl	8(%esp), %eax
     9f0: 83 c0 01                     	addl	$1, %eax
     9f3: 89 44 24 0c                  	movl	%eax, 12(%esp)
     9f7: eb 29                        	jmp	0xa22 <heap_malloc_block+0x72>
     9f9: 8b 44 24 18                  	movl	24(%esp), %eax
     9fd: 8b 00                        	movl	(%eax), %eax
     9ff: 8b 10                        	movl	(%eax), %edx
     a01: 8b 44 24 0c                  	movl	12(%esp), %eax
     a05: 01 d0                        	addl	%edx, %eax
     a07: 0f b6 10                     	movzbl	(%eax), %edx
     a0a: 8b 44 24 18                  	movl	24(%esp), %eax
     a0e: 8b 00                        	movl	(%eax), %eax
     a10: 8b 08                        	movl	(%eax), %ecx
     a12: 8b 44 24 0c                  	movl	12(%esp), %eax
     a16: 01 c8                        	addl	%ecx, %eax
     a18: 83 ca 81                     	orl	$-127, %edx
     a1b: 88 10                        	movb	%dl, (%eax)
     a1d: 83 44 24 0c 01               	addl	$1, 12(%esp)
     a22: 8b 54 24 08                  	movl	8(%esp), %edx
     a26: 8b 44 24 1c                  	movl	28(%esp), %eax
     a2a: 01 d0                        	addl	%edx, %eax
     a2c: 83 e8 01                     	subl	$1, %eax
     a2f: 39 44 24 0c                  	cmpl	%eax, 12(%esp)
     a33: 72 c4                        	jb	0x9f9 <heap_malloc_block+0x49>
     a35: 8b 44 24 18                  	movl	24(%esp), %eax
     a39: 8b 00                        	movl	(%eax), %eax
     a3b: 8b 00                        	movl	(%eax), %eax
     a3d: 8b 4c 24 08                  	movl	8(%esp), %ecx
     a41: 8b 54 24 1c                  	movl	28(%esp), %edx
     a45: 01 ca                        	addl	%ecx, %edx
     a47: 01 d0                        	addl	%edx, %eax
     a49: 0f b6 10                     	movzbl	(%eax), %edx
     a4c: 8b 44 24 18                  	movl	24(%esp), %eax
     a50: 8b 00                        	movl	(%eax), %eax
     a52: 8b 00                        	movl	(%eax), %eax
     a54: 8b 5c 24 08                  	movl	8(%esp), %ebx
     a58: 8b 4c 24 1c                  	movl	28(%esp), %ecx
     a5c: 01 d9                        	addl	%ebx, %ecx
     a5e: 01 c8                        	addl	%ecx, %eax
     a60: 83 ca 01                     	orl	$1, %edx
     a63: 88 10                        	movb	%dl, (%eax)
     a65: 8b 44 24 08                  	movl	8(%esp), %eax
     a69: 05 00 10 00 00               	addl	$4096, %eax             # imm = 0x1000
     a6e: c1 e0 0c                     	shll	$12, %eax
     a71: 83 c4 10                     	addl	$16, %esp
     a74: 5b                           	popl	%ebx
     a75: c3                           	retl
     a76: 8d b4 26 00 00 00 00         	leal	(%esi,%eiz), %esi
     a7d: 8d 76 00                     	leal	(%esi), %esi

00000a80 <heap_malloc>:
     a80: 83 ec 10                     	subl	$16, %esp
     a83: ff 74 24 18                  	pushl	24(%esp)
     a87: e8 34 fe ff ff               	calll	0x8c0 <heap_align_value_to_upper>
     a8c: 83 c4 04                     	addl	$4, %esp
     a8f: 89 44 24 0c                  	movl	%eax, 12(%esp)
     a93: 8b 44 24 0c                  	movl	12(%esp), %eax
     a97: c1 e8 0c                     	shrl	$12, %eax
     a9a: 89 44 24 08                  	movl	%eax, 8(%esp)
     a9e: ff 74 24 08                  	pushl	8(%esp)
     aa2: ff 74 24 18                  	pushl	24(%esp)
     aa6: e8 fc ff ff ff               	calll	0xaa7 <heap_malloc+0x27>
     aab: 83 c4 08                     	addl	$8, %esp
     aae: 83 c4 10                     	addl	$16, %esp
     ab1: c3                           	retl
     ab2: 8d b4 26 00 00 00 00         	leal	(%esi,%eiz), %esi
     ab9: 8d b4 26 00 00 00 00         	leal	(%esi,%eiz), %esi

00000ac0 <heap_free>:
     ac0: b8 00 00 00 00               	movl	$0, %eax
     ac5: c3                           	retl
     ac6: 66 90                        	nop
     ac8: 66 90                        	nop
     aca: 66 90                        	nop
     acc: 66 90                        	nop
     ace: 66 90                        	nop

00000ad0 <kheap_init>:
     ad0: 83 ec 1c                     	subl	$28, %esp
     ad3: c7 05 00 00 00 00 00 80 00 00	movl	$32768, 0               # imm = 0x8000
     add: c7 05 04 00 00 00 00 64 00 00	movl	$25600, 4               # imm = 0x6400
     ae7: c7 44 24 0c 00 00 40 07      	movl	$121634816, 12(%esp)    # imm = 0x7400000
     aef: 68 00 00 00 00               	pushl	$0
     af4: ff 74 24 10                  	pushl	16(%esp)
     af8: 68 00 00 00 01               	pushl	$16777216               # imm = 0x1000000
     afd: 68 00 00 00 00               	pushl	$0
     b02: e8 fc ff ff ff               	calll	0xb03 <kheap_init+0x33>
     b07: 83 c4 10                     	addl	$16, %esp
     b0a: 89 44 24 08                  	movl	%eax, 8(%esp)
     b0e: 83 7c 24 08 00               	cmpl	$0, 8(%esp)
     b13: 79 12                        	jns	0xb27 <kheap_init+0x57>
     b15: 83 ec 0c                     	subl	$12, %esp
     b18: 68 88 04 00 00               	pushl	$1160                   # imm = 0x488
     b1d: e8 fc ff ff ff               	calll	0xb1e <kheap_init+0x4e>
     b22: 83 c4 10                     	addl	$16, %esp
     b25: eb 10                        	jmp	0xb37 <kheap_init+0x67>
     b27: 83 ec 0c                     	subl	$12, %esp
     b2a: 68 9d 04 00 00               	pushl	$1181                   # imm = 0x49D
     b2f: e8 fc ff ff ff               	calll	0xb30 <kheap_init+0x60>
     b34: 83 c4 10                     	addl	$16, %esp
     b37: 90                           	nop
     b38: 83 c4 1c                     	addl	$28, %esp
     b3b: c3                           	retl
     b3c: 66 90                        	nop
     b3e: 66 90                        	nop

00000b40 <memset>:
     b40: 83 ec 10                     	subl	$16, %esp
     b43: 8b 44 24 14                  	movl	20(%esp), %eax
     b47: 89 44 24 08                  	movl	%eax, 8(%esp)
     b4b: c7 44 24 0c 00 00 00 00      	movl	$0, 12(%esp)
     b53: eb 15                        	jmp	0xb6a <memset+0x2a>
     b55: 8b 54 24 08                  	movl	8(%esp), %edx
     b59: 8b 44 24 0c                  	movl	12(%esp), %eax
     b5d: 01 d0                        	addl	%edx, %eax
     b5f: 8b 54 24 18                  	movl	24(%esp), %edx
     b63: 88 10                        	movb	%dl, (%eax)
     b65: 83 44 24 0c 01               	addl	$1, 12(%esp)
     b6a: 8b 44 24 0c                  	movl	12(%esp), %eax
     b6e: 3b 44 24 1c                  	cmpl	28(%esp), %eax
     b72: 72 e1                        	jb	0xb55 <memset+0x15>
     b74: 8b 44 24 14                  	movl	20(%esp), %eax
     b78: 83 c4 10                     	addl	$16, %esp
     b7b: c3                           	retl
     b7c: 66 90                        	nop
     b7e: 66 90                        	nop

00000b80 <strlen>:
     b80: 83 ec 10                     	subl	$16, %esp
     b83: c7 44 24 0c 00 00 00 00      	movl	$0, 12(%esp)
     b8b: eb 05                        	jmp	0xb92 <strlen+0x12>
     b8d: 83 44 24 0c 01               	addl	$1, 12(%esp)
     b92: 8b 54 24 14                  	movl	20(%esp), %edx
     b96: 8b 44 24 0c                  	movl	12(%esp), %eax
     b9a: 01 d0                        	addl	%edx, %eax
     b9c: 0f b6 00                     	movzbl	(%eax), %eax
     b9f: 84 c0                        	testb	%al, %al
     ba1: 75 ea                        	jne	0xb8d <strlen+0xd>
     ba3: 8b 44 24 0c                  	movl	12(%esp), %eax
     ba7: 83 c4 10                     	addl	$16, %esp
     baa: c3                           	retl
     bab: 66 90                        	nop
     bad: 66 90                        	nop
     baf: 90                           	nop

00000bb0 <tty_initialize>:
     bb0: 83 ec 0c                     	subl	$12, %esp
     bb3: c7 05 00 00 00 00 00 80 0b 00	movl	$753664, 0              # imm = 0xB8000
     bbd: 83 ec 0c                     	subl	$12, %esp
     bc0: ff 74 24 1c                  	pushl	28(%esp)
     bc4: e8 fc ff ff ff               	calll	0xbc5 <tty_initialize+0x15>
     bc9: 83 c4 10                     	addl	$16, %esp
     bcc: ba 0f 00 00 00               	movl	$15, %edx
     bd1: 8b 44 24 10                  	movl	16(%esp), %eax
     bd5: 88 10                        	movb	%dl, (%eax)
     bd7: 90                           	nop
     bd8: 83 c4 0c                     	addl	$12, %esp
     bdb: c3                           	retl
     bdc: 8d 74 26 00                  	leal	(%esi,%eiz), %esi

00000be0 <tty_clear>:
     be0: 83 ec 1c                     	subl	$28, %esp
     be3: c6 44 24 0f 00               	movb	$0, 15(%esp)
     be8: eb 40                        	jmp	0xc2a <tty_clear+0x4a>
     bea: c6 44 24 0e 00               	movb	$0, 14(%esp)
     bef: eb 26                        	jmp	0xc17 <tty_clear+0x37>
     bf1: 0f b6 54 24 0e               	movzbl	14(%esp), %edx
     bf6: 0f b6 44 24 0f               	movzbl	15(%esp), %eax
     bfb: 52                           	pushl	%edx
     bfc: 50                           	pushl	%eax
     bfd: 6a 20                        	pushl	$32
     bff: ff 74 24 2c                  	pushl	44(%esp)
     c03: e8 fc ff ff ff               	calll	0xc04 <tty_clear+0x24>
     c08: 83 c4 10                     	addl	$16, %esp
     c0b: 0f b6 44 24 0e               	movzbl	14(%esp), %eax
     c10: 83 c0 01                     	addl	$1, %eax
     c13: 88 44 24 0e                  	movb	%al, 14(%esp)
     c17: 80 7c 24 0e 4f               	cmpb	$79, 14(%esp)
     c1c: 76 d3                        	jbe	0xbf1 <tty_clear+0x11>
     c1e: 0f b6 44 24 0f               	movzbl	15(%esp), %eax
     c23: 83 c0 01                     	addl	$1, %eax
     c26: 88 44 24 0f                  	movb	%al, 15(%esp)
     c2a: 80 7c 24 0f 4f               	cmpb	$79, 15(%esp)
     c2f: 76 b9                        	jbe	0xbea <tty_clear+0xa>
     c31: 8b 44 24 20                  	movl	32(%esp), %eax
     c35: c6 40 01 00                  	movb	$0, 1(%eax)
     c39: 8b 44 24 20                  	movl	32(%esp), %eax
     c3d: c6 40 02 00                  	movb	$0, 2(%eax)
     c41: 90                           	nop
     c42: 83 c4 1c                     	addl	$28, %esp
     c45: c3                           	retl
     c46: 8d b4 26 00 00 00 00         	leal	(%esi,%eiz), %esi
     c4d: 8d 76 00                     	leal	(%esi), %esi

00000c50 <tty_put_char>:
     c50: 56                           	pushl	%esi
     c51: 53                           	pushl	%ebx
     c52: 83 ec 14                     	subl	$20, %esp
     c55: 8b 4c 24 24                  	movl	36(%esp), %ecx
     c59: 8b 54 24 28                  	movl	40(%esp), %edx
     c5d: 8b 44 24 2c                  	movl	44(%esp), %eax
     c61: 88 4c 24 0c                  	movb	%cl, 12(%esp)
     c65: 88 54 24 08                  	movb	%dl, 8(%esp)
     c69: 88 44 24 04                  	movb	%al, 4(%esp)
     c6d: 80 7c 24 0c 0a               	cmpb	$10, 12(%esp)
     c72: 75 1c                        	jne	0xc90 <tty_put_char+0x40>
     c74: 8b 44 24 20                  	movl	32(%esp), %eax
     c78: c6 40 01 00                  	movb	$0, 1(%eax)
     c7c: 8b 44 24 20                  	movl	32(%esp), %eax
     c80: 0f b6 40 02                  	movzbl	2(%eax), %eax
     c84: 8d 50 01                     	leal	1(%eax), %edx
     c87: 8b 44 24 20                  	movl	32(%esp), %eax
     c8b: 88 50 02                     	movb	%dl, 2(%eax)
     c8e: eb 7d                        	jmp	0xd0d <tty_put_char+0xbd>
     c90: 8b 44 24 20                  	movl	32(%esp), %eax
     c94: 0f b6 00                     	movzbl	(%eax), %eax
     c97: 0f b6 c8                     	movzbl	%al, %ecx
     c9a: 0f b6 44 24 0c               	movzbl	12(%esp), %eax
     c9f: 0f b6 d0                     	movzbl	%al, %edx
     ca2: 8b 35 00 00 00 00            	movl	0, %esi
     ca8: 0f b6 5c 24 04               	movzbl	4(%esp), %ebx
     cad: 89 d8                        	movl	%ebx, %eax
     caf: c1 e0 02                     	shll	$2, %eax
     cb2: 01 d8                        	addl	%ebx, %eax
     cb4: c1 e0 04                     	shll	$4, %eax
     cb7: 89 c3                        	movl	%eax, %ebx
     cb9: 0f b6 44 24 08               	movzbl	8(%esp), %eax
     cbe: 01 d8                        	addl	%ebx, %eax
     cc0: 01 c0                        	addl	%eax, %eax
     cc2: 8d 1c 06                     	leal	(%esi,%eax), %ebx
     cc5: 83 ec 08                     	subl	$8, %esp
     cc8: 51                           	pushl	%ecx
     cc9: 52                           	pushl	%edx
     cca: e8 fc ff ff ff               	calll	0xccb <tty_put_char+0x7b>
     ccf: 83 c4 10                     	addl	$16, %esp
     cd2: 66 89 03                     	movw	%ax, (%ebx)
     cd5: 8b 44 24 20                  	movl	32(%esp), %eax
     cd9: 0f b6 40 01                  	movzbl	1(%eax), %eax
     cdd: 8d 50 01                     	leal	1(%eax), %edx
     ce0: 8b 44 24 20                  	movl	32(%esp), %eax
     ce4: 88 50 01                     	movb	%dl, 1(%eax)
     ce7: 8b 44 24 20                  	movl	32(%esp), %eax
     ceb: 0f b6 40 01                  	movzbl	1(%eax), %eax
     cef: 3c 4f                        	cmpb	$79, %al
     cf1: 76 1a                        	jbe	0xd0d <tty_put_char+0xbd>
     cf3: 8b 44 24 20                  	movl	32(%esp), %eax
     cf7: c6 40 01 00                  	movb	$0, 1(%eax)
     cfb: 8b 44 24 20                  	movl	32(%esp), %eax
     cff: 0f b6 40 02                  	movzbl	2(%eax), %eax
     d03: 8d 50 01                     	leal	1(%eax), %edx
     d06: 8b 44 24 20                  	movl	32(%esp), %eax
     d0a: 88 50 02                     	movb	%dl, 2(%eax)
     d0d: 83 c4 14                     	addl	$20, %esp
     d10: 5b                           	popl	%ebx
     d11: 5e                           	popl	%esi
     d12: c3                           	retl
     d13: 8d b4 26 00 00 00 00         	leal	(%esi,%eiz), %esi
     d1a: 8d b6 00 00 00 00            	leal	(%esi), %esi

00000d20 <tty_print>:
     d20: 53                           	pushl	%ebx
     d21: 83 ec 18                     	subl	$24, %esp
     d24: c7 44 24 0c 00 00 00 00      	movl	$0, 12(%esp)
     d2c: eb 3a                        	jmp	0xd68 <tty_print+0x48>
     d2e: 8b 44 24 20                  	movl	32(%esp), %eax
     d32: 0f b6 40 02                  	movzbl	2(%eax), %eax
     d36: 0f b6 c8                     	movzbl	%al, %ecx
     d39: 8b 44 24 20                  	movl	32(%esp), %eax
     d3d: 0f b6 40 01                  	movzbl	1(%eax), %eax
     d41: 0f b6 d0                     	movzbl	%al, %edx
     d44: 8b 5c 24 24                  	movl	36(%esp), %ebx
     d48: 8b 44 24 0c                  	movl	12(%esp), %eax
     d4c: 01 d8                        	addl	%ebx, %eax
     d4e: 0f b6 00                     	movzbl	(%eax), %eax
     d51: 0f be c0                     	movsbl	%al, %eax
     d54: 51                           	pushl	%ecx
     d55: 52                           	pushl	%edx
     d56: 50                           	pushl	%eax
     d57: ff 74 24 2c                  	pushl	44(%esp)
     d5b: e8 fc ff ff ff               	calll	0xd5c <tty_print+0x3c>
     d60: 83 c4 10                     	addl	$16, %esp
     d63: 83 44 24 0c 01               	addl	$1, 12(%esp)
     d68: 83 ec 0c                     	subl	$12, %esp
     d6b: ff 74 24 30                  	pushl	48(%esp)
     d6f: e8 fc ff ff ff               	calll	0xd70 <tty_print+0x50>
     d74: 83 c4 10                     	addl	$16, %esp
     d77: 39 44 24 0c                  	cmpl	%eax, 12(%esp)
     d7b: 72 b1                        	jb	0xd2e <tty_print+0xe>
     d7d: 90                           	nop
     d7e: 90                           	nop
     d7f: 83 c4 18                     	addl	$24, %esp
     d82: 5b                           	popl	%ebx
     d83: c3                           	retl
     d84: 8d b4 26 00 00 00 00         	leal	(%esi,%eiz), %esi
     d8b: 8d 74 26 00                  	leal	(%esi,%eiz), %esi
     d8f: 90                           	nop

00000d90 <tty_set_text_color>:
     d90: 83 ec 04                     	subl	$4, %esp
     d93: 8b 44 24 0c                  	movl	12(%esp), %eax
     d97: 88 04 24                     	movb	%al, (%esp)
     d9a: 8b 44 24 08                  	movl	8(%esp), %eax
     d9e: 0f b6 14 24                  	movzbl	(%esp), %edx
     da2: 88 10                        	movb	%dl, (%eax)
     da4: 90                           	nop
     da5: 83 c4 04                     	addl	$4, %esp
     da8: c3                           	retl
     da9: 8d b4 26 00 00 00 00         	leal	(%esi,%eiz), %esi

00000db0 <tty_make_video_mem_char>:
     db0: 83 ec 08                     	subl	$8, %esp
     db3: 8b 54 24 0c                  	movl	12(%esp), %edx
     db7: 8b 44 24 10                  	movl	16(%esp), %eax
     dbb: 88 54 24 04                  	movb	%dl, 4(%esp)
     dbf: 88 04 24                     	movb	%al, (%esp)
     dc2: 0f b6 04 24                  	movzbl	(%esp), %eax
     dc6: c1 e0 08                     	shll	$8, %eax
     dc9: 89 c2                        	movl	%eax, %edx
     dcb: 0f b6 44 24 04               	movzbl	4(%esp), %eax
     dd0: 09 d0                        	orl	%edx, %eax
     dd2: 83 c4 08                     	addl	$8, %esp
     dd5: c3                           	retl
     dd6: 8d b4 26 00 00 00 00         	leal	(%esi,%eiz), %esi
     ddd: 8d 76 00                     	leal	(%esi), %esi

00000de0 <tty_init>:
     de0: 83 ec 0c                     	subl	$12, %esp
     de3: 83 ec 0c                     	subl	$12, %esp
     de6: 68 09 00 00 00               	pushl	$9
     deb: e8 fc ff ff ff               	calll	0xdec <tty_init+0xc>
     df0: 83 c4 10                     	addl	$16, %esp
     df3: 90                           	nop
     df4: 83 c4 0c                     	addl	$12, %esp
     df7: c3                           	retl
     df8: 8d b4 26 00 00 00 00         	leal	(%esi,%eiz), %esi
     dff: 90                           	nop

00000e00 <tty_print_default>:
     e00: 83 ec 0c                     	subl	$12, %esp
     e03: 83 ec 08                     	subl	$8, %esp
     e06: ff 74 24 18                  	pushl	24(%esp)
     e0a: 68 09 00 00 00               	pushl	$9
     e0f: e8 fc ff ff ff               	calll	0xe10 <tty_print_default+0x10>
     e14: 83 c4 10                     	addl	$16, %esp
     e17: 90                           	nop
     e18: 83 c4 0c                     	addl	$12, %esp
     e1b: c3                           	retl
     e1c: 8d 74 26 00                  	leal	(%esi,%eiz), %esi

00000e20 <tty_kernel_panic>:
     e20: 83 ec 1c                     	subl	$28, %esp
     e23: 8b 44 24 20                  	movl	32(%esp), %eax
     e27: 88 44 24 0c                  	movb	%al, 12(%esp)
     e2b: c6 05 09 00 00 00 31         	movb	$49, 9
     e32: 83 ec 0c                     	subl	$12, %esp
     e35: 68 09 00 00 00               	pushl	$9
     e3a: e8 fc ff ff ff               	calll	0xe3b <tty_kernel_panic+0x1b>
     e3f: 83 c4 10                     	addl	$16, %esp
     e42: 83 ec 0c                     	subl	$12, %esp
     e45: 68 b8 04 00 00               	pushl	$1208                   # imm = 0x4B8
     e4a: e8 fc ff ff ff               	calll	0xe4b <tty_kernel_panic+0x2b>
     e4f: 83 c4 10                     	addl	$16, %esp
     e52: eb fe                        	jmp	0xe52 <tty_kernel_panic+0x32>
     e54: 66 90                        	nop
     e56: 66 90                        	nop
     e58: 66 90                        	nop
     e5a: 66 90                        	nop
     e5c: 66 90                        	nop
     e5e: 66 90                        	nop

00000e60 <itoa>:
     e60: 83 ec 10                     	subl	$16, %esp
     e63: 8b 44 24 14                  	movl	20(%esp), %eax
     e67: 89 44 24 04                  	movl	%eax, 4(%esp)
     e6b: c7 44 24 0c 00 00 00 00      	movl	$0, 12(%esp)
     e73: 8b 4c 24 14                  	movl	20(%esp), %ecx
     e77: ba cd cc cc cc               	movl	$3435973837, %edx       # imm = 0xCCCCCCCD
     e7c: 89 c8                        	movl	%ecx, %eax
     e7e: f7 e2                        	mull	%edx
     e80: c1 ea 03                     	shrl	$3, %edx
     e83: 89 d0                        	movl	%edx, %eax
     e85: c1 e0 02                     	shll	$2, %eax
     e88: 01 d0                        	addl	%edx, %eax
     e8a: 01 c0                        	addl	%eax, %eax
     e8c: 29 c1                        	subl	%eax, %ecx
     e8e: 89 ca                        	movl	%ecx, %edx
     e90: 89 54 24 04                  	movl	%edx, 4(%esp)
     e94: 83 7c 24 04 09               	cmpl	$9, 4(%esp)
     e99: 77 0b                        	ja	0xea6 <itoa+0x46>
     e9b: 8b 44 24 04                  	movl	4(%esp), %eax
     e9f: 83 c0 30                     	addl	$48, %eax
     ea2: 89 c1                        	movl	%eax, %ecx
     ea4: eb 09                        	jmp	0xeaf <itoa+0x4f>
     ea6: 8b 44 24 04                  	movl	4(%esp), %eax
     eaa: 83 c0 57                     	addl	$87, %eax
     ead: 89 c1                        	movl	%eax, %ecx
     eaf: 8b 44 24 0c                  	movl	12(%esp), %eax
     eb3: 8d 50 01                     	leal	1(%eax), %edx
     eb6: 89 54 24 0c                  	movl	%edx, 12(%esp)
     eba: 89 c2                        	movl	%eax, %edx
     ebc: 8b 44 24 18                  	movl	24(%esp), %eax
     ec0: 01 d0                        	addl	%edx, %eax
     ec2: 88 08                        	movb	%cl, (%eax)
     ec4: 8b 44 24 14                  	movl	20(%esp), %eax
     ec8: ba cd cc cc cc               	movl	$3435973837, %edx       # imm = 0xCCCCCCCD
     ecd: f7 e2                        	mull	%edx
     ecf: 89 d0                        	movl	%edx, %eax
     ed1: c1 e8 03                     	shrl	$3, %eax
     ed4: 89 44 24 14                  	movl	%eax, 20(%esp)
     ed8: 83 7c 24 14 00               	cmpl	$0, 20(%esp)
     edd: 75 94                        	jne	0xe73 <itoa+0x13>
     edf: 8b 44 24 0c                  	movl	12(%esp), %eax
     ee3: 8d 50 ff                     	leal	-1(%eax), %edx
     ee6: 89 54 24 0c                  	movl	%edx, 12(%esp)
     eea: 89 c2                        	movl	%eax, %edx
     eec: 8b 44 24 18                  	movl	24(%esp), %eax
     ef0: 01 d0                        	addl	%edx, %eax
     ef2: c6 00 00                     	movb	$0, (%eax)
     ef5: c7 44 24 08 00 00 00 00      	movl	$0, 8(%esp)
     efd: eb 47                        	jmp	0xf46 <itoa+0xe6>
     eff: 8b 54 24 08                  	movl	8(%esp), %edx
     f03: 8b 44 24 18                  	movl	24(%esp), %eax
     f07: 01 d0                        	addl	%edx, %eax
     f09: 0f b6 00                     	movzbl	(%eax), %eax
     f0c: 0f be c0                     	movsbl	%al, %eax
     f0f: 89 44 24 04                  	movl	%eax, 4(%esp)
     f13: 8b 54 24 0c                  	movl	12(%esp), %edx
     f17: 8b 44 24 18                  	movl	24(%esp), %eax
     f1b: 01 d0                        	addl	%edx, %eax
     f1d: 8b 4c 24 08                  	movl	8(%esp), %ecx
     f21: 8b 54 24 18                  	movl	24(%esp), %edx
     f25: 01 ca                        	addl	%ecx, %edx
     f27: 0f b6 00                     	movzbl	(%eax), %eax
     f2a: 88 02                        	movb	%al, (%edx)
     f2c: 8b 54 24 0c                  	movl	12(%esp), %edx
     f30: 8b 44 24 18                  	movl	24(%esp), %eax
     f34: 01 d0                        	addl	%edx, %eax
     f36: 8b 54 24 04                  	movl	4(%esp), %edx
     f3a: 88 10                        	movb	%dl, (%eax)
     f3c: 83 44 24 08 01               	addl	$1, 8(%esp)
     f41: 83 6c 24 0c 01               	subl	$1, 12(%esp)
     f46: 8b 44 24 08                  	movl	8(%esp), %eax
     f4a: 3b 44 24 0c                  	cmpl	12(%esp), %eax
     f4e: 7c af                        	jl	0xeff <itoa+0x9f>
     f50: 8b 44 24 18                  	movl	24(%esp), %eax
     f54: 83 c4 10                     	addl	$16, %esp
     f57: c3                           	retl
     f58: 8d b4 26 00 00 00 00         	leal	(%esi,%eiz), %esi
     f5f: 90                           	nop

00000f60 <enable_interrupts>:
     f60: fb                           	sti
     f61: 90                           	nop
     f62: c3                           	retl
     f63: 8d b4 26 00 00 00 00         	leal	(%esi,%eiz), %esi
     f6a: 8d b6 00 00 00 00            	leal	(%esi), %esi

00000f70 <start_kernel>:
     f70: 81 ec 8c 00 00 00            	subl	$140, %esp
     f76: e8 fc ff ff ff               	calll	0xf77 <start_kernel+0x7>
     f7b: e8 fc ff ff ff               	calll	0xf7c <start_kernel+0xc>
     f80: e8 fc ff ff ff               	calll	0xf81 <start_kernel+0x11>
     f85: e8 d6 ff ff ff               	calll	0xf60 <enable_interrupts>
     f8a: 8d 44 24 7f                  	leal	127(%esp), %eax
     f8e: 83 ec 04                     	subl	$4, %esp
     f91: 6a 14                        	pushl	$20
     f93: 8d 54 24 0a                  	leal	10(%esp), %edx
     f97: 52                           	pushl	%edx
     f98: 50                           	pushl	%eax
     f99: e8 c2 fe ff ff               	calll	0xe60 <itoa>
     f9e: 83 c4 10                     	addl	$16, %esp
     fa1: 83 ec 0c                     	subl	$12, %esp
     fa4: 50                           	pushl	%eax
     fa5: e8 fc ff ff ff               	calll	0xfa6 <start_kernel+0x36>
     faa: 83 c4 10                     	addl	$16, %esp
     fad: e8 fc ff ff ff               	calll	0xfae <start_kernel+0x3e>
     fb2: 90                           	nop
     fb3: 81 c4 8c 00 00 00            	addl	$140, %esp
     fb9: c3                           	retl

Disassembly of section .rel.text:

00000000 <.rel.text>:
       0: 14 00                        	adcb	$0, %al
       2: 00 00                        	addb	%al, (%eax)
       4: 02 7f 00                     	addb	(%edi), %bh
       7: 00 2f                        	addb	%ch, (%edi)
       9: 02 00                        	addb	(%eax), %al
       b: 00 01                        	addb	%al, (%ecx)
       d: 02 00                        	addb	(%eax), %al
       f: 00 99 02 00 00 02            	addb	%bl, 33554434(%ecx)
      15: 71 00                        	jno	0x17 <.rel.text+0x17>
      17: 00 e2                        	addb	%ah, %dl
      19: 02 00                        	addb	(%eax), %al
      1b: 00 02                        	addb	%al, (%edx)
      1d: 6d                           	insl	%dx, %es:(%edi)
      1e: 00 00                        	addb	%al, (%eax)
      20: 31 03                        	xorl	%eax, (%ebx)
      22: 00 00                        	addb	%al, (%eax)
      24: 02 7a 00                     	addb	(%edx), %bh
      27: 00 62 03                     	addb	%ah, 3(%edx)
      2a: 00 00                        	addb	%al, (%eax)
      2c: 02 6f 00                     	addb	(%edi), %ch
      2f: 00 bf 03 00 00 02            	addb	%bh, 33554435(%edi)
      35: 6f                           	outsl	(%esi), %dx
      36: 00 00                        	addb	%al, (%eax)
      38: 06                           	pushl	%es
      39: 04 00                        	addb	$0, %al
      3b: 00 02                        	addb	%al, (%edx)
      3d: 6f                           	outsl	(%esi), %dx
      3e: 00 00                        	addb	%al, (%eax)
      40: 3a 04 00                     	cmpb	(%eax,%eax), %al
      43: 00 02                        	addb	%al, (%edx)
      45: 7a 00                        	jp	0x47 <.rel.text+0x47>
      47: 00 53 04                     	addb	%dl, 4(%ebx)
      4a: 00 00                        	addb	%al, (%eax)
      4c: 02 7a 00                     	addb	(%edx), %bh
      4f: 00 6c 04 00                  	addb	%ch, (%esp,%eax)
      53: 00 02                        	addb	%al, (%edx)
      55: 7a 00                        	jp	0x57 <.rel.text+0x57>
      57: 00 85 04 00 00 02            	addb	%al, 33554436(%ebp)
      5d: 7a 00                        	jp	0x5f <.rel.text+0x5f>
      5f: 00 a4 04 00 00 02 87         	addb	%ah, -2029912064(%esp,%eax)
      66: 00 00                        	addb	%al, (%eax)
      68: 77 05                        	ja	0x6f <.rel.text+0x6f>
      6a: 00 00                        	addb	%al, (%eax)
      6c: 01 02                        	addl	%eax, (%edx)
      6e: 00 00                        	addb	%al, (%eax)
      70: 7c 05                        	jl	0x77 <.rel.text+0x77>
      72: 00 00                        	addb	%al, (%eax)
      74: 01 05 00 00 81 05            	addl	%eax, 92340224
      7a: 00 00                        	addb	%al, (%eax)
      7c: 02 8d 00 00 97 05            	addb	93782016(%ebp), %cl
      82: 00 00                        	addb	%al, (%eax)
      84: 01 02                        	addl	%eax, (%edx)
      86: 00 00                        	addb	%al, (%eax)
      88: 9c                           	pushfl
      89: 05 00 00 01 05               	addl	$83951616, %eax         # imm = 0x5010000
      8e: 00 00                        	addb	%al, (%eax)
      90: a1 05 00 00 02               	movl	33554437, %eax
      95: 8d 00                        	leal	(%eax), %eax
      97: 00 b0 05 00 00 02            	addb	%dh, 33554437(%eax)
      9d: 7a 00                        	jp	0x9f <.rel.text+0x9f>
      9f: 00 cb                        	addb	%cl, %bl
      a1: 05 00 00 02 7a               	addl	$2046951424, %eax       # imm = 0x7A020000
      a6: 00 00                        	addb	%al, (%eax)
      a8: eb 05                        	jmp	0xaf <.rel.text+0xaf>
      aa: 00 00                        	addb	%al, (%eax)
      ac: 01 81 00 00 3e 06            	addl	%eax, 104726528(%ecx)
      b2: 00 00                        	addb	%al, (%eax)
      b4: 01 81 00 00 43 06            	addl	%eax, 105054208(%ecx)
      ba: 00 00                        	addb	%al, (%eax)
      bc: 02 7d 00                     	addb	(%ebp), %bh
      bf: 00 4d 06                     	addb	%cl, 6(%ebp)
      c2: 00 00                        	addb	%al, (%eax)
      c4: 01 91 00 00 54 06            	addl	%edx, 106168320(%ecx)
      ca: 00 00                        	addb	%al, (%eax)
      cc: 01 81 00 00 59 06            	addl	%eax, 106496000(%ecx)
      d2: 00 00                        	addb	%al, (%eax)
      d4: 01 91 00 00 6f 06            	addl	%edx, 107937792(%ecx)
      da: 00 00                        	addb	%al, (%eax)
      dc: 01 90 00 00 75 06            	addl	%edx, 108331008(%eax)
      e2: 00 00                        	addb	%al, (%eax)
      e4: 02 75 00                     	addb	(%ebp), %dh
      e7: 00 96 06 00 00 01            	addb	%dl, 16777222(%esi)
      ed: 7c 00                        	jl	0xef <.rel.text+0xef>
      ef: 00 9d 06 00 00 02            	addb	%bl, 33554438(%ebp)
      f5: 75 00                        	jne	0xf7 <.rel.text+0xf7>
      f7: 00 a8 06 00 00 01            	addb	%ch, 16777222(%eax)
      fd: 91                           	xchgl	%ecx, %eax
      fe: 00 00                        	addb	%al, (%eax)
     100: ad                           	lodsl	(%esi), %eax
     101: 06                           	pushl	%es
     102: 00 00                        	addb	%al, (%eax)
     104: 02 7e 00                     	addb	(%esi), %bh
     107: 00 c9                        	addb	%cl, %cl
     109: 06                           	pushl	%es
     10a: 00 00                        	addb	%al, (%eax)
     10c: 02 6b 00                     	addb	(%ebx), %ch
     10f: 00 dd                        	addb	%bl, %ch
     111: 06                           	pushl	%es
     112: 00 00                        	addb	%al, (%eax)
     114: 02 6b 00                     	addb	(%ebx), %ch
     117: 00 f0                        	addb	%dh, %al
     119: 06                           	pushl	%es
     11a: 00 00                        	addb	%al, (%eax)
     11c: 02 7a 00                     	addb	(%edx), %bh
     11f: 00 02                        	addb	%al, (%edx)
     121: 07                           	popl	%es
     122: 00 00                        	addb	%al, (%eax)
     124: 02 7a 00                     	addb	(%edx), %bh
     127: 00 11                        	addb	%dl, (%ecx)
     129: 07                           	popl	%es
     12a: 00 00                        	addb	%al, (%eax)
     12c: 02 7a 00                     	addb	(%edx), %bh
     12f: 00 23                        	addb	%ah, (%ebx)
     131: 07                           	popl	%es
     132: 00 00                        	addb	%al, (%eax)
     134: 02 7a 00                     	addb	(%edx), %bh
     137: 00 32                        	addb	%dh, (%edx)
     139: 07                           	popl	%es
     13a: 00 00                        	addb	%al, (%eax)
     13c: 02 7a 00                     	addb	(%edx), %bh
     13f: 00 44 07 00                  	addb	%al, (%edi,%eax)
     143: 00 02                        	addb	%al, (%edx)
     145: 7a 00                        	jp	0x147 <.rel.text+0x147>
     147: 00 53 07                     	addb	%dl, 7(%ebx)
     14a: 00 00                        	addb	%al, (%eax)
     14c: 02 7a 00                     	addb	(%edx), %bh
     14f: 00 65 07                     	addb	%ah, 7(%ebp)
     152: 00 00                        	addb	%al, (%eax)
     154: 02 7a 00                     	addb	(%edx), %bh
     157: 00 78 07                     	addb	%bh, 7(%eax)
     15a: 00 00                        	addb	%al, (%eax)
     15c: 02 7a 00                     	addb	(%edx), %bh
     15f: 00 8e 07 00 00 02            	addb	%cl, 33554439(%esi)
     165: 7a 00                        	jp	0x167 <.rel.text+0x167>
     167: 00 a4 07 00 00 02 86         	addb	%ah, -2046689280(%edi,%eax)
     16e: 00 00                        	addb	%al, (%eax)
     170: 4e                           	decl	%esi
     171: 08 00                        	orb	%al, (%eax)
     173: 00 02                        	addb	%al, (%edx)
     175: 7d 00                        	jge	0x177 <.rel.text+0x177>
     177: 00 ae 08 00 00 02            	addb	%ch, 33554440(%esi)
     17d: 7d 00                        	jge	0x17f <.rel.text+0x17f>
     17f: 00 a7 0a 00 00 02            	addb	%ah, 33554442(%edi)
     185: 6a 00                        	pushl	$0
     187: 00 d5                        	addb	%dl, %ch
     189: 0a 00                        	orb	(%eax), %al
     18b: 00 01                        	addb	%al, (%ecx)
     18d: 66 00 00                     	addb	%al, (%eax)
     190: df 0a                        	fisttps	(%edx)
     192: 00 00                        	addb	%al, (%eax)
     194: 01 66 00                     	addl	%esp, (%esi)
     197: 00 f0                        	addb	%dh, %al
     199: 0a 00                        	orb	(%eax), %al
     19b: 00 01                        	addb	%al, (%ecx)
     19d: 66 00 00                     	addb	%al, (%eax)
     1a0: fe 0a                        	decb	(%edx)
     1a2: 00 00                        	addb	%al, (%eax)
     1a4: 01 68 00                     	addl	%ebp, (%eax)
     1a7: 00 03                        	addb	%al, (%ebx)
     1a9: 0b 00                        	orl	(%eax), %eax
     1ab: 00 02                        	addb	%al, (%edx)
     1ad: 7b 00                        	jnp	0x1af <.rel.text+0x1af>
     1af: 00 19                        	addb	%bl, (%ecx)
     1b1: 0b 00                        	orl	(%eax), %eax
     1b3: 00 01                        	addb	%al, (%ecx)
     1b5: 02 00                        	addb	(%eax), %al
     1b7: 00 1e                        	addb	%bl, (%esi)
     1b9: 0b 00                        	orl	(%eax), %eax
     1bb: 00 02                        	addb	%al, (%edx)
     1bd: 67 00 00                     	addb	%al, (%bx,%si)
     1c0: 2b 0b                        	subl	(%ebx), %ecx
     1c2: 00 00                        	addb	%al, (%eax)
     1c4: 01 02                        	addl	%eax, (%edx)
     1c6: 00 00                        	addb	%al, (%eax)
     1c8: 30 0b                        	xorb	%cl, (%ebx)
     1ca: 00 00                        	addb	%al, (%eax)
     1cc: 02 67 00                     	addb	(%edi), %ah
     1cf: 00 b5 0b 00 00 01            	addb	%dh, 16777227(%ebp)
     1d5: 8e 00                        	movw	(%eax), %es
     1d7: 00 c5                        	addb	%al, %ch
     1d9: 0b 00                        	orl	(%eax), %eax
     1db: 00 02                        	addb	%al, (%edx)
     1dd: 83 00 00                     	addl	$0, (%eax)
     1e0: 04 0c                        	addb	$12, %al
     1e2: 00 00                        	addb	%al, (%eax)
     1e4: 02 8a 00 00 a4 0c            	addb	212074496(%edx), %cl
     1ea: 00 00                        	addb	%al, (%eax)
     1ec: 01 8e 00 00 cb 0c            	addl	%ecx, 214630400(%esi)
     1f2: 00 00                        	addb	%al, (%eax)
     1f4: 02 8f 00 00 5c 0d            	addb	224133120(%edi), %cl
     1fa: 00 00                        	addb	%al, (%eax)
     1fc: 02 8a 00 00 70 0d            	addb	225443840(%edx), %cl
     202: 00 00                        	addb	%al, (%eax)
     204: 02 8c 00 00 e7 0d 00         	addb	911104(%eax,%eax), %cl
     20b: 00 01                        	addb	%al, (%ecx)
     20d: 05 00 00 ec 0d               	addl	$233570304, %eax        # imm = 0xDEC0000
     212: 00 00                        	addb	%al, (%eax)
     214: 02 82 00 00 0b 0e            	addb	235601920(%edx), %al
     21a: 00 00                        	addb	%al, (%eax)
     21c: 01 05 00 00 10 0e            	addl	%eax, 235929600
     222: 00 00                        	addb	%al, (%eax)
     224: 02 8d 00 00 2d 0e            	addb	237830144(%ebp), %cl
     22a: 00 00                        	addb	%al, (%eax)
     22c: 01 05 00 00 36 0e            	addl	%eax, 238419968
     232: 00 00                        	addb	%al, (%eax)
     234: 01 05 00 00 3b 0e            	addl	%eax, 238747648
     23a: 00 00                        	addb	%al, (%eax)
     23c: 02 83 00 00 46 0e            	addb	239468544(%ebx), %al
     242: 00 00                        	addb	%al, (%eax)
     244: 01 02                        	addl	%eax, (%edx)
     246: 00 00                        	addb	%al, (%eax)
     248: 4b                           	decl	%ebx
     249: 0e                           	pushl	%cs
     24a: 00 00                        	addb	%al, (%eax)
     24c: 02 67 00                     	addb	(%edi), %ah
     24f: 00 77 0f                     	addb	%dh, 15(%edi)
     252: 00 00                        	addb	%al, (%eax)
     254: 02 6e 00                     	addb	(%esi), %ch
     257: 00 7c 0f 00                  	addb	%bh, (%edi,%ecx)
     25b: 00 02                        	addb	%al, (%edx)
     25d: 74 00                        	je	0x25f <.rel.text+0x25f>
     25f: 00 81 0f 00 00 02            	addb	%al, 33554447(%ecx)
     265: 85 00                        	testl	%eax, (%eax)
     267: 00 a6 0f 00 00 02            	addb	%ah, 33554447(%esi)
     26d: 67 00 00                     	addb	%al, (%bx,%si)
     270: ae                           	scasb	%es:(%edi), %al
     271: 0f 00 00                     	sldtw	(%eax)
     274: 02 65 00                     	addb	(%ebp), %ah
     277: 00                           	<unknown>

Disassembly of section .rodata:

00000000 <WHITE>:
       0: 3f                           	aas
       1: 3f                           	aas
       2: 3f                           	aas

00000003 <BLACK>:
       3: 00 00                        	addb	%al, (%eax)
       5: 00 3f                        	addb	%bh, (%edi)

00000006 <RED>:
       6: 3f                           	aas
       7: 00 00                        	addb	%al, (%eax)

00000009 <GREEN>:
       9: 00 3f                        	addb	%bh, (%edi)
       b: 00 00                        	addb	%al, (%eax)

0000000c <BLUE>:
       c: 00 00                        	addb	%al, (%eax)
       e: 3f                           	aas

0000000f <YELLOW>:
       f: 3f                           	aas
      10: 3f                           	aas
      11: 00 1e                        	addb	%bl, (%esi)

00000012 <PURPLE>:
      12: 1e                           	pushl	%ds
      13: 00 1e                        	addb	%bl, (%esi)

00000015 <PINK>:
      15: 3f                           	aas
      16: 69 b4 00 3f 3f 00 00 00 00 00 3f     	imull	$1056964608, 16191(%eax,%eax), %esi # imm = 0x3F000000

00000018 <LIGHT_BLUE>:
      18: 00 3f                        	addb	%bh, (%edi)
      1a: 3f                           	aas
      1b: 00 00                        	addb	%al, (%eax)
      1d: 00 00                        	addb	%al, (%eax)
      1f: 00 3f                        	addb	%bh, (%edi)

00000020 <WHITE>:
      20: 3f                           	aas
      21: 3f                           	aas
      22: 3f                           	aas

00000023 <BLACK>:
      23: 00 00                        	addb	%al, (%eax)
      25: 00 3f                        	addb	%bh, (%edi)

00000026 <RED>:
      26: 3f                           	aas
      27: 00 00                        	addb	%al, (%eax)

00000029 <GREEN>:
      29: 00 3f                        	addb	%bh, (%edi)
      2b: 00 00                        	addb	%al, (%eax)

0000002c <BLUE>:
      2c: 00 00                        	addb	%al, (%eax)
      2e: 3f                           	aas

0000002f <YELLOW>:
      2f: 3f                           	aas
      30: 3f                           	aas
      31: 00 1e                        	addb	%bl, (%esi)

00000032 <PURPLE>:
      32: 1e                           	pushl	%ds
      33: 00 1e                        	addb	%bl, (%esi)

00000035 <PINK>:
      35: 3f                           	aas
      36: 69 b4 00 3f 3f 00 00 00 00 00 00     	imull	$0, 16191(%eax,%eax), %esi

00000038 <LIGHT_BLUE>:
      38: 00 3f                        	addb	%bh, (%edi)
      3a: 3f                           	aas

0000003b <SCREEN_PALETTE_SIZE>:
      3b: 00 00                        	addb	%al, (%eax)
      3d: 00 00                        	addb	%al, (%eax)
      3f: 00 00                        	addb	%al, (%eax)

00000040 <FONT>:
		...
     148: 18 3c 3c                     	sbbb	%bh, (%esp,%edi)
     14b: 18 18                        	sbbb	%bl, (%eax)
     14d: 00 18                        	addb	%bl, (%eax)
     14f: 00 36                        	addb	%dh, (%esi)
     151: 36 00 00                     	addb	%al, %ss:(%eax)
     154: 00 00                        	addb	%al, (%eax)
     156: 00 00                        	addb	%al, (%eax)
     158: 36 36 7f 36                  	jg	0x192 <FONT+0x152>
     15c: 7f 36                        	jg	0x194 <FONT+0x154>
     15e: 36 00 0c 3e                  	addb	%cl, %ss:(%esi,%edi)
     162: 03 1e                        	addl	(%esi), %ebx
     164: 30 1f                        	xorb	%bl, (%edi)
     166: 0c 00                        	orb	$0, %al
     168: 00 63 33                     	addb	%ah, 51(%ebx)
     16b: 18 0c 66                     	sbbb	%cl, (%esi,%eiz,2)
     16e: 63 00                        	arpl	%ax, (%eax)
     170: 1c 36                        	sbbb	$54, %al
     172: 1c 6e                        	sbbb	$110, %al
     174: 3b 33                        	cmpl	(%ebx), %esi
     176: 6e                           	outsb	(%esi), %dx
     177: 00 06                        	addb	%al, (%esi)
     179: 06                           	pushl	%es
     17a: 03 00                        	addl	(%eax), %eax
     17c: 00 00                        	addb	%al, (%eax)
     17e: 00 00                        	addb	%al, (%eax)
     180: 18 0c 06                     	sbbb	%cl, (%esi,%eax)
     183: 06                           	pushl	%es
     184: 06                           	pushl	%es
     185: 0c 18                        	orb	$24, %al
     187: 00 06                        	addb	%al, (%esi)
     189: 0c 18                        	orb	$24, %al
     18b: 18 18                        	sbbb	%bl, (%eax)
     18d: 0c 06                        	orb	$6, %al
     18f: 00 00                        	addb	%al, (%eax)
     191: 66 3c ff                     	cmpb	$-1, %al
     194: 3c 66                        	cmpb	$102, %al
     196: 00 00                        	addb	%al, (%eax)
     198: 00 0c 0c                     	addb	%cl, (%esp,%ecx)
     19b: 3f                           	aas
     19c: 0c 0c                        	orb	$12, %al
     19e: 00 00                        	addb	%al, (%eax)
     1a0: 00 00                        	addb	%al, (%eax)
     1a2: 00 00                        	addb	%al, (%eax)
     1a4: 00 0c 0c                     	addb	%cl, (%esp,%ecx)
     1a7: 06                           	pushl	%es
     1a8: 00 00                        	addb	%al, (%eax)
     1aa: 00 3f                        	addb	%bh, (%edi)
		...
     1b4: 00 0c 0c                     	addb	%cl, (%esp,%ecx)
     1b7: 00 60 30                     	addb	%ah, 48(%eax)
     1ba: 18 0c 06                     	sbbb	%cl, (%esi,%eax)
     1bd: 03 01                        	addl	(%ecx), %eax
     1bf: 00 3e                        	addb	%bh, (%esi)
     1c1: 63 73 7b                     	arpl	%si, 123(%ebx)
     1c4: 6f                           	outsl	(%esi), %dx
     1c5: 67 3e 00 0c                  	addb	%cl, %ds:(%si)
     1c9: 0e                           	pushl	%cs
     1ca: 0c 0c                        	orb	$12, %al
     1cc: 0c 0c                        	orb	$12, %al
     1ce: 3f                           	aas
     1cf: 00 1e                        	addb	%bl, (%esi)
     1d1: 33 30                        	xorl	(%eax), %esi
     1d3: 1c 06                        	sbbb	$6, %al
     1d5: 33 3f                        	xorl	(%edi), %edi
     1d7: 00 1e                        	addb	%bl, (%esi)
     1d9: 33 30                        	xorl	(%eax), %esi
     1db: 1c 30                        	sbbb	$48, %al
     1dd: 33 1e                        	xorl	(%esi), %ebx
     1df: 00 38                        	addb	%bh, (%eax)
     1e1: 3c 36                        	cmpb	$54, %al
     1e3: 33 7f 30                     	xorl	48(%edi), %edi
     1e6: 78 00                        	js	0x1e8 <FONT+0x1a8>
     1e8: 3f                           	aas
     1e9: 03 1f                        	addl	(%edi), %ebx
     1eb: 30 30                        	xorb	%dh, (%eax)
     1ed: 33 1e                        	xorl	(%esi), %ebx
     1ef: 00 1c 06                     	addb	%bl, (%esi,%eax)
     1f2: 03 1f                        	addl	(%edi), %ebx
     1f4: 33 33                        	xorl	(%ebx), %esi
     1f6: 1e                           	pushl	%ds
     1f7: 00 3f                        	addb	%bh, (%edi)
     1f9: 33 30                        	xorl	(%eax), %esi
     1fb: 18 0c 0c                     	sbbb	%cl, (%esp,%ecx)
     1fe: 0c 00                        	orb	$0, %al
     200: 1e                           	pushl	%ds
     201: 33 33                        	xorl	(%ebx), %esi
     203: 1e                           	pushl	%ds
     204: 33 33                        	xorl	(%ebx), %esi
     206: 1e                           	pushl	%ds
     207: 00 1e                        	addb	%bl, (%esi)
     209: 33 33                        	xorl	(%ebx), %esi
     20b: 3e 30 18                     	xorb	%bl, %ds:(%eax)
     20e: 0e                           	pushl	%cs
     20f: 00 00                        	addb	%al, (%eax)
     211: 0c 0c                        	orb	$12, %al
     213: 00 00                        	addb	%al, (%eax)
     215: 0c 0c                        	orb	$12, %al
     217: 00 00                        	addb	%al, (%eax)
     219: 0c 0c                        	orb	$12, %al
     21b: 00 00                        	addb	%al, (%eax)
     21d: 0c 0c                        	orb	$12, %al
     21f: 06                           	pushl	%es
     220: 18 0c 06                     	sbbb	%cl, (%esi,%eax)
     223: 03 06                        	addl	(%esi), %eax
     225: 0c 18                        	orb	$24, %al
     227: 00 00                        	addb	%al, (%eax)
     229: 00 3f                        	addb	%bh, (%edi)
     22b: 00 00                        	addb	%al, (%eax)
     22d: 3f                           	aas
     22e: 00 00                        	addb	%al, (%eax)
     230: 06                           	pushl	%es
     231: 0c 18                        	orb	$24, %al
     233: 30 18                        	xorb	%bl, (%eax)
     235: 0c 06                        	orb	$6, %al
     237: 00 1e                        	addb	%bl, (%esi)
     239: 33 30                        	xorl	(%eax), %esi
     23b: 18 0c 00                     	sbbb	%cl, (%eax,%eax)
     23e: 0c 00                        	orb	$0, %al
     240: 3e 63 7b 7b                  	arpl	%di, %ds:123(%ebx)
     244: 7b 03                        	jnp	0x249 <FONT+0x209>
     246: 1e                           	pushl	%ds
     247: 00 0c 1e                     	addb	%cl, (%esi,%ebx)
     24a: 33 33                        	xorl	(%ebx), %esi
     24c: 3f                           	aas
     24d: 33 33                        	xorl	(%ebx), %esi
     24f: 00 3f                        	addb	%bh, (%edi)
     251: 66 66 3e 66 66 3f            	aas
     257: 00 3c 66                     	addb	%bh, (%esi,%eiz,2)
     25a: 03 03                        	addl	(%ebx), %eax
     25c: 03 66 3c                     	addl	60(%esi), %esp
     25f: 00 1f                        	addb	%bl, (%edi)
     261: 36 66 66 66 36 1f            	popw	%ds
     267: 00 7f 46                     	addb	%bh, 70(%edi)
     26a: 16                           	pushl	%ss
     26b: 1e                           	pushl	%ds
     26c: 16                           	pushl	%ss
     26d: 46                           	incl	%esi
     26e: 7f 00                        	jg	0x270 <FONT+0x230>
     270: 7f 46                        	jg	0x2b8 <FONT+0x278>
     272: 16                           	pushl	%ss
     273: 1e                           	pushl	%ds
     274: 16                           	pushl	%ss
     275: 06                           	pushl	%es
     276: 0f 00 3c 66                  	<unknown>
     27a: 03 03                        	addl	(%ebx), %eax
     27c: 73 66                        	jae	0x2e4 <FONT+0x2a4>
     27e: 7c 00                        	jl	0x280 <FONT+0x240>
     280: 33 33                        	xorl	(%ebx), %esi
     282: 33 3f                        	xorl	(%edi), %edi
     284: 33 33                        	xorl	(%ebx), %esi
     286: 33 00                        	xorl	(%eax), %eax
     288: 1e                           	pushl	%ds
     289: 0c 0c                        	orb	$12, %al
     28b: 0c 0c                        	orb	$12, %al
     28d: 0c 1e                        	orb	$30, %al
     28f: 00 78 30                     	addb	%bh, 48(%eax)
     292: 30 30                        	xorb	%dh, (%eax)
     294: 33 33                        	xorl	(%ebx), %esi
     296: 1e                           	pushl	%ds
     297: 00 67 66                     	addb	%ah, 102(%edi)
     29a: 36 1e                        	pushl	%ds
     29c: 36 66 67 00 0f               	addb	%cl, %ss:(%bx)
     2a1: 06                           	pushl	%es
     2a2: 06                           	pushl	%es
     2a3: 06                           	pushl	%es
     2a4: 46                           	incl	%esi
     2a5: 66 7f 00                     	jg	0x2a8 <FONT+0x268>
     2a8: 63 77 7f                     	arpl	%si, 127(%edi)
     2ab: 7f 6b                        	jg	0x318 <FONT+0x2d8>
     2ad: 63 63 00                     	arpl	%sp, (%ebx)
     2b0: 63 67 6f                     	arpl	%sp, 111(%edi)
     2b3: 7b 73                        	jnp	0x328 <FONT+0x2e8>
     2b5: 63 63 00                     	arpl	%sp, (%ebx)
     2b8: 1c 36                        	sbbb	$54, %al
     2ba: 63 63 63                     	arpl	%sp, 99(%ebx)
     2bd: 36 1c 00                     	sbbb	$0, %al
     2c0: 3f                           	aas
     2c1: 66 66 3e 06                  	pushw	%es
     2c5: 06                           	pushl	%es
     2c6: 0f 00 1e                     	ltrw	(%esi)
     2c9: 33 33                        	xorl	(%ebx), %esi
     2cb: 33 3b                        	xorl	(%ebx), %edi
     2cd: 1e                           	pushl	%ds
     2ce: 38 00                        	cmpb	%al, (%eax)
     2d0: 3f                           	aas
     2d1: 66 66 3e 36 66 67 00 1e 33 07	addb	%bl, %ss:1843
     2db: 0e                           	pushl	%cs
     2dc: 38 33                        	cmpb	%dh, (%ebx)
     2de: 1e                           	pushl	%ds
     2df: 00 3f                        	addb	%bh, (%edi)
     2e1: 2d 0c 0c 0c 0c               	subl	$202116108, %eax        # imm = 0xC0C0C0C
     2e6: 1e                           	pushl	%ds
     2e7: 00 33                        	addb	%dh, (%ebx)
     2e9: 33 33                        	xorl	(%ebx), %esi
     2eb: 33 33                        	xorl	(%ebx), %esi
     2ed: 33 3f                        	xorl	(%edi), %edi
     2ef: 00 33                        	addb	%dh, (%ebx)
     2f1: 33 33                        	xorl	(%ebx), %esi
     2f3: 33 33                        	xorl	(%ebx), %esi
     2f5: 1e                           	pushl	%ds
     2f6: 0c 00                        	orb	$0, %al
     2f8: 63 63 63                     	arpl	%sp, 99(%ebx)
     2fb: 6b 7f 77 63                  	imull	$99, 119(%edi), %edi
     2ff: 00 63 63                     	addb	%ah, 99(%ebx)
     302: 36 1c 1c                     	sbbb	$28, %al
     305: 36 63 00                     	arpl	%ax, %ss:(%eax)
     308: 33 33                        	xorl	(%ebx), %esi
     30a: 33 1e                        	xorl	(%esi), %ebx
     30c: 0c 0c                        	orb	$12, %al
     30e: 1e                           	pushl	%ds
     30f: 00 7f 63                     	addb	%bh, 99(%edi)
     312: 31 18                        	xorl	%ebx, (%eax)
     314: 4c                           	decl	%esp
     315: 66 7f 00                     	jg	0x318 <FONT+0x2d8>
     318: 1e                           	pushl	%ds
     319: 06                           	pushl	%es
     31a: 06                           	pushl	%es
     31b: 06                           	pushl	%es
     31c: 06                           	pushl	%es
     31d: 06                           	pushl	%es
     31e: 1e                           	pushl	%ds
     31f: 00 03                        	addb	%al, (%ebx)
     321: 06                           	pushl	%es
     322: 0c 18                        	orb	$24, %al
     324: 30 60 40                     	xorb	%ah, 64(%eax)
     327: 00 1e                        	addb	%bl, (%esi)
     329: 18 18                        	sbbb	%bl, (%eax)
     32b: 18 18                        	sbbb	%bl, (%eax)
     32d: 18 1e                        	sbbb	%bl, (%esi)
     32f: 00 08                        	addb	%cl, (%eax)
     331: 1c 36                        	sbbb	$54, %al
     333: 63 00                        	arpl	%ax, (%eax)
		...
     33d: 00 00                        	addb	%al, (%eax)
     33f: ff 0c 0c                     	decl	(%esp,%ecx)
     342: 18 00                        	sbbb	%al, (%eax)
     344: 00 00                        	addb	%al, (%eax)
     346: 00 00                        	addb	%al, (%eax)
     348: 00 00                        	addb	%al, (%eax)
     34a: 1e                           	pushl	%ds
     34b: 30 3e                        	xorb	%bh, (%esi)
     34d: 33 6e 00                     	xorl	(%esi), %ebp
     350: 07                           	popl	%es
     351: 06                           	pushl	%es
     352: 06                           	pushl	%es
     353: 3e 66 66 3b 00               	cmpw	%ds:(%eax), %ax
     358: 00 00                        	addb	%al, (%eax)
     35a: 1e                           	pushl	%ds
     35b: 33 03                        	xorl	(%ebx), %eax
     35d: 33 1e                        	xorl	(%esi), %ebx
     35f: 00 38                        	addb	%bh, (%eax)
     361: 30 30                        	xorb	%dh, (%eax)
     363: 3e 33 33                     	xorl	%ds:(%ebx), %esi
     366: 6e                           	outsb	(%esi), %dx
     367: 00 00                        	addb	%al, (%eax)
     369: 00 1e                        	addb	%bl, (%esi)
     36b: 33 3f                        	xorl	(%edi), %edi
     36d: 03 1e                        	addl	(%esi), %ebx
     36f: 00 1c 36                     	addb	%bl, (%esi,%esi)
     372: 06                           	pushl	%es
     373: 0f 06                        	clts
     375: 06                           	pushl	%es
     376: 0f 00 00                     	sldtw	(%eax)
     379: 00 6e 33                     	addb	%ch, 51(%esi)
     37c: 33 3e                        	xorl	(%esi), %edi
     37e: 30 1f                        	xorb	%bl, (%edi)
     380: 07                           	popl	%es
     381: 06                           	pushl	%es
     382: 36 6e                        	outsb	%ss:(%esi), %dx
     384: 66 66 67 00 0c               	addb	%cl, (%si)
     389: 00 0e                        	addb	%cl, (%esi)
     38b: 0c 0c                        	orb	$12, %al
     38d: 0c 1e                        	orb	$30, %al
     38f: 00 30                        	addb	%dh, (%eax)
     391: 00 30                        	addb	%dh, (%eax)
     393: 30 30                        	xorb	%dh, (%eax)
     395: 33 33                        	xorl	(%ebx), %esi
     397: 1e                           	pushl	%ds
     398: 07                           	popl	%es
     399: 06                           	pushl	%es
     39a: 66 36 1e                     	pushw	%ds
     39d: 36 67 00 0e 0c 0c            	addb	%cl, %ss:3084
     3a3: 0c 0c                        	orb	$12, %al
     3a5: 0c 1e                        	orb	$30, %al
     3a7: 00 00                        	addb	%al, (%eax)
     3a9: 00 33                        	addb	%dh, (%ebx)
     3ab: 7f 7f                        	jg	0x42c <FONT+0x3ec>
     3ad: 6b 63 00 00                  	imull	$0, (%ebx), %esp
     3b1: 00 1f                        	addb	%bl, (%edi)
     3b3: 33 33                        	xorl	(%ebx), %esi
     3b5: 33 33                        	xorl	(%ebx), %esi
     3b7: 00 00                        	addb	%al, (%eax)
     3b9: 00 1e                        	addb	%bl, (%esi)
     3bb: 33 33                        	xorl	(%ebx), %esi
     3bd: 33 1e                        	xorl	(%esi), %ebx
     3bf: 00 00                        	addb	%al, (%eax)
     3c1: 00 3b                        	addb	%bh, (%ebx)
     3c3: 66 66 3e 06                  	pushw	%es
     3c7: 0f 00 00                     	sldtw	(%eax)
     3ca: 6e                           	outsb	(%esi), %dx
     3cb: 33 33                        	xorl	(%ebx), %esi
     3cd: 3e 30 78 00                  	xorb	%bh, %ds:(%eax)
     3d1: 00 3b                        	addb	%bh, (%ebx)
     3d3: 6e                           	outsb	(%esi), %dx
     3d4: 66 06                        	pushw	%es
     3d6: 0f 00 00                     	sldtw	(%eax)
     3d9: 00 3e                        	addb	%bh, (%esi)
     3db: 03 1e                        	addl	(%esi), %ebx
     3dd: 30 1f                        	xorb	%bl, (%edi)
     3df: 00 08                        	addb	%cl, (%eax)
     3e1: 0c 3e                        	orb	$62, %al
     3e3: 0c 0c                        	orb	$12, %al
     3e5: 2c 18                        	subb	$24, %al
     3e7: 00 00                        	addb	%al, (%eax)
     3e9: 00 33                        	addb	%dh, (%ebx)
     3eb: 33 33                        	xorl	(%ebx), %esi
     3ed: 33 6e 00                     	xorl	(%esi), %ebp
     3f0: 00 00                        	addb	%al, (%eax)
     3f2: 33 33                        	xorl	(%ebx), %esi
     3f4: 33 1e                        	xorl	(%esi), %ebx
     3f6: 0c 00                        	orb	$0, %al
     3f8: 00 00                        	addb	%al, (%eax)
     3fa: 63 6b 7f                     	arpl	%bp, 127(%ebx)
     3fd: 7f 36                        	jg	0x435 <FONT+0x3f5>
     3ff: 00 00                        	addb	%al, (%eax)
     401: 00 63 36                     	addb	%ah, 54(%ebx)
     404: 1c 36                        	sbbb	$54, %al
     406: 63 00                        	arpl	%ax, (%eax)
     408: 00 00                        	addb	%al, (%eax)
     40a: 33 33                        	xorl	(%ebx), %esi
     40c: 33 3e                        	xorl	(%esi), %edi
     40e: 30 1f                        	xorb	%bl, (%edi)
     410: 00 00                        	addb	%al, (%eax)
     412: 3f                           	aas
     413: 19 0c 26                     	sbbl	%ecx, (%esi,%eiz)
     416: 3f                           	aas
     417: 00 38                        	addb	%bh, (%eax)
     419: 0c 0c                        	orb	$12, %al
     41b: 07                           	popl	%es
     41c: 0c 0c                        	orb	$12, %al
     41e: 38 00                        	cmpb	%al, (%eax)
     420: 18 18                        	sbbb	%bl, (%eax)
     422: 18 00                        	sbbb	%al, (%eax)
     424: 18 18                        	sbbb	%bl, (%eax)
     426: 18 00                        	sbbb	%al, (%eax)
     428: 07                           	popl	%es
     429: 0c 0c                        	orb	$12, %al
     42b: 38 0c 0c                     	cmpb	%cl, (%esp,%ecx)
     42e: 07                           	popl	%es
     42f: 00 6e 3b                     	addb	%ch, 59(%esi)
		...
     43e: 00 00                        	addb	%al, (%eax)

00000440 <WHITE>:
     440: 3f                           	aas
     441: 3f                           	aas
     442: 3f                           	aas

00000443 <BLACK>:
     443: 00 00                        	addb	%al, (%eax)
     445: 00 3f                        	addb	%bh, (%edi)

00000446 <RED>:
     446: 3f                           	aas
     447: 00 00                        	addb	%al, (%eax)

00000449 <GREEN>:
     449: 00 3f                        	addb	%bh, (%edi)
     44b: 00 00                        	addb	%al, (%eax)

0000044c <BLUE>:
     44c: 00 00                        	addb	%al, (%eax)
     44e: 3f                           	aas

0000044f <YELLOW>:
     44f: 3f                           	aas
     450: 3f                           	aas
     451: 00 1e                        	addb	%bl, (%esi)

00000452 <PURPLE>:
     452: 1e                           	pushl	%ds
     453: 00 1e                        	addb	%bl, (%esi)

00000455 <PINK>:
     455: 3f                           	aas
     456: 69 b4 00 3f 3f 00 00 01 02 03 0f     	imull	$251855361, 16191(%eax,%eax), %esi # imm = 0xF030201

00000458 <LIGHT_BLUE>:
     458: 00 3f                        	addb	%bh, (%edi)
     45a: 3f                           	aas

0000045b <SCREEN_PALETTE_SIZE>:
     45b: 00 00                        	addb	%al, (%eax)

0000045c <TTY_CLEAR>:
     45c: 00 01                        	addb	%al, (%ecx)

0000045d <TTY_BLUE>:
     45d: 01 02                        	addl	%eax, (%edx)

0000045e <TTY_GREEN>:
     45e: 02 03                        	addb	(%ebx), %al

0000045f <TTY_BLUE_GREEN>:
     45f: 03 0f                        	addl	(%edi), %ecx

00000460 <TTY_WHITE>:
     460: 0f 44 69 76                  	cmovel	118(%ecx), %ebp
     464: 69 64 65 20 62 79 20 7a      	imull	$2048948578, 32(%ebp,%eiz,2), %esp # imm = 0x7A207962
     46c: 65 72 6f                     	jb	0x4de <TTY_WHITE+0xb>
     46f: 20 65 72                     	andb	%ah, 114(%ebp)
     472: 72 6f                        	jb	0x4e3 <TTY_WHITE+0x10>
     474: 72 0a                        	jb	0x480 <TTY_GREEN>
     476: 00 54 69 6d                  	addb	%dl, 109(%ecx,%ebp,2)
     47a: 65 72 0a                     	jb	0x487 <TTY_WHITE>
     47d: 00 00                        	addb	%al, (%eax)

0000047e <TTY_CLEAR>:
     47e: 00 01                        	addb	%al, (%ecx)

0000047f <TTY_BLUE>:
     47f: 01 02                        	addl	%eax, (%edx)

00000480 <TTY_GREEN>:
     480: 02 03                        	addb	(%ebx), %al

00000481 <TTY_BLUE_GREEN>:
     481: 03 0f                        	addl	(%edi), %ecx

00000482 <TTY_WHITE>:
     482: 0f 00 01                     	sldtw	(%ecx)

00000483 <TTY_CLEAR>:
     483: 00 01                        	addb	%al, (%ecx)

00000484 <TTY_BLUE>:
     484: 01 02                        	addl	%eax, (%edx)

00000485 <TTY_GREEN>:
     485: 02 03                        	addb	(%ebx), %al

00000486 <TTY_BLUE_GREEN>:
     486: 03 0f                        	addl	(%edi), %ecx

00000487 <TTY_WHITE>:
     487: 0f 46 61 69                  	cmovbel	105(%ecx), %esp
     48b: 6c                           	insb	%dx, %es:(%edi)
     48c: 65 64 20 74 6f 20            	andb	%dh, %fs:32(%edi,%ebp,2)
     492: 69 6e 69 74 20 68 65         	imull	$1701322868, 105(%esi), %ebp # imm = 0x65682074
     499: 61                           	popal
     49a: 70 21                        	jo	0x4bd <TTY_WHITE+0x6>
     49c: 00 0a                        	addb	%cl, (%edx)
     49e: 48                           	decl	%eax
     49f: 65 61                        	popal
     4a1: 70 20                        	jo	0x4c3 <TTY_WHITE+0xc>
     4a3: 69 73 20 69 6e 69 74         	imull	$1953066601, 32(%ebx), %esi # imm = 0x74696E69
     4aa: 69 61 6c 69 7a 65 64         	imull	$1684372073, 108(%ecx), %esp # imm = 0x64657A69
     4b1: 21 00                        	andl	%eax, (%eax)

000004b3 <TTY_CLEAR>:
     4b3: 00 01                        	addb	%al, (%ecx)

000004b4 <TTY_BLUE>:
     4b4: 01 02                        	addl	%eax, (%edx)

000004b5 <TTY_GREEN>:
     4b5: 02 03                        	addb	(%ebx), %al

000004b6 <TTY_BLUE_GREEN>:
     4b6: 03 0f                        	addl	(%edi), %ecx

000004b7 <TTY_WHITE>:
     4b7: 0f 4b 65 72                  	cmovnpl	114(%ebp), %esp
     4bb: 6e                           	outsb	(%esi), %dx
     4bc: 65 6c                        	insb	%dx, %es:(%edi)
     4be: 20 68 61                     	andb	%ch, 97(%eax)
     4c1: 73 20                        	jae	0x4e3 <TTY_WHITE+0x10>
     4c3: 70 61                        	jo	0x526 <TTY_WHITE+0x53>
     4c5: 6e                           	outsb	(%esi), %dx
     4c6: 69 63 65 64 21 21 21         	imull	$555819364, 101(%ebx), %esp # imm = 0x21212164
     4cd: 0a 00                        	orb	(%eax), %al

000004cf <TTY_CLEAR>:
     4cf: 00 01                        	addb	%al, (%ecx)

000004d0 <TTY_BLUE>:
     4d0: 01 02                        	addl	%eax, (%edx)

000004d1 <TTY_GREEN>:
     4d1: 02 03                        	addb	(%ebx), %al

000004d2 <TTY_BLUE_GREEN>:
     4d2: 03 0f                        	addl	(%edi), %ecx

000004d3 <TTY_WHITE>:
     4d3: 0f                           	<unknown>

Disassembly of section .asm:

00000000 <idt_load>:
       0: 55                           	pushl	%ebp
       1: 89 e5                        	movl	%esp, %ebp
       3: 8b 5d 08                     	movl	8(%ebp), %ebx
       6: 0f 01 1b                     	lidtl	(%ebx)
       9: 5d                           	popl	%ebp
       a: c3                           	retl

0000000b <int20h>:
       b: fa                           	cli
       c: 60                           	pushal
       d: e8 fc ff ff ff               	calll	0xe <int20h+0x3>
      12: 61                           	popal
      13: fb                           	sti
      14: cf                           	iretl

00000015 <no_interrupt>:
      15: fa                           	cli
      16: 60                           	pushal
      17: e8 fc ff ff ff               	calll	0x18 <no_interrupt+0x3>
      1c: 61                           	popal
      1d: fb                           	sti
      1e: cf                           	iretl

0000001f <insb>:
      1f: 55                           	pushl	%ebp
      20: 89 e5                        	movl	%esp, %ebp
      22: 31 c0                        	xorl	%eax, %eax
      24: 8b 55 08                     	movl	8(%ebp), %edx
      27: ec                           	inb	%dx, %al
      28: 5d                           	popl	%ebp
      29: c3                           	retl

0000002a <insw>:
      2a: 55                           	pushl	%ebp
      2b: 89 e5                        	movl	%esp, %ebp
      2d: 31 c0                        	xorl	%eax, %eax
      2f: 8b 55 08                     	movl	8(%ebp), %edx
      32: 66 ed                        	inw	%dx, %ax
      34: 5d                           	popl	%ebp
      35: c3                           	retl

00000036 <outb>:
      36: 55                           	pushl	%ebp
      37: 89 e5                        	movl	%esp, %ebp
      39: 8b 45 0c                     	movl	12(%ebp), %eax
      3c: 8b 55 08                     	movl	8(%ebp), %edx
      3f: ee                           	outb	%al, %dx
      40: 5d                           	popl	%ebp
      41: c3                           	retl

00000042 <outw>:
      42: 55                           	pushl	%ebp
      43: 89 e5                        	movl	%esp, %ebp
      45: 8b 45 0c                     	movl	12(%ebp), %eax
      48: 8b 55 08                     	movl	8(%ebp), %edx
      4b: 66 ef                        	outw	%ax, %dx
      4d: 5d                           	popl	%ebp
      4e: c3                           	retl

Disassembly of section .rel.asm:

00000000 <.rel.asm>:
       0: 0e                           	pushl	%cs
       1: 00 00                        	addb	%al, (%eax)
       3: 00 02                        	addb	%al, (%edx)
       5: 76 00                        	jbe	0x7 <.rel.asm+0x7>
       7: 00 18                        	addb	%bl, (%eax)
       9: 00 00                        	addb	%al, (%eax)
       b: 00 02                        	addb	%al, (%edx)
       d: 73 00                        	jae	0xf <.rel.asm+0xf>
       f: 00                           	<unknown>

Disassembly of section .eh_frame:

00000000 <.eh_frame>:
       0: 14 00                        	adcb	$0, %al
       2: 00 00                        	addb	%al, (%eax)
       4: 00 00                        	addb	%al, (%eax)
       6: 00 00                        	addb	%al, (%eax)
       8: 01 7a 52                     	addl	%edi, 82(%edx)
       b: 00 01                        	addb	%al, (%ecx)
       d: 7c 08                        	jl	0x17 <.eh_frame+0x17>
       f: 01 1b                        	addl	%ebx, (%ebx)
      11: 0c 04                        	orb	$4, %al
      13: 04 88                        	addb	$-120, %al
      15: 01 00                        	addl	%eax, (%eax)
      17: 00 10                        	addb	%dl, (%eax)
      19: 00 00                        	addb	%al, (%eax)
      1b: 00 1c 00                     	addb	%bl, (%eax,%eax)
      1e: 00 00                        	addb	%al, (%eax)
      20: 00 02                        	addb	%al, (%edx)
      22: 00 00                        	addb	%al, (%eax)
      24: 02 00                        	addb	(%eax), %al
      26: 00 00                        	addb	%al, (%eax)
      28: 00 00                        	addb	%al, (%eax)
      2a: 00 00                        	addb	%al, (%eax)
      2c: 14 00                        	adcb	$0, %al
      2e: 00 00                        	addb	%al, (%eax)
      30: 00 00                        	addb	%al, (%eax)
      32: 00 00                        	addb	%al, (%eax)
      34: 01 7a 52                     	addl	%edi, 82(%edx)
      37: 00 01                        	addb	%al, (%ecx)
      39: 7c 08                        	jl	0x43 <.eh_frame+0x43>
      3b: 01 1b                        	addl	%ebx, (%ebx)
      3d: 0c 04                        	orb	$4, %al
      3f: 04 88                        	addb	$-120, %al
      41: 01 00                        	addl	%eax, (%eax)
      43: 00 24 00                     	addb	%ah, (%eax,%eax)
      46: 00 00                        	addb	%al, (%eax)
      48: 1c 00                        	sbbb	$0, %al
      4a: 00 00                        	addb	%al, (%eax)
      4c: 10 02                        	adcb	%al, (%edx)
      4e: 00 00                        	addb	%al, (%eax)
      50: ae                           	scasb	%es:(%edi), %al
      51: 00 00                        	addb	%al, (%eax)
      53: 00 00                        	addb	%al, (%eax)
      55: 43                           	incl	%ebx
      56: 0e                           	pushl	%cs
      57: 30 02                        	xorb	%al, (%edx)
      59: 82 0e 34                     	orb	$52, (%esi)
      5c: 41                           	incl	%ecx
      5d: 0e                           	pushl	%cs
      5e: 38 41 0e                     	cmpb	%al, 14(%ecx)
      61: 3c 41                        	cmpb	$65, %al
      63: 0e                           	pushl	%cs
      64: 40                           	incl	%eax
      65: 48                           	decl	%eax
      66: 0e                           	pushl	%cs
      67: 30 5d 0e                     	xorb	%bl, 14(%ebp)
      6a: 04 00                        	addb	$0, %al
      6c: 24 00                        	andb	$0, %al
      6e: 00 00                        	addb	%al, (%eax)
      70: 44                           	incl	%esp
      71: 00 00                        	addb	%al, (%eax)
      73: 00 c0                        	addb	%al, %al
      75: 02 00                        	addb	(%eax), %al
      77: 00 4d 00                     	addb	%cl, (%ebp)
      7a: 00 00                        	addb	%al, (%eax)
      7c: 00 43 0e                     	addb	%al, 14(%ebx)
      7f: 30 55 0e                     	xorb	%dl, 14(%ebp)
      82: 34 44                        	xorb	$68, %al
      84: 0e                           	pushl	%cs
      85: 38 44 0e 3c                  	cmpb	%al, 60(%esi,%ecx)
      89: 41                           	incl	%ecx
      8a: 0e                           	pushl	%cs
      8b: 40                           	incl	%eax
      8c: 48                           	decl	%eax
      8d: 0e                           	pushl	%cs
      8e: 30 63 0e                     	xorb	%ah, 14(%ebx)
      91: 04 00                        	addb	$0, %al
      93: 00 14 00                     	addb	%dl, (%eax,%eax)
      96: 00 00                        	addb	%al, (%eax)
      98: 00 00                        	addb	%al, (%eax)
      9a: 00 00                        	addb	%al, (%eax)
      9c: 01 7a 52                     	addl	%edi, 82(%edx)
      9f: 00 01                        	addb	%al, (%ecx)
      a1: 7c 08                        	jl	0xab <.eh_frame+0xab>
      a3: 01 1b                        	addl	%ebx, (%ebx)
      a5: 0c 04                        	orb	$4, %al
      a7: 04 88                        	addb	$-120, %al
      a9: 01 00                        	addl	%eax, (%eax)
      ab: 00 14 00                     	addb	%dl, (%eax,%eax)
      ae: 00 00                        	addb	%al, (%eax)
      b0: 1c 00                        	sbbb	$0, %al
      b2: 00 00                        	addb	%al, (%eax)
      b4: 10 03                        	adcb	%al, (%ebx)
      b6: 00 00                        	addb	%al, (%eax)
      b8: 0f 00 00                     	sldtw	(%eax)
      bb: 00 00                        	addb	%al, (%eax)
      bd: 43                           	incl	%ebx
      be: 0e                           	pushl	%cs
      bf: 08 4b 0e                     	orb	%cl, 14(%ebx)
      c2: 04 00                        	addb	$0, %al
      c4: 44                           	incl	%esp
      c5: 00 00                        	addb	%al, (%eax)
      c7: 00 34 00                     	addb	%dh, (%eax,%eax)
      ca: 00 00                        	addb	%al, (%eax)
      cc: 20 03                        	andb	%al, (%ebx)
      ce: 00 00                        	addb	%al, (%eax)
      d0: f2 00 00                     	repne		addb	%al, (%eax)
      d3: 00 00                        	addb	%al, (%eax)
      d5: 43                           	incl	%ebx
      d6: 0e                           	pushl	%cs
      d7: 20 43 0e                     	andb	%al, 14(%ebx)
      da: 28 45 0e                     	subb	%al, 14(%ebp)
      dd: 2c 45                        	subb	$69, %al
      df: 0e                           	pushl	%cs
      e0: 30 48 0e                     	xorb	%cl, 14(%eax)
      e3: 20 52 0e                     	andb	%dl, 14(%edx)
      e6: 28 43 0e                     	subb	%al, 14(%ebx)
      e9: 2c 54                        	subb	$84, %al
      eb: 0e                           	pushl	%cs
      ec: 30 48 0e                     	xorb	%cl, 14(%eax)
      ef: 20 7f 0e                     	andb	%bh, 14(%edi)
      f2: 28 43 0e                     	subb	%al, 14(%ebx)
      f5: 2c 53                        	subb	$83, %al
      f7: 0e                           	pushl	%cs
      f8: 30 48 0e                     	xorb	%cl, 14(%eax)
      fb: 20 65 0e                     	andb	%ah, 14(%ebp)
      fe: 28 43 0e                     	subb	%al, 14(%ebx)
     101: 2c 57                        	subb	$87, %al
     103: 0e                           	pushl	%cs
     104: 30 48 0e                     	xorb	%cl, 14(%eax)
     107: 20 44 0e 04                  	andb	%al, 4(%esi,%ecx)
     10b: 00 44 00 00                  	addb	%al, (%eax,%eax)
     10f: 00 7c 00 00                  	addb	%bh, (%eax,%eax)
     113: 00 20                        	addb	%ah, (%eax)
     115: 04 00                        	addb	$0, %al
     117: 00 71 00                     	addb	%dh, (%ecx)
     11a: 00 00                        	addb	%al, (%eax)
     11c: 00 43 0e                     	addb	%al, 14(%ebx)
     11f: 20 50 0e                     	andb	%dl, 14(%eax)
     122: 28 41 0e                     	subb	%al, 14(%ecx)
     125: 2c 45                        	subb	$69, %al
     127: 0e                           	pushl	%cs
     128: 30 48 0e                     	xorb	%cl, 14(%eax)
     12b: 20 4b 0e                     	andb	%cl, 14(%ebx)
     12e: 28 41 0e                     	subb	%al, 14(%ecx)
     131: 2c 45                        	subb	$69, %al
     133: 0e                           	pushl	%cs
     134: 30 48 0e                     	xorb	%cl, 14(%eax)
     137: 20 4b 0e                     	andb	%cl, 14(%ebx)
     13a: 28 41 0e                     	subb	%al, 14(%ecx)
     13d: 2c 45                        	subb	$69, %al
     13f: 0e                           	pushl	%cs
     140: 30 48 0e                     	xorb	%cl, 14(%eax)
     143: 20 4b 0e                     	andb	%cl, 14(%ebx)
     146: 28 41 0e                     	subb	%al, 14(%ecx)
     149: 2c 45                        	subb	$69, %al
     14b: 0e                           	pushl	%cs
     14c: 30 48 0e                     	xorb	%cl, 14(%eax)
     14f: 20 44 0e 04                  	andb	%al, 4(%esi,%ecx)
     153: 00 14 00                     	addb	%dl, (%eax,%eax)
     156: 00 00                        	addb	%al, (%eax)
     158: c4 00                        	lesl	(%eax), %eax
     15a: 00 00                        	addb	%al, (%eax)
     15c: a0 04 00 00 7b               	movb	2063597572, %al
     161: 00 00                        	addb	%al, (%eax)
     163: 00 00                        	addb	%al, (%eax)
     165: 43                           	incl	%ebx
     166: 0e                           	pushl	%cs
     167: 20 02                        	andb	%al, (%edx)
     169: 77 0e                        	ja	0x179 <.eh_frame+0x179>
     16b: 04 14                        	addb	$20, %al
     16d: 00 00                        	addb	%al, (%eax)
     16f: 00 dc                        	addb	%bl, %ah
     171: 00 00                        	addb	%al, (%eax)
     173: 00 20                        	addb	%ah, (%eax)
     175: 05 00 00 4f 00               	addl	$5177344, %eax          # imm = 0x4F0000
     17a: 00 00                        	addb	%al, (%eax)
     17c: 00 43 0e                     	addb	%al, 14(%ebx)
     17f: 20 02                        	andb	%al, (%edx)
     181: 4b                           	decl	%ebx
     182: 0e                           	pushl	%cs
     183: 04 14                        	addb	$20, %al
     185: 00 00                        	addb	%al, (%eax)
     187: 00 00                        	addb	%al, (%eax)
     189: 00 00                        	addb	%al, (%eax)
     18b: 00 01                        	addb	%al, (%ecx)
     18d: 7a 52                        	jp	0x1e1 <.eh_frame+0x1e1>
     18f: 00 01                        	addb	%al, (%ecx)
     191: 7c 08                        	jl	0x19b <.eh_frame+0x19b>
     193: 01 1b                        	addl	%ebx, (%ebx)
     195: 0c 04                        	orb	$4, %al
     197: 04 88                        	addb	$-120, %al
     199: 01 00                        	addl	%eax, (%eax)
     19b: 00 20                        	addb	%ah, (%eax)
     19d: 00 00                        	addb	%al, (%eax)
     19f: 00 1c 00                     	addb	%bl, (%eax,%eax)
     1a2: 00 00                        	addb	%al, (%eax)
     1a4: 70 05                        	jo	0x1ab <.eh_frame+0x1ab>
     1a6: 00 00                        	addb	%al, (%eax)
     1a8: 1d 00 00 00 00               	sbbl	$0, %eax
     1ad: 43                           	incl	%ebx
     1ae: 0e                           	pushl	%cs
     1af: 10 43 0e                     	adcb	%al, 14(%ebx)
     1b2: 18 45 0e                     	sbbb	%al, 14(%ebp)
     1b5: 1c 45                        	sbbb	$69, %al
     1b7: 0e                           	pushl	%cs
     1b8: 20 48 0e                     	andb	%cl, 14(%eax)
     1bb: 10 44 0e 04                  	adcb	%al, 4(%esi,%ecx)
     1bf: 00 2c 00                     	addb	%ch, (%eax,%eax)
     1c2: 00 00                        	addb	%al, (%eax)
     1c4: 40                           	incl	%eax
     1c5: 00 00                        	addb	%al, (%eax)
     1c7: 00 90 05 00 00 2c            	addb	%dl, 738197509(%eax)
     1cd: 00 00                        	addb	%al, (%eax)
     1cf: 00 00                        	addb	%al, (%eax)
     1d1: 43                           	incl	%ebx
     1d2: 0e                           	pushl	%cs
     1d3: 10 43 0e                     	adcb	%al, 14(%ebx)
     1d6: 18 45 0e                     	sbbb	%al, 14(%ebp)
     1d9: 1c 45                        	sbbb	$69, %al
     1db: 0e                           	pushl	%cs
     1dc: 20 48 0e                     	andb	%cl, 14(%eax)
     1df: 10 43 0e                     	adcb	%al, 14(%ebx)
     1e2: 18 42 0e                     	sbbb	%al, 14(%edx)
     1e5: 1c 42                        	sbbb	$66, %al
     1e7: 0e                           	pushl	%cs
     1e8: 20 48 0e                     	andb	%cl, 14(%eax)
     1eb: 10 44 0e 04                  	adcb	%al, 4(%esi,%ecx)
     1ef: 00 20                        	addb	%ah, (%eax)
     1f1: 00 00                        	addb	%al, (%eax)
     1f3: 00 70 00                     	addb	%dh, (%eax)
     1f6: 00 00                        	addb	%al, (%eax)
     1f8: c0 05 00 00 17 00 00         	rolb	$0, 1507328
     1ff: 00 00                        	addb	%al, (%eax)
     201: 43                           	incl	%ebx
     202: 0e                           	pushl	%cs
     203: 10 43 0e                     	adcb	%al, 14(%ebx)
     206: 18 42 0e                     	sbbb	%al, 14(%edx)
     209: 1c 42                        	sbbb	$66, %al
     20b: 0e                           	pushl	%cs
     20c: 20 48 0e                     	andb	%cl, 14(%eax)
     20f: 10 44 0e 04                  	adcb	%al, 4(%esi,%ecx)
     213: 00 14 00                     	addb	%dl, (%eax,%eax)
     216: 00 00                        	addb	%al, (%eax)
     218: 94                           	xchgl	%esp, %eax
     219: 00 00                        	addb	%al, (%eax)
     21b: 00 e0                        	addb	%ah, %al
     21d: 05 00 00 50 00               	addl	$5242880, %eax          # imm = 0x500000
     222: 00 00                        	addb	%al, (%eax)
     224: 00 43 0e                     	addb	%al, 14(%ebx)
     227: 14 02                        	adcb	$2, %al
     229: 4c                           	decl	%esp
     22a: 0e                           	pushl	%cs
     22b: 04 44                        	addb	$68, %al
     22d: 00 00                        	addb	%al, (%eax)
     22f: 00 ac 00 00 00 30 06         	addb	%ch, 103809024(%eax,%eax)
     236: 00 00                        	addb	%al, (%eax)
     238: 89 00                        	movl	%eax, (%eax)
     23a: 00 00                        	addb	%al, (%eax)
     23c: 00 43 0e                     	addb	%al, 14(%ebx)
     23f: 20 43 0e                     	andb	%al, 14(%ebx)
     242: 24 45                        	andb	$69, %al
     244: 0e                           	pushl	%cs
     245: 28 42 0e                     	subb	%al, 14(%edx)
     248: 2c 45                        	subb	$69, %al
     24a: 0e                           	pushl	%cs
     24b: 30 48 0e                     	xorb	%cl, 14(%eax)
     24e: 20 64 0e 28                  	andb	%ah, 40(%esi,%ecx)
     252: 45                           	incl	%ebp
     253: 0e                           	pushl	%cs
     254: 2c 41                        	subb	$65, %al
     256: 0e                           	pushl	%cs
     257: 30 48 0e                     	xorb	%cl, 14(%eax)
     25a: 20 59 0e                     	andb	%bl, 14(%ecx)
     25d: 28 45 0e                     	subb	%al, 14(%ebp)
     260: 2c 42                        	subb	$66, %al
     262: 0e                           	pushl	%cs
     263: 30 48 0e                     	xorb	%cl, 14(%eax)
     266: 20 43 0e                     	andb	%al, 14(%ebx)
     269: 2c 45                        	subb	$69, %al
     26b: 0e                           	pushl	%cs
     26c: 30 48 0e                     	xorb	%cl, 14(%eax)
     26f: 20 44 0e 04                  	andb	%al, 4(%esi,%ecx)
     273: 00 14 00                     	addb	%dl, (%eax,%eax)
     276: 00 00                        	addb	%al, (%eax)
     278: 00 00                        	addb	%al, (%eax)
     27a: 00 00                        	addb	%al, (%eax)
     27c: 01 7a 52                     	addl	%edi, 82(%edx)
     27f: 00 01                        	addb	%al, (%ecx)
     281: 7c 08                        	jl	0x28b <.eh_frame+0x28b>
     283: 01 1b                        	addl	%ebx, (%ebx)
     285: 0c 04                        	orb	$4, %al
     287: 04 88                        	addb	$-120, %al
     289: 01 00                        	addl	%eax, (%eax)
     28b: 00 a0 00 00 00 1c            	addb	%ah, 469762048(%eax)
     291: 00 00                        	addb	%al, (%eax)
     293: 00 c0                        	addb	%al, %al
     295: 06                           	pushl	%es
     296: 00 00                        	addb	%al, (%eax)
     298: da 00                        	fiaddl	(%eax)
     29a: 00 00                        	addb	%al, (%eax)
     29c: 00 43 0e                     	addb	%al, 14(%ebx)
     29f: 20 43 0e                     	andb	%al, 14(%ebx)
     2a2: 2c 42                        	subb	$66, %al
     2a4: 0e                           	pushl	%cs
     2a5: 30 48 0e                     	xorb	%cl, 14(%eax)
     2a8: 20 47 0e                     	andb	%al, 14(%edi)
     2ab: 2c 45                        	subb	$69, %al
     2ad: 0e                           	pushl	%cs
     2ae: 30 48 0e                     	xorb	%cl, 14(%eax)
     2b1: 20 47 0e                     	andb	%al, 14(%edi)
     2b4: 28 42 0e                     	subb	%al, 14(%edx)
     2b7: 2c 42                        	subb	$66, %al
     2b9: 0e                           	pushl	%cs
     2ba: 30 48 0e                     	xorb	%cl, 14(%eax)
     2bd: 20 43 0e                     	andb	%al, 14(%ebx)
     2c0: 28 42 0e                     	subb	%al, 14(%edx)
     2c3: 2c 45                        	subb	$69, %al
     2c5: 0e                           	pushl	%cs
     2c6: 30 48 0e                     	xorb	%cl, 14(%eax)
     2c9: 20 43 0e                     	andb	%al, 14(%ebx)
     2cc: 28 42 0e                     	subb	%al, 14(%edx)
     2cf: 2c 42                        	subb	$66, %al
     2d1: 0e                           	pushl	%cs
     2d2: 30 48 0e                     	xorb	%cl, 14(%eax)
     2d5: 20 43 0e                     	andb	%al, 14(%ebx)
     2d8: 28 42 0e                     	subb	%al, 14(%edx)
     2db: 2c 45                        	subb	$69, %al
     2dd: 0e                           	pushl	%cs
     2de: 30 48 0e                     	xorb	%cl, 14(%eax)
     2e1: 20 43 0e                     	andb	%al, 14(%ebx)
     2e4: 28 42 0e                     	subb	%al, 14(%edx)
     2e7: 2c 42                        	subb	$66, %al
     2e9: 0e                           	pushl	%cs
     2ea: 30 48 0e                     	xorb	%cl, 14(%eax)
     2ed: 20 43 0e                     	andb	%al, 14(%ebx)
     2f0: 28 42 0e                     	subb	%al, 14(%edx)
     2f3: 2c 45                        	subb	$69, %al
     2f5: 0e                           	pushl	%cs
     2f6: 30 48 0e                     	xorb	%cl, 14(%eax)
     2f9: 20 43 0e                     	andb	%al, 14(%ebx)
     2fc: 28 42 0e                     	subb	%al, 14(%edx)
     2ff: 2c 42                        	subb	$66, %al
     301: 0e                           	pushl	%cs
     302: 30 48 0e                     	xorb	%cl, 14(%eax)
     305: 20 43 0e                     	andb	%al, 14(%ebx)
     308: 28 42 0e                     	subb	%al, 14(%edx)
     30b: 2c 45                        	subb	$69, %al
     30d: 0e                           	pushl	%cs
     30e: 30 48 0e                     	xorb	%cl, 14(%eax)
     311: 20 48 0e                     	andb	%cl, 14(%eax)
     314: 28 41 0e                     	subb	%al, 14(%ecx)
     317: 2c 42                        	subb	$66, %al
     319: 0e                           	pushl	%cs
     31a: 30 48 0e                     	xorb	%cl, 14(%eax)
     31d: 20 48 0e                     	andb	%cl, 14(%eax)
     320: 28 41 0e                     	subb	%al, 14(%ecx)
     323: 2c 45                        	subb	$69, %al
     325: 0e                           	pushl	%cs
     326: 30 48 0e                     	xorb	%cl, 14(%eax)
     329: 20 44 0e 04                  	andb	%al, 4(%esi,%ecx)
     32d: 00 00                        	addb	%al, (%eax)
     32f: 00 14 00                     	addb	%dl, (%eax,%eax)
     332: 00 00                        	addb	%al, (%eax)
     334: c0 00 00                     	rolb	$0, (%eax)
     337: 00 a0 07 00 00 0d            	addb	%ah, 218103815(%eax)
     33d: 00 00                        	addb	%al, (%eax)
     33f: 00 00                        	addb	%al, (%eax)
     341: 43                           	incl	%ebx
     342: 0e                           	pushl	%cs
     343: 10 49 0e                     	adcb	%cl, 14(%ecx)
     346: 04 00                        	addb	$0, %al
     348: 14 00                        	adcb	$0, %al
     34a: 00 00                        	addb	%al, (%eax)
     34c: 00 00                        	addb	%al, (%eax)
     34e: 00 00                        	addb	%al, (%eax)
     350: 01 7a 52                     	addl	%edi, 82(%edx)
     353: 00 01                        	addb	%al, (%ecx)
     355: 7c 08                        	jl	0x35f <.eh_frame+0x35f>
     357: 01 1b                        	addl	%ebx, (%ebx)
     359: 0c 04                        	orb	$4, %al
     35b: 04 88                        	addb	$-120, %al
     35d: 01 00                        	addl	%eax, (%eax)
     35f: 00 14 00                     	addb	%dl, (%eax,%eax)
     362: 00 00                        	addb	%al, (%eax)
     364: 1c 00                        	sbbb	$0, %al
     366: 00 00                        	addb	%al, (%eax)
     368: b0 07                        	movb	$7, %al
     36a: 00 00                        	addb	%al, (%eax)
     36c: 3e 00 00                     	addb	%al, %ds:(%eax)
     36f: 00 00                        	addb	%al, (%eax)
     371: 43                           	incl	%ebx
     372: 0e                           	pushl	%cs
     373: 14 7a                        	adcb	$122, %al
     375: 0e                           	pushl	%cs
     376: 04 00                        	addb	$0, %al
     378: 10 00                        	adcb	%al, (%eax)
     37a: 00 00                        	addb	%al, (%eax)
     37c: 34 00                        	xorb	$0, %al
     37e: 00 00                        	addb	%al, (%eax)
     380: f0                           	lock
     381: 07                           	popl	%es
     382: 00 00                        	addb	%al, (%eax)
     384: 12 00                        	adcb	(%eax), %al
     386: 00 00                        	addb	%al, (%eax)
     388: 00 00                        	addb	%al, (%eax)
     38a: 00 00                        	addb	%al, (%eax)
     38c: 4c                           	decl	%esp
     38d: 00 00                        	addb	%al, (%eax)
     38f: 00 48 00                     	addb	%cl, (%eax)
     392: 00 00                        	addb	%al, (%eax)
     394: 10 08                        	adcb	%cl, (%eax)
     396: 00 00                        	addb	%al, (%eax)
     398: ae                           	scasb	%es:(%edi), %al
     399: 00 00                        	addb	%al, (%eax)
     39b: 00 00                        	addb	%al, (%eax)
     39d: 43                           	incl	%ebx
     39e: 0e                           	pushl	%cs
     39f: 20 4c 0e 24                  	andb	%cl, 36(%esi,%ecx)
     3a3: 48                           	decl	%eax
     3a4: 0e                           	pushl	%cs
     3a5: 20 48 0e                     	andb	%cl, 14(%eax)
     3a8: 24 48                        	andb	$72, %al
     3aa: 0e                           	pushl	%cs
     3ab: 20 4e 0e                     	andb	%cl, 14(%esi)
     3ae: 24 42                        	andb	$66, %al
     3b0: 0e                           	pushl	%cs
     3b1: 28 42 0e                     	subb	%al, 14(%edx)
     3b4: 2c 44                        	subb	$68, %al
     3b6: 0e                           	pushl	%cs
     3b7: 30 48 0e                     	xorb	%cl, 14(%eax)
     3ba: 20 58 0e                     	andb	%bl, 14(%eax)
     3bd: 24 44                        	andb	$68, %al
     3bf: 0e                           	pushl	%cs
     3c0: 28 44 0e 2c                  	subb	%al, 44(%esi,%ecx)
     3c4: 44                           	incl	%esp
     3c5: 0e                           	pushl	%cs
     3c6: 30 48 0e                     	xorb	%cl, 14(%eax)
     3c9: 20 65 0e                     	andb	%ah, 14(%ebp)
     3cc: 24 44                        	andb	$68, %al
     3ce: 0e                           	pushl	%cs
     3cf: 28 42 0e                     	subb	%al, 14(%edx)
     3d2: 2c 41                        	subb	$65, %al
     3d4: 0e                           	pushl	%cs
     3d5: 30 48 0e                     	xorb	%cl, 14(%eax)
     3d8: 20 48 0e                     	andb	%cl, 14(%eax)
     3db: 04 10                        	addb	$16, %al
     3dd: 00 00                        	addb	%al, (%eax)
     3df: 00 98 00 00 00 c0            	addb	%bl, -1073741824(%eax)
     3e5: 08 00                        	orb	%al, (%eax)
     3e7: 00 21                        	addb	%ah, (%ecx)
     3e9: 00 00                        	addb	%al, (%eax)
     3eb: 00 00                        	addb	%al, (%eax)
     3ed: 00 00                        	addb	%al, (%eax)
     3ef: 00 14 00                     	addb	%dl, (%eax,%eax)
     3f2: 00 00                        	addb	%al, (%eax)
     3f4: ac                           	lodsb	(%esi), %al
     3f5: 00 00                        	addb	%al, (%eax)
     3f7: 00 f0                        	addb	%dh, %al
     3f9: 08 00                        	orb	%al, (%eax)
     3fb: 00 15 00 00 00 00            	addb	%dl, 0
     401: 43                           	incl	%ebx
     402: 0e                           	pushl	%cs
     403: 08 51 0e                     	orb	%dl, 14(%ecx)
     406: 04 00                        	addb	$0, %al
     408: 1c 00                        	sbbb	$0, %al
     40a: 00 00                        	addb	%al, (%eax)
     40c: c4 00                        	lesl	(%eax), %eax
     40e: 00 00                        	addb	%al, (%eax)
     410: 10 09                        	adcb	%cl, (%ecx)
     412: 00 00                        	addb	%al, (%eax)
     414: 96                           	xchgl	%esi, %eax
     415: 00 00                        	addb	%al, (%eax)
     417: 00 00                        	addb	%al, (%eax)
     419: 43                           	incl	%ebx
     41a: 0e                           	pushl	%cs
     41b: 14 75                        	adcb	$117, %al
     41d: 0e                           	pushl	%cs
     41e: 18 48 0e                     	sbbb	%cl, 14(%eax)
     421: 14 02                        	adcb	$2, %al
     423: 55                           	pushl	%ebp
     424: 0e                           	pushl	%cs
     425: 04 00                        	addb	$0, %al
     427: 00 28                        	addb	%ch, (%eax)
     429: 00 00                        	addb	%al, (%eax)
     42b: 00 e4                        	addb	%ah, %ah
     42d: 00 00                        	addb	%al, (%eax)
     42f: 00 b0 09 00 00 c6            	addb	%dh, -973078519(%eax)
     435: 00 00                        	addb	%al, (%eax)
     437: 00 00                        	addb	%al, (%eax)
     439: 41                           	incl	%ecx
     43a: 0e                           	pushl	%cs
     43b: 08 83 02 43 0e 18            	orb	%al, 403587842(%ebx)
     441: 44                           	incl	%esp
     442: 0e                           	pushl	%cs
     443: 1c 44                        	sbbb	$68, %al
     445: 0e                           	pushl	%cs
     446: 20 48 0e                     	andb	%cl, 14(%eax)
     449: 18 02                        	sbbb	%al, (%edx)
     44b: b0 0e                        	movb	$14, %al
     44d: 08 41 c3                     	orb	%al, -61(%ecx)
     450: 0e                           	pushl	%cs
     451: 04 00                        	addb	$0, %al
     453: 00 24 00                     	addb	%ah, (%eax,%eax)
     456: 00 00                        	addb	%al, (%eax)
     458: 10 01                        	adcb	%al, (%ecx)
     45a: 00 00                        	addb	%al, (%eax)
     45c: 80 0a 00                     	orb	$0, (%edx)
     45f: 00 32                        	addb	%dh, (%edx)
     461: 00 00                        	addb	%al, (%eax)
     463: 00 00                        	addb	%al, (%eax)
     465: 43                           	incl	%ebx
     466: 0e                           	pushl	%cs
     467: 14 44                        	adcb	$68, %al
     469: 0e                           	pushl	%cs
     46a: 18 48 0e                     	sbbb	%cl, 14(%eax)
     46d: 14 53                        	adcb	$83, %al
     46f: 0e                           	pushl	%cs
     470: 18 44 0e 1c                  	sbbb	%al, 28(%esi,%ecx)
     474: 48                           	decl	%eax
     475: 0e                           	pushl	%cs
     476: 14 43                        	adcb	$67, %al
     478: 0e                           	pushl	%cs
     479: 04 00                        	addb	$0, %al
     47b: 00 10                        	addb	%dl, (%eax)
     47d: 00 00                        	addb	%al, (%eax)
     47f: 00 38                        	addb	%bh, (%eax)
     481: 01 00                        	addl	%eax, (%eax)
     483: 00 c0                        	addb	%al, %al
     485: 0a 00                        	orb	(%eax), %al
     487: 00 06                        	addb	%al, (%esi)
     489: 00 00                        	addb	%al, (%eax)
     48b: 00 00                        	addb	%al, (%eax)
     48d: 00 00                        	addb	%al, (%eax)
     48f: 00 14 00                     	addb	%dl, (%eax,%eax)
     492: 00 00                        	addb	%al, (%eax)
     494: 00 00                        	addb	%al, (%eax)
     496: 00 00                        	addb	%al, (%eax)
     498: 01 7a 52                     	addl	%edi, 82(%edx)
     49b: 00 01                        	addb	%al, (%ecx)
     49d: 7c 08                        	jl	0x4a7 <.eh_frame+0x4a7>
     49f: 01 1b                        	addl	%ebx, (%ebx)
     4a1: 0c 04                        	orb	$4, %al
     4a3: 04 88                        	addb	$-120, %al
     4a5: 01 00                        	addl	%eax, (%eax)
     4a7: 00 34 00                     	addb	%dh, (%eax,%eax)
     4aa: 00 00                        	addb	%al, (%eax)
     4ac: 1c 00                        	sbbb	$0, %al
     4ae: 00 00                        	addb	%al, (%eax)
     4b0: d0 0a                        	rorb	(%edx)
     4b2: 00 00                        	addb	%al, (%eax)
     4b4: 6c                           	insb	%dx, %es:(%edi)
     4b5: 00 00                        	addb	%al, (%eax)
     4b7: 00 00                        	addb	%al, (%eax)
     4b9: 43                           	incl	%ebx
     4ba: 0e                           	pushl	%cs
     4bb: 20 61 0e                     	andb	%ah, 14(%ecx)
     4be: 24 44                        	andb	$68, %al
     4c0: 0e                           	pushl	%cs
     4c1: 28 45 0e                     	subb	%al, 14(%ebp)
     4c4: 2c 45                        	subb	$69, %al
     4c6: 0e                           	pushl	%cs
     4c7: 30 48 0e                     	xorb	%cl, 14(%eax)
     4ca: 20 4e 0e                     	andb	%cl, 14(%esi)
     4cd: 2c 45                        	subb	$69, %al
     4cf: 0e                           	pushl	%cs
     4d0: 30 48 0e                     	xorb	%cl, 14(%eax)
     4d3: 20 45 0e                     	andb	%al, 14(%ebp)
     4d6: 2c 45                        	subb	$69, %al
     4d8: 0e                           	pushl	%cs
     4d9: 30 48 0e                     	xorb	%cl, 14(%eax)
     4dc: 20 44 0e 04                  	andb	%al, 4(%esi,%ecx)
     4e0: 14 00                        	adcb	$0, %al
     4e2: 00 00                        	addb	%al, (%eax)
     4e4: 00 00                        	addb	%al, (%eax)
     4e6: 00 00                        	addb	%al, (%eax)
     4e8: 01 7a 52                     	addl	%edi, 82(%edx)
     4eb: 00 01                        	addb	%al, (%ecx)
     4ed: 7c 08                        	jl	0x4f7 <.eh_frame+0x4f7>
     4ef: 01 1b                        	addl	%ebx, (%ebx)
     4f1: 0c 04                        	orb	$4, %al
     4f3: 04 88                        	addb	$-120, %al
     4f5: 01 00                        	addl	%eax, (%eax)
     4f7: 00 14 00                     	addb	%dl, (%eax,%eax)
     4fa: 00 00                        	addb	%al, (%eax)
     4fc: 1c 00                        	sbbb	$0, %al
     4fe: 00 00                        	addb	%al, (%eax)
     500: 40                           	incl	%eax
     501: 0b 00                        	orl	(%eax), %eax
     503: 00 3c 00                     	addb	%bh, (%eax,%eax)
     506: 00 00                        	addb	%al, (%eax)
     508: 00 43 0e                     	addb	%al, 14(%ebx)
     50b: 14 78                        	adcb	$120, %al
     50d: 0e                           	pushl	%cs
     50e: 04 00                        	addb	$0, %al
     510: 14 00                        	adcb	$0, %al
     512: 00 00                        	addb	%al, (%eax)
     514: 00 00                        	addb	%al, (%eax)
     516: 00 00                        	addb	%al, (%eax)
     518: 01 7a 52                     	addl	%edi, 82(%edx)
     51b: 00 01                        	addb	%al, (%ecx)
     51d: 7c 08                        	jl	0x527 <.eh_frame+0x527>
     51f: 01 1b                        	addl	%ebx, (%ebx)
     521: 0c 04                        	orb	$4, %al
     523: 04 88                        	addb	$-120, %al
     525: 01 00                        	addl	%eax, (%eax)
     527: 00 14 00                     	addb	%dl, (%eax,%eax)
     52a: 00 00                        	addb	%al, (%eax)
     52c: 1c 00                        	sbbb	$0, %al
     52e: 00 00                        	addb	%al, (%eax)
     530: 80 0b 00                     	orb	$0, (%ebx)
     533: 00 2b                        	addb	%ch, (%ebx)
     535: 00 00                        	addb	%al, (%eax)
     537: 00 00                        	addb	%al, (%eax)
     539: 43                           	incl	%ebx
     53a: 0e                           	pushl	%cs
     53b: 14 67                        	adcb	$103, %al
     53d: 0e                           	pushl	%cs
     53e: 04 00                        	addb	$0, %al
     540: 14 00                        	adcb	$0, %al
     542: 00 00                        	addb	%al, (%eax)
     544: 00 00                        	addb	%al, (%eax)
     546: 00 00                        	addb	%al, (%eax)
     548: 01 7a 52                     	addl	%edi, 82(%edx)
     54b: 00 01                        	addb	%al, (%ecx)
     54d: 7c 08                        	jl	0x557 <.eh_frame+0x557>
     54f: 01 1b                        	addl	%ebx, (%ebx)
     551: 0c 04                        	orb	$4, %al
     553: 04 88                        	addb	$-120, %al
     555: 01 00                        	addl	%eax, (%eax)
     557: 00 1c 00                     	addb	%bl, (%eax,%eax)
     55a: 00 00                        	addb	%al, (%eax)
     55c: 1c 00                        	sbbb	$0, %al
     55e: 00 00                        	addb	%al, (%eax)
     560: b0 0b                        	movb	$11, %al
     562: 00 00                        	addb	%al, (%eax)
     564: 2c 00                        	subb	$0, %al
     566: 00 00                        	addb	%al, (%eax)
     568: 00 43 0e                     	addb	%al, 14(%ebx)
     56b: 10 4d 0e                     	adcb	%cl, 14(%ebp)
     56e: 1c 44                        	sbbb	$68, %al
     570: 0e                           	pushl	%cs
     571: 20 48 0e                     	andb	%cl, 14(%eax)
     574: 10 4f 0e                     	adcb	%cl, 14(%edi)
     577: 04 24                        	addb	$36, %al
     579: 00 00                        	addb	%al, (%eax)
     57b: 00 3c 00                     	addb	%bh, (%eax,%eax)
     57e: 00 00                        	addb	%al, (%eax)
     580: e0 0b                        	loopne	0x58d <.eh_frame+0x58d>
     582: 00 00                        	addb	%al, (%eax)
     584: 66 00 00                     	addb	%al, (%eax)
     587: 00 00                        	addb	%al, (%eax)
     589: 43                           	incl	%ebx
     58a: 0e                           	pushl	%cs
     58b: 20 59 0e                     	andb	%bl, 14(%ecx)
     58e: 24 41                        	andb	$65, %al
     590: 0e                           	pushl	%cs
     591: 28 42 0e                     	subb	%al, 14(%edx)
     594: 2c 44                        	subb	$68, %al
     596: 0e                           	pushl	%cs
     597: 30 48 0e                     	xorb	%cl, 14(%eax)
     59a: 20 7a 0e                     	andb	%bh, 14(%edx)
     59d: 04 00                        	addb	$0, %al
     59f: 00 34 00                     	addb	%dh, (%eax,%eax)
     5a2: 00 00                        	addb	%al, (%eax)
     5a4: 64 00 00                     	addb	%al, %fs:(%eax)
     5a7: 00 50 0c                     	addb	%dl, 12(%eax)
     5aa: 00 00                        	addb	%al, (%eax)
     5ac: c3                           	retl
     5ad: 00 00                        	addb	%al, (%eax)
     5af: 00 00                        	addb	%al, (%eax)
     5b1: 41                           	incl	%ecx
     5b2: 0e                           	pushl	%cs
     5b3: 08 86 02 41 0e 0c            	orb	%al, 202260738(%esi)
     5b9: 83 03 43                     	addl	$67, (%ebx)
     5bc: 0e                           	pushl	%cs
     5bd: 20 02                        	andb	%al, (%edx)
     5bf: 73 0e                        	jae	0x5cf <.eh_frame+0x5cf>
     5c1: 28 41 0e                     	subb	%al, 14(%ecx)
     5c4: 2c 41                        	subb	$65, %al
     5c6: 0e                           	pushl	%cs
     5c7: 30 48 0e                     	xorb	%cl, 14(%eax)
     5ca: 20 7e 0e                     	andb	%bh, 14(%esi)
     5cd: 0c 41                        	orb	$65, %al
     5cf: c3                           	retl
     5d0: 0e                           	pushl	%cs
     5d1: 08 41 c6                     	orb	%al, -58(%ecx)
     5d4: 0e                           	pushl	%cs
     5d5: 04 00                        	addb	$0, %al
     5d7: 00 34 00                     	addb	%dh, (%eax,%eax)
     5da: 00 00                        	addb	%al, (%eax)
     5dc: 9c                           	pushfl
     5dd: 00 00                        	addb	%al, (%eax)
     5df: 00 20                        	addb	%ah, (%eax)
     5e1: 0d 00 00 64 00               	orl	$6553600, %eax          # imm = 0x640000
     5e6: 00 00                        	addb	%al, (%eax)
     5e8: 00 41 0e                     	addb	%al, 14(%ecx)
     5eb: 08 83 02 43 0e 20            	orb	%al, 537805570(%ebx)
     5f1: 71 0e                        	jno	0x601 <.eh_frame+0x601>
     5f3: 24 41                        	andb	$65, %al
     5f5: 0e                           	pushl	%cs
     5f6: 28 41 0e                     	subb	%al, 14(%ecx)
     5f9: 2c 44                        	subb	$68, %al
     5fb: 0e                           	pushl	%cs
     5fc: 30 48 0e                     	xorb	%cl, 14(%eax)
     5ff: 20 48 0e                     	andb	%cl, 14(%eax)
     602: 2c 44                        	subb	$68, %al
     604: 0e                           	pushl	%cs
     605: 30 48 0e                     	xorb	%cl, 14(%eax)
     608: 20 4b 0e                     	andb	%cl, 14(%ebx)
     60b: 08 41 c3                     	orb	%al, -61(%ecx)
     60e: 0e                           	pushl	%cs
     60f: 04 14                        	addb	$20, %al
     611: 00 00                        	addb	%al, (%eax)
     613: 00 d4                        	addb	%dl, %ah
     615: 00 00                        	addb	%al, (%eax)
     617: 00 90 0d 00 00 19            	addb	%dl, 419430413(%eax)
     61d: 00 00                        	addb	%al, (%eax)
     61f: 00 00                        	addb	%al, (%eax)
     621: 43                           	incl	%ebx
     622: 0e                           	pushl	%cs
     623: 08 55 0e                     	orb	%dl, 14(%ebp)
     626: 04 00                        	addb	$0, %al
     628: 14 00                        	adcb	$0, %al
     62a: 00 00                        	addb	%al, (%eax)
     62c: ec                           	inb	%dx, %al
     62d: 00 00                        	addb	%al, (%eax)
     62f: 00 b0 0d 00 00 26            	addb	%dh, 637534221(%eax)
     635: 00 00                        	addb	%al, (%eax)
     637: 00 00                        	addb	%al, (%eax)
     639: 43                           	incl	%ebx
     63a: 0e                           	pushl	%cs
     63b: 0c 62                        	orb	$98, %al
     63d: 0e                           	pushl	%cs
     63e: 04 00                        	addb	$0, %al
     640: 1c 00                        	sbbb	$0, %al
     642: 00 00                        	addb	%al, (%eax)
     644: 04 01                        	addb	$1, %al
     646: 00 00                        	addb	%al, (%eax)
     648: e0 0d                        	loopne	0x657 <.eh_frame+0x657>
     64a: 00 00                        	addb	%al, (%eax)
     64c: 18 00                        	sbbb	%al, (%eax)
     64e: 00 00                        	addb	%al, (%eax)
     650: 00 43 0e                     	addb	%al, 14(%ebx)
     653: 10 43 0e                     	adcb	%al, 14(%ebx)
     656: 1c 45                        	sbbb	$69, %al
     658: 0e                           	pushl	%cs
     659: 20 48 0e                     	andb	%cl, 14(%eax)
     65c: 10 44 0e 04                  	adcb	%al, 4(%esi,%ecx)
     660: 20 00                        	andb	%al, (%eax)
     662: 00 00                        	addb	%al, (%eax)
     664: 24 01                        	andb	$1, %al
     666: 00 00                        	addb	%al, (%eax)
     668: 00 0e                        	addb	%cl, (%esi)
     66a: 00 00                        	addb	%al, (%eax)
     66c: 1c 00                        	sbbb	$0, %al
     66e: 00 00                        	addb	%al, (%eax)
     670: 00 43 0e                     	addb	%al, 14(%ebx)
     673: 10 43 0e                     	adcb	%al, 14(%ebx)
     676: 18 44 0e 1c                  	sbbb	%al, 28(%esi,%ecx)
     67a: 45                           	incl	%ebp
     67b: 0e                           	pushl	%cs
     67c: 20 48 0e                     	andb	%cl, 14(%eax)
     67f: 10 44 0e 04                  	adcb	%al, 4(%esi,%ecx)
     683: 00 24 00                     	addb	%ah, (%eax,%eax)
     686: 00 00                        	addb	%al, (%eax)
     688: 48                           	decl	%eax
     689: 01 00                        	addl	%eax, (%eax)
     68b: 00 20                        	addb	%ah, (%eax)
     68d: 0e                           	pushl	%cs
     68e: 00 00                        	addb	%al, (%eax)
     690: 34 00                        	xorb	$0, %al
     692: 00 00                        	addb	%al, (%eax)
     694: 00 43 0e                     	addb	%al, 14(%ebx)
     697: 20 52 0e                     	andb	%dl, 14(%edx)
     69a: 2c 45                        	subb	$69, %al
     69c: 0e                           	pushl	%cs
     69d: 30 48 0e                     	xorb	%cl, 14(%eax)
     6a0: 20 43 0e                     	andb	%al, 14(%ebx)
     6a3: 2c 45                        	subb	$69, %al
     6a5: 0e                           	pushl	%cs
     6a6: 30 48 0e                     	xorb	%cl, 14(%eax)
     6a9: 20 00                        	andb	%al, (%eax)
     6ab: 00 14 00                     	addb	%dl, (%eax,%eax)
     6ae: 00 00                        	addb	%al, (%eax)
     6b0: 00 00                        	addb	%al, (%eax)
     6b2: 00 00                        	addb	%al, (%eax)
     6b4: 01 7a 52                     	addl	%edi, 82(%edx)
     6b7: 00 01                        	addb	%al, (%ecx)
     6b9: 7c 08                        	jl	0x6c3 <.eh_frame+0x6c3>
     6bb: 01 1b                        	addl	%ebx, (%ebx)
     6bd: 0c 04                        	orb	$4, %al
     6bf: 04 88                        	addb	$-120, %al
     6c1: 01 00                        	addl	%eax, (%eax)
     6c3: 00 14 00                     	addb	%dl, (%eax,%eax)
     6c6: 00 00                        	addb	%al, (%eax)
     6c8: 1c 00                        	sbbb	$0, %al
     6ca: 00 00                        	addb	%al, (%eax)
     6cc: 60                           	pushal
     6cd: 0e                           	pushl	%cs
     6ce: 00 00                        	addb	%al, (%eax)
     6d0: f8                           	clc
     6d1: 00 00                        	addb	%al, (%eax)
     6d3: 00 00                        	addb	%al, (%eax)
     6d5: 43                           	incl	%ebx
     6d6: 0e                           	pushl	%cs
     6d7: 14 02                        	adcb	$2, %al
     6d9: f4                           	hlt
     6da: 0e                           	pushl	%cs
     6db: 04 10                        	addb	$16, %al
     6dd: 00 00                        	addb	%al, (%eax)
     6df: 00 34 00                     	addb	%dh, (%eax,%eax)
     6e2: 00 00                        	addb	%al, (%eax)
     6e4: 60                           	pushal
     6e5: 0f 00 00                     	sldtw	(%eax)
     6e8: 03 00                        	addl	(%eax), %eax
     6ea: 00 00                        	addb	%al, (%eax)
     6ec: 00 00                        	addb	%al, (%eax)
     6ee: 00 00                        	addb	%al, (%eax)
     6f0: 34 00                        	xorb	$0, %al
     6f2: 00 00                        	addb	%al, (%eax)
     6f4: 48                           	decl	%eax
     6f5: 00 00                        	addb	%al, (%eax)
     6f7: 00 70 0f                     	addb	%dh, 15(%eax)
     6fa: 00 00                        	addb	%al, (%eax)
     6fc: 4a                           	decl	%edx
     6fd: 00 00                        	addb	%al, (%eax)
     6ff: 00 00                        	addb	%al, (%eax)
     701: 46                           	incl	%esi
     702: 0e                           	pushl	%cs
     703: 90                           	nop
     704: 01 5b 0e                     	addl	%ebx, 14(%ebx)
     707: 94                           	xchgl	%esp, %eax
     708: 01 42 0e                     	addl	%eax, 14(%edx)
     70b: 98                           	cwtl
     70c: 01 45 0e                     	addl	%eax, 14(%ebp)
     70f: 9c                           	pushfl
     710: 01 41 0e                     	addl	%eax, 14(%ecx)
     713: a0 01 48 0e 90               	movb	2416855041, %al
     718: 01 43 0e                     	addl	%eax, 14(%ebx)
     71b: 9c                           	pushfl
     71c: 01 41 0e                     	addl	%eax, 14(%ecx)
     71f: a0 01 48 0e 90               	movb	2416855041, %al
     724: 01 4c 0e 04                  	addl	%ecx, 4(%esi,%ecx)

Disassembly of section .rel.eh_frame:

00000000 <.rel.eh_frame>:
       0: 20 00                        	andb	%al, (%eax)
       2: 00 00                        	addb	%al, (%eax)
       4: 02 01                        	addb	(%ecx), %al
       6: 00 00                        	addb	%al, (%eax)
       8: 4c                           	decl	%esp
       9: 00 00                        	addb	%al, (%eax)
       b: 00 02                        	addb	%al, (%edx)
       d: 01 00                        	addl	%eax, (%eax)
       f: 00 74 00 00                  	addb	%dh, (%eax,%eax)
      13: 00 02                        	addb	%al, (%edx)
      15: 01 00                        	addl	%eax, (%eax)
      17: 00 b4 00 00 00 02 01         	addb	%dh, 16908288(%eax,%eax)
      1e: 00 00                        	addb	%al, (%eax)
      20: cc                           	int3
      21: 00 00                        	addb	%al, (%eax)
      23: 00 02                        	addb	%al, (%edx)
      25: 01 00                        	addl	%eax, (%eax)
      27: 00 14 01                     	addb	%dl, (%ecx,%eax)
      2a: 00 00                        	addb	%al, (%eax)
      2c: 02 01                        	addb	(%ecx), %al
      2e: 00 00                        	addb	%al, (%eax)
      30: 5c                           	popl	%esp
      31: 01 00                        	addl	%eax, (%eax)
      33: 00 02                        	addb	%al, (%edx)
      35: 01 00                        	addl	%eax, (%eax)
      37: 00 74 01 00                  	addb	%dh, (%ecx,%eax)
      3b: 00 02                        	addb	%al, (%edx)
      3d: 01 00                        	addl	%eax, (%eax)
      3f: 00 a4 01 00 00 02 01         	addb	%ah, 16908288(%ecx,%eax)
      46: 00 00                        	addb	%al, (%eax)
      48: c8 01 00 00                  	enter	$1, $0
      4c: 02 01                        	addb	(%ecx), %al
      4e: 00 00                        	addb	%al, (%eax)
      50: f8                           	clc
      51: 01 00                        	addl	%eax, (%eax)
      53: 00 02                        	addb	%al, (%edx)
      55: 01 00                        	addl	%eax, (%eax)
      57: 00 1c 02                     	addb	%bl, (%edx,%eax)
      5a: 00 00                        	addb	%al, (%eax)
      5c: 02 01                        	addb	(%ecx), %al
      5e: 00 00                        	addb	%al, (%eax)
      60: 34 02                        	xorb	$2, %al
      62: 00 00                        	addb	%al, (%eax)
      64: 02 01                        	addb	(%ecx), %al
      66: 00 00                        	addb	%al, (%eax)
      68: 94                           	xchgl	%esp, %eax
      69: 02 00                        	addb	(%eax), %al
      6b: 00 02                        	addb	%al, (%edx)
      6d: 01 00                        	addl	%eax, (%eax)
      6f: 00 38                        	addb	%bh, (%eax)
      71: 03 00                        	addl	(%eax), %eax
      73: 00 02                        	addb	%al, (%edx)
      75: 01 00                        	addl	%eax, (%eax)
      77: 00 68 03                     	addb	%ch, 3(%eax)
      7a: 00 00                        	addb	%al, (%eax)
      7c: 02 01                        	addb	(%ecx), %al
      7e: 00 00                        	addb	%al, (%eax)
      80: 80 03 00                     	addb	$0, (%ebx)
      83: 00 02                        	addb	%al, (%edx)
      85: 01 00                        	addl	%eax, (%eax)
      87: 00 94 03 00 00 02 01         	addb	%dl, 16908288(%ebx,%eax)
      8e: 00 00                        	addb	%al, (%eax)
      90: e4 03                        	inb	$3, %al
      92: 00 00                        	addb	%al, (%eax)
      94: 02 01                        	addb	(%ecx), %al
      96: 00 00                        	addb	%al, (%eax)
      98: f8                           	clc
      99: 03 00                        	addl	(%eax), %eax
      9b: 00 02                        	addb	%al, (%edx)
      9d: 01 00                        	addl	%eax, (%eax)
      9f: 00 10                        	addb	%dl, (%eax)
      a1: 04 00                        	addb	$0, %al
      a3: 00 02                        	addb	%al, (%edx)
      a5: 01 00                        	addl	%eax, (%eax)
      a7: 00 30                        	addb	%dh, (%eax)
      a9: 04 00                        	addb	$0, %al
      ab: 00 02                        	addb	%al, (%edx)
      ad: 01 00                        	addl	%eax, (%eax)
      af: 00 5c 04 00                  	addb	%bl, (%esp,%eax)
      b3: 00 02                        	addb	%al, (%edx)
      b5: 01 00                        	addl	%eax, (%eax)
      b7: 00 84 04 00 00 02 01         	addb	%al, 16908288(%esp,%eax)
      be: 00 00                        	addb	%al, (%eax)
      c0: b0 04                        	movb	$4, %al
      c2: 00 00                        	addb	%al, (%eax)
      c4: 02 01                        	addb	(%ecx), %al
      c6: 00 00                        	addb	%al, (%eax)
      c8: 00 05 00 00 02 01            	addb	%al, 16908288
      ce: 00 00                        	addb	%al, (%eax)
      d0: 30 05 00 00 02 01            	xorb	%al, 16908288
      d6: 00 00                        	addb	%al, (%eax)
      d8: 60                           	pushal
      d9: 05 00 00 02 01               	addl	$16908288, %eax         # imm = 0x1020000
      de: 00 00                        	addb	%al, (%eax)
      e0: 80 05 00 00 02 01 00         	addb	$0, 16908288
      e7: 00 a8 05 00 00 02            	addb	%ch, 33554437(%eax)
      ed: 01 00                        	addl	%eax, (%eax)
      ef: 00 e0                        	addb	%ah, %al
      f1: 05 00 00 02 01               	addl	$16908288, %eax         # imm = 0x1020000
      f6: 00 00                        	addb	%al, (%eax)
      f8: 18 06                        	sbbb	%al, (%esi)
      fa: 00 00                        	addb	%al, (%eax)
      fc: 02 01                        	addb	(%ecx), %al
      fe: 00 00                        	addb	%al, (%eax)
     100: 30 06                        	xorb	%al, (%esi)
     102: 00 00                        	addb	%al, (%eax)
     104: 02 01                        	addb	(%ecx), %al
     106: 00 00                        	addb	%al, (%eax)
     108: 48                           	decl	%eax
     109: 06                           	pushl	%es
     10a: 00 00                        	addb	%al, (%eax)
     10c: 02 01                        	addb	(%ecx), %al
     10e: 00 00                        	addb	%al, (%eax)
     110: 68 06 00 00 02               	pushl	$33554438               # imm = 0x2000006
     115: 01 00                        	addl	%eax, (%eax)
     117: 00 8c 06 00 00 02 01         	addb	%cl, 16908288(%esi,%eax)
     11e: 00 00                        	addb	%al, (%eax)
     120: cc                           	int3
     121: 06                           	pushl	%es
     122: 00 00                        	addb	%al, (%eax)
     124: 02 01                        	addb	(%ecx), %al
     126: 00 00                        	addb	%al, (%eax)
     128: e4 06                        	inb	$6, %al
     12a: 00 00                        	addb	%al, (%eax)
     12c: 02 01                        	addb	(%ecx), %al
     12e: 00 00                        	addb	%al, (%eax)
     130: f8                           	clc
     131: 06                           	pushl	%es
     132: 00 00                        	addb	%al, (%eax)
     134: 02 01                        	addb	(%ecx), %al
     136: 00 00                        	addb	%al, (%eax)

Disassembly of section .data:

00000000 <DefaultTTY>:
       0: 0f 00 00                     	sldtw	(%eax)

00000003 <DefaultTTY>:
       3: 0f 00 00                     	sldtw	(%eax)

00000006 <DefaultTTY>:
       6: 0f 00 00                     	sldtw	(%eax)

00000009 <DefaultTTY>:
       9: 0f 00 00                     	sldtw	(%eax)

0000000c <DefaultTTY>:
       c: 0f 00 00                     	sldtw	(%eax)

Disassembly of section .bss:

00000000 <idt_descriptors>:
...

00000800 <idtr_descriptor>:
...

00000808 <kernel_heap>:
...

00000810 <kernel_heap_table>:
...

00000818 <VIDEO_MEMORY>:
...

Disassembly of section .comment:

00000000 <.comment>:
       0: 00 47 43                     	addb	%al, 67(%edi)
       3: 43                           	incl	%ebx
       4: 3a 20                        	cmpb	(%eax), %ah
       6: 28 47 4e                     	subb	%al, 78(%edi)
       9: 55                           	pushl	%ebp
       a: 29 20                        	subl	%esp, (%eax)
       c: 31 30                        	xorl	%esi, (%eax)
       e: 2e 33 2e                     	xorl	%cs:(%esi), %ebp
      11: 30 00                        	xorb	%al, (%eax)
      13: 00 47 43                     	addb	%al, 67(%edi)
      16: 43                           	incl	%ebx
      17: 3a 20                        	cmpb	(%eax), %ah
      19: 28 47 4e                     	subb	%al, 78(%edi)
      1c: 55                           	pushl	%ebp
      1d: 29 20                        	subl	%esp, (%eax)
      1f: 31 30                        	xorl	%esi, (%eax)
      21: 2e 33 2e                     	xorl	%cs:(%esi), %ebp
      24: 30 00                        	xorb	%al, (%eax)
      26: 00 47 43                     	addb	%al, 67(%edi)
      29: 43                           	incl	%ebx
      2a: 3a 20                        	cmpb	(%eax), %ah
      2c: 28 47 4e                     	subb	%al, 78(%edi)
      2f: 55                           	pushl	%ebp
      30: 29 20                        	subl	%esp, (%eax)
      32: 31 30                        	xorl	%esi, (%eax)
      34: 2e 33 2e                     	xorl	%cs:(%esi), %ebp
      37: 30 00                        	xorb	%al, (%eax)
      39: 00 47 43                     	addb	%al, 67(%edi)
      3c: 43                           	incl	%ebx
      3d: 3a 20                        	cmpb	(%eax), %ah
      3f: 28 47 4e                     	subb	%al, 78(%edi)
      42: 55                           	pushl	%ebp
      43: 29 20                        	subl	%esp, (%eax)
      45: 31 30                        	xorl	%esi, (%eax)
      47: 2e 33 2e                     	xorl	%cs:(%esi), %ebp
      4a: 30 00                        	xorb	%al, (%eax)
      4c: 00 47 43                     	addb	%al, 67(%edi)
      4f: 43                           	incl	%ebx
      50: 3a 20                        	cmpb	(%eax), %ah
      52: 28 47 4e                     	subb	%al, 78(%edi)
      55: 55                           	pushl	%ebp
      56: 29 20                        	subl	%esp, (%eax)
      58: 31 30                        	xorl	%esi, (%eax)
      5a: 2e 33 2e                     	xorl	%cs:(%esi), %ebp
      5d: 30 00                        	xorb	%al, (%eax)
      5f: 00 47 43                     	addb	%al, 67(%edi)
      62: 43                           	incl	%ebx
      63: 3a 20                        	cmpb	(%eax), %ah
      65: 28 47 4e                     	subb	%al, 78(%edi)
      68: 55                           	pushl	%ebp
      69: 29 20                        	subl	%esp, (%eax)
      6b: 31 30                        	xorl	%esi, (%eax)
      6d: 2e 33 2e                     	xorl	%cs:(%esi), %ebp
      70: 30 00                        	xorb	%al, (%eax)
      72: 00 47 43                     	addb	%al, 67(%edi)
      75: 43                           	incl	%ebx
      76: 3a 20                        	cmpb	(%eax), %ah
      78: 28 47 4e                     	subb	%al, 78(%edi)
      7b: 55                           	pushl	%ebp
      7c: 29 20                        	subl	%esp, (%eax)
      7e: 31 30                        	xorl	%esi, (%eax)
      80: 2e 33 2e                     	xorl	%cs:(%esi), %ebp
      83: 30 00                        	xorb	%al, (%eax)
      85: 00 47 43                     	addb	%al, 67(%edi)
      88: 43                           	incl	%ebx
      89: 3a 20                        	cmpb	(%eax), %ah
      8b: 28 47 4e                     	subb	%al, 78(%edi)
      8e: 55                           	pushl	%ebp
      8f: 29 20                        	subl	%esp, (%eax)
      91: 31 30                        	xorl	%esi, (%eax)
      93: 2e 33 2e                     	xorl	%cs:(%esi), %ebp
      96: 30 00                        	xorb	%al, (%eax)
      98: 00 47 43                     	addb	%al, 67(%edi)
      9b: 43                           	incl	%ebx
      9c: 3a 20                        	cmpb	(%eax), %ah
      9e: 28 47 4e                     	subb	%al, 78(%edi)
      a1: 55                           	pushl	%ebp
      a2: 29 20                        	subl	%esp, (%eax)
      a4: 31 30                        	xorl	%esi, (%eax)
      a6: 2e 33 2e                     	xorl	%cs:(%esi), %ebp
      a9: 30 00                        	xorb	%al, (%eax)
      ab: 00 47 43                     	addb	%al, 67(%edi)
      ae: 43                           	incl	%ebx
      af: 3a 20                        	cmpb	(%eax), %ah
      b1: 28 47 4e                     	subb	%al, 78(%edi)
      b4: 55                           	pushl	%ebp
      b5: 29 20                        	subl	%esp, (%eax)
      b7: 31 30                        	xorl	%esi, (%eax)
      b9: 2e 33 2e                     	xorl	%cs:(%esi), %ebp
      bc: 30 00                        	xorb	%al, (%eax)
      be: 00 47 43                     	addb	%al, 67(%edi)
      c1: 43                           	incl	%ebx
      c2: 3a 20                        	cmpb	(%eax), %ah
      c4: 28 47 4e                     	subb	%al, 78(%edi)
      c7: 55                           	pushl	%ebp
      c8: 29 20                        	subl	%esp, (%eax)
      ca: 31 30                        	xorl	%esi, (%eax)
      cc: 2e 33 2e                     	xorl	%cs:(%esi), %ebp
      cf: 30 00                        	xorb	%al, (%eax)
      d1: 00 47 43                     	addb	%al, 67(%edi)
      d4: 43                           	incl	%ebx
      d5: 3a 20                        	cmpb	(%eax), %ah
      d7: 28 47 4e                     	subb	%al, 78(%edi)
      da: 55                           	pushl	%ebp
      db: 29 20                        	subl	%esp, (%eax)
      dd: 31 30                        	xorl	%esi, (%eax)
      df: 2e 33 2e                     	xorl	%cs:(%esi), %ebp
      e2: 30 00                        	xorb	%al, (%eax)

Disassembly of section .debug_aranges:

00000000 <.debug_aranges>:
       0: 1c 00                        	sbbb	$0, %al
       2: 00 00                        	addb	%al, (%eax)
       4: 02 00                        	addb	(%eax), %al
       6: 00 00                        	addb	%al, (%eax)
       8: 00 00                        	addb	%al, (%eax)
       a: 04 00                        	addb	$0, %al
		...
      14: 00 02                        	addb	%al, (%edx)
		...
      1e: 00 00                        	addb	%al, (%eax)
      20: 1c 00                        	sbbb	$0, %al
      22: 00 00                        	addb	%al, (%eax)
      24: 02 00                        	addb	(%eax), %al
      26: 47                           	incl	%edi
      27: 00 00                        	addb	%al, (%eax)
      29: 00 04 00                     	addb	%al, (%eax,%eax)
      2c: 00 00                        	addb	%al, (%eax)
      2e: 00 00                        	addb	%al, (%eax)
      30: 00 02                        	addb	%al, (%edx)
      32: 00 00                        	addb	%al, (%eax)
      34: 02 00                        	addb	(%eax), %al
		...
      3e: 00 00                        	addb	%al, (%eax)
      40: 1c 00                        	sbbb	$0, %al
      42: 00 00                        	addb	%al, (%eax)
      44: 02 00                        	addb	(%eax), %al
      46: 8f 01                        	popl	(%ecx)
      48: 00 00                        	addb	%al, (%eax)
      4a: 04 00                        	addb	$0, %al
      4c: 00 00                        	addb	%al, (%eax)
      4e: 00 00                        	addb	%al, (%eax)
      50: 10 02                        	adcb	%al, (%edx)
      52: 00 00                        	addb	%al, (%eax)
      54: fd                           	std
		...
      5d: 00 00                        	addb	%al, (%eax)
      5f: 00 1c 00                     	addb	%bl, (%eax,%eax)
      62: 00 00                        	addb	%al, (%eax)
      64: 02 00                        	addb	(%eax), %al
      66: 13 04 00                     	adcl	(%eax,%eax), %eax
      69: 00 04 00                     	addb	%al, (%eax,%eax)
      6c: 00 00                        	addb	%al, (%eax)
      6e: 00 00                        	addb	%al, (%eax)
      70: 10 03                        	adcb	%al, (%ebx)
      72: 00 00                        	addb	%al, (%eax)
      74: 5f                           	popl	%edi
      75: 02 00                        	addb	(%eax), %al
		...
      7f: 00 1c 00                     	addb	%bl, (%eax,%eax)
      82: 00 00                        	addb	%al, (%eax)
      84: 02 00                        	addb	(%eax), %al
      86: eb 06                        	jmp	0x8e <.debug_aranges+0x8e>
      88: 00 00                        	addb	%al, (%eax)
      8a: 04 00                        	addb	$0, %al
      8c: 00 00                        	addb	%al, (%eax)
      8e: 00 00                        	addb	%al, (%eax)
      90: 70 05                        	jo	0x97 <.debug_aranges+0x97>
      92: 00 00                        	addb	%al, (%eax)
      94: 49                           	decl	%ecx
      95: 01 00                        	addl	%eax, (%eax)
		...
      9f: 00 1c 00                     	addb	%bl, (%eax,%eax)
      a2: 00 00                        	addb	%al, (%eax)
      a4: 02 00                        	addb	(%eax), %al
      a6: 6a 09                        	pushl	$9
      a8: 00 00                        	addb	%al, (%eax)
      aa: 04 00                        	addb	$0, %al
      ac: 00 00                        	addb	%al, (%eax)
      ae: 00 00                        	addb	%al, (%eax)
      b0: c0 06 00                     	rolb	$0, (%esi)
      b3: 00 ed                        	addb	%ch, %ch
		...
      bd: 00 00                        	addb	%al, (%eax)
      bf: 00 1c 00                     	addb	%bl, (%eax,%eax)
      c2: 00 00                        	addb	%al, (%eax)
      c4: 02 00                        	addb	(%eax), %al
      c6: fb                           	sti
      c7: 09 00                        	orl	%eax, (%eax)
      c9: 00 04 00                     	addb	%al, (%eax,%eax)
      cc: 00 00                        	addb	%al, (%eax)
      ce: 00 00                        	addb	%al, (%eax)
      d0: b0 07                        	movb	$7, %al
      d2: 00 00                        	addb	%al, (%eax)
      d4: 16                           	pushl	%ss
      d5: 03 00                        	addl	(%eax), %eax
		...
      df: 00 1c 00                     	addb	%bl, (%eax,%eax)
      e2: 00 00                        	addb	%al, (%eax)
      e4: 02 00                        	addb	(%eax), %al
      e6: 5f                           	popl	%edi
      e7: 0e                           	pushl	%cs
      e8: 00 00                        	addb	%al, (%eax)
      ea: 04 00                        	addb	$0, %al
      ec: 00 00                        	addb	%al, (%eax)
      ee: 00 00                        	addb	%al, (%eax)
      f0: d0 0a                        	rorb	(%edx)
      f2: 00 00                        	addb	%al, (%eax)
      f4: 6c                           	insb	%dx, %es:(%edi)
		...
      fd: 00 00                        	addb	%al, (%eax)
      ff: 00 1c 00                     	addb	%bl, (%eax,%eax)
     102: 00 00                        	addb	%al, (%eax)
     104: 02 00                        	addb	(%eax), %al
     106: 3a 10                        	cmpb	(%eax), %dl
     108: 00 00                        	addb	%al, (%eax)
     10a: 04 00                        	addb	$0, %al
     10c: 00 00                        	addb	%al, (%eax)
     10e: 00 00                        	addb	%al, (%eax)
     110: 40                           	incl	%eax
     111: 0b 00                        	orl	(%eax), %eax
     113: 00 3c 00                     	addb	%bh, (%eax,%eax)
		...
     11e: 00 00                        	addb	%al, (%eax)
     120: 1c 00                        	sbbb	$0, %al
     122: 00 00                        	addb	%al, (%eax)
     124: 02 00                        	addb	(%eax), %al
     126: 0a 11                        	orb	(%ecx), %dl
     128: 00 00                        	addb	%al, (%eax)
     12a: 04 00                        	addb	$0, %al
     12c: 00 00                        	addb	%al, (%eax)
     12e: 00 00                        	addb	%al, (%eax)
     130: 80 0b 00                     	orb	$0, (%ebx)
     133: 00 2b                        	addb	%ch, (%ebx)
		...
     13d: 00 00                        	addb	%al, (%eax)
     13f: 00 1c 00                     	addb	%bl, (%eax,%eax)
     142: 00 00                        	addb	%al, (%eax)
     144: 02 00                        	addb	(%eax), %al
     146: a3 11 00 00 04               	movl	%eax, 67108881
     14b: 00 00                        	addb	%al, (%eax)
     14d: 00 00                        	addb	%al, (%eax)
     14f: 00 b0 0b 00 00 a4            	addb	%dh, -1543503861(%eax)
     155: 02 00                        	addb	(%eax), %al
		...
     15f: 00 1c 00                     	addb	%bl, (%eax,%eax)
     162: 00 00                        	addb	%al, (%eax)
     164: 02 00                        	addb	(%eax), %al
     166: c7 14 00                     	<unknown>
     169: 00 04 00                     	addb	%al, (%eax,%eax)
     16c: 00 00                        	addb	%al, (%eax)
     16e: 00 00                        	addb	%al, (%eax)
     170: 60                           	pushal
     171: 0e                           	pushl	%cs
     172: 00 00                        	addb	%al, (%eax)
     174: 5a                           	popl	%edx
     175: 01 00                        	addl	%eax, (%eax)
		...
     17f: 00                           	<unknown>

Disassembly of section .rel.debug_aranges:

00000000 <.rel.debug_aranges>:
       0: 26 00 00                     	addb	%al, %es:(%eax)
       3: 00 01                        	addb	%al, (%ecx)
       5: 0b 00                        	orl	(%eax), %eax
       7: 00 30                        	addb	%dh, (%eax)
       9: 00 00                        	addb	%al, (%eax)
       b: 00 01                        	addb	%al, (%ecx)
       d: 01 00                        	addl	%eax, (%eax)
       f: 00 46 00                     	addb	%al, (%esi)
      12: 00 00                        	addb	%al, (%eax)
      14: 01 0b                        	addl	%ecx, (%ebx)
      16: 00 00                        	addb	%al, (%eax)
      18: 50                           	pushl	%eax
      19: 00 00                        	addb	%al, (%eax)
      1b: 00 01                        	addb	%al, (%ecx)
      1d: 01 00                        	addl	%eax, (%eax)
      1f: 00 66 00                     	addb	%ah, (%esi)
      22: 00 00                        	addb	%al, (%eax)
      24: 01 0b                        	addl	%ecx, (%ebx)
      26: 00 00                        	addb	%al, (%eax)
      28: 70 00                        	jo	0x2a <.rel.debug_aranges+0x2a>
      2a: 00 00                        	addb	%al, (%eax)
      2c: 01 01                        	addl	%eax, (%ecx)
      2e: 00 00                        	addb	%al, (%eax)
      30: 86 00                        	xchgb	%al, (%eax)
      32: 00 00                        	addb	%al, (%eax)
      34: 01 0b                        	addl	%ecx, (%ebx)
      36: 00 00                        	addb	%al, (%eax)
      38: 90                           	nop
      39: 00 00                        	addb	%al, (%eax)
      3b: 00 01                        	addb	%al, (%ecx)
      3d: 01 00                        	addl	%eax, (%eax)
      3f: 00 a6 00 00 00 01            	addb	%ah, 16777216(%esi)
      45: 0b 00                        	orl	(%eax), %eax
      47: 00 b0 00 00 00 01            	addb	%dh, 16777216(%eax)
      4d: 01 00                        	addl	%eax, (%eax)
      4f: 00 c6                        	addb	%al, %dh
      51: 00 00                        	addb	%al, (%eax)
      53: 00 01                        	addb	%al, (%ecx)
      55: 0b 00                        	orl	(%eax), %eax
      57: 00 d0                        	addb	%dl, %al
      59: 00 00                        	addb	%al, (%eax)
      5b: 00 01                        	addb	%al, (%ecx)
      5d: 01 00                        	addl	%eax, (%eax)
      5f: 00 e6                        	addb	%ah, %dh
      61: 00 00                        	addb	%al, (%eax)
      63: 00 01                        	addb	%al, (%ecx)
      65: 0b 00                        	orl	(%eax), %eax
      67: 00 f0                        	addb	%dh, %al
      69: 00 00                        	addb	%al, (%eax)
      6b: 00 01                        	addb	%al, (%ecx)
      6d: 01 00                        	addl	%eax, (%eax)
      6f: 00 06                        	addb	%al, (%esi)
      71: 01 00                        	addl	%eax, (%eax)
      73: 00 01                        	addb	%al, (%ecx)
      75: 0b 00                        	orl	(%eax), %eax
      77: 00 10                        	addb	%dl, (%eax)
      79: 01 00                        	addl	%eax, (%eax)
      7b: 00 01                        	addb	%al, (%ecx)
      7d: 01 00                        	addl	%eax, (%eax)
      7f: 00 26                        	addb	%ah, (%esi)
      81: 01 00                        	addl	%eax, (%eax)
      83: 00 01                        	addb	%al, (%ecx)
      85: 0b 00                        	orl	(%eax), %eax
      87: 00 30                        	addb	%dh, (%eax)
      89: 01 00                        	addl	%eax, (%eax)
      8b: 00 01                        	addb	%al, (%ecx)
      8d: 01 00                        	addl	%eax, (%eax)
      8f: 00 46 01                     	addb	%al, 1(%esi)
      92: 00 00                        	addb	%al, (%eax)
      94: 01 0b                        	addl	%ecx, (%ebx)
      96: 00 00                        	addb	%al, (%eax)
      98: 50                           	pushl	%eax
      99: 01 00                        	addl	%eax, (%eax)
      9b: 00 01                        	addb	%al, (%ecx)
      9d: 01 00                        	addl	%eax, (%eax)
      9f: 00 66 01                     	addb	%ah, 1(%esi)
      a2: 00 00                        	addb	%al, (%eax)
      a4: 01 0b                        	addl	%ecx, (%ebx)
      a6: 00 00                        	addb	%al, (%eax)
      a8: 70 01                        	jo	0xab <.rel.debug_aranges+0xab>
      aa: 00 00                        	addb	%al, (%eax)
      ac: 01 01                        	addl	%eax, (%ecx)
      ae: 00 00                        	addb	%al, (%eax)

Disassembly of section .rela.debug_aranges:

00000000 <.rela.debug_aranges>:
       0: 06                           	pushl	%es
       1: 00 00                        	addb	%al, (%eax)
       3: 00 01                        	addb	%al, (%ecx)
       5: 0b 00                        	orl	(%eax), %eax
       7: 00 00                        	addb	%al, (%eax)
       9: 00 00                        	addb	%al, (%eax)
       b: 00 10                        	addb	%dl, (%eax)
       d: 00 00                        	addb	%al, (%eax)
       f: 00 01                        	addb	%al, (%ecx)
      11: 01 00                        	addl	%eax, (%eax)
      13: 00 00                        	addb	%al, (%eax)
      15: 00 00                        	addb	%al, (%eax)
      17: 00                           	<unknown>

Disassembly of section .debug_info:

00000000 <.debug_info>:
       0: 43                           	incl	%ebx
       1: 00 00                        	addb	%al, (%eax)
       3: 00 02                        	addb	%al, (%edx)
       5: 00 00                        	addb	%al, (%eax)
       7: 00 00                        	addb	%al, (%eax)
       9: 00 04 01                     	addb	%al, (%ecx,%eax)
       c: 00 00                        	addb	%al, (%eax)
       e: 00 00                        	addb	%al, (%eax)
      10: 00 02                        	addb	%al, (%edx)
      12: 00 00                        	addb	%al, (%eax)
      14: 00 00                        	addb	%al, (%eax)
      16: 00 00                        	addb	%al, (%eax)
      18: 73 72                        	jae	0x8c <.debug_info+0x8c>
      1a: 63 2f                        	arpl	%bp, (%edi)
      1c: 6b 65 72 6e                  	imull	$110, 114(%ebp), %esp
      20: 65 6c                        	insb	%dx, %es:(%edi)
      22: 2f                           	das
      23: 6b 65 72 6e                  	imull	$110, 114(%ebp), %esp
      27: 65 6c                        	insb	%dx, %es:(%edi)
      29: 2e 61                        	popal
      2b: 73 6d                        	jae	0x9a <.debug_info+0x9a>
      2d: 00 4e 41                     	addb	%cl, 65(%esi)
      30: 53                           	pushl	%ebx
      31: 4d                           	decl	%ebp
      32: 20 32                        	andb	%dh, (%edx)
      34: 2e 31 35 2e 30 35 00         	xorl	%esi, %cs:3485742
      3b: 01 80 02 00 00 00            	addl	%eax, 2(%eax)
      41: 00 00                        	addb	%al, (%eax)
      43: 00 00                        	addb	%al, (%eax)
      45: 00 00                        	addb	%al, (%eax)
      47: 44                           	incl	%esp
      48: 01 00                        	addl	%eax, (%eax)
      4a: 00 04 00                     	addb	%al, (%eax,%eax)
      4d: 1b 00                        	sbbl	(%eax), %eax
      4f: 00 00                        	addb	%al, (%eax)
      51: 04 01                        	addb	$1, %al
      53: c8 00 00 00                  	enter	$0, $0
      57: 0c 90                        	orb	$-112, %al
		...
      61: 02 00                        	addb	(%eax), %al
      63: 00 02                        	addb	%al, (%edx)
      65: 00 00                        	addb	%al, (%eax)
      67: 00 53 00                     	addb	%dl, (%ebx)
      6a: 00 00                        	addb	%al, (%eax)
      6c: 02 4a 00                     	addb	(%edx), %cl
      6f: 00 00                        	addb	%al, (%eax)
      71: 03 04 17                     	addl	(%edi,%edx), %eax
      74: 31 00                        	xorl	%eax, (%eax)
      76: 00 00                        	addb	%al, (%eax)
      78: 03 01                        	addl	(%ecx), %eax
      7a: 08 7d 00                     	orb	%bh, (%ebp)
      7d: 00 00                        	addb	%al, (%eax)
      7f: 03 02                        	addl	(%edx), %eax
      81: 07                           	popl	%es
      82: b5 00                        	movb	$0, %ch
      84: 00 00                        	addb	%al, (%eax)
      86: 03 04 07                     	addl	(%edi,%eax), %eax
      89: 2b 00                        	subl	(%eax), %eax
      8b: 00 00                        	addb	%al, (%eax)
      8d: 03 08                        	addl	(%eax), %ecx
      8f: 07                           	popl	%es
      90: 50                           	pushl	%eax
      91: 00 00                        	addb	%al, (%eax)
      93: 00 04 52                     	addb	%al, (%edx,%edx,2)
      96: 47                           	incl	%edi
      97: 42                           	incl	%edx
      98: 00 03                        	addb	%al, (%ebx)
      9a: 02 06                        	addb	(%esi), %al
      9c: 10 82 00 00 00 05            	adcb	%al, 83886080(%edx)
      a2: 72 65                        	jb	0x109 <.debug_info+0x109>
      a4: 64 00 02                     	addb	%al, %fs:(%edx)
      a7: 07                           	popl	%es
      a8: 09 25 00 00 00 00            	orl	%esp, 0
      ae: 06                           	pushl	%es
      af: 67 00 00                     	addb	%al, (%bx,%si)
      b2: 00 02                        	addb	%al, (%edx)
      b4: 08 09                        	orb	%cl, (%ecx)
      b6: 25 00 00 00 01               	andl	$16777216, %eax         # imm = 0x1000000
      bb: 06                           	pushl	%es
      bc: 38 00                        	cmpb	%al, (%eax)
      be: 00 00                        	addb	%al, (%eax)
      c0: 02 09                        	addb	(%ecx), %cl
      c2: 09 25 00 00 00 02            	orl	%esp, 33554432
      c8: 00 07                        	addb	%al, (%edi)
      ca: 52                           	pushl	%edx
      cb: 47                           	incl	%edi
      cc: 42                           	incl	%edx
      cd: 00 02                        	addb	%al, (%edx)
      cf: 0a 03                        	orb	(%ebx), %al
      d1: 4d                           	decl	%ebp
      d2: 00 00                        	addb	%al, (%eax)
      d4: 00 08                        	addb	%cl, (%eax)
      d6: 82 00 00                     	addb	$0, (%eax)
      d9: 00 09                        	addb	%cl, (%ecx)
      db: 44                           	incl	%esp
      dc: 00 00                        	addb	%al, (%eax)
      de: 00 02                        	addb	%al, (%edx)
      e0: 0c 12                        	orb	$18, %al
      e2: 8e 00                        	movw	(%eax), %es
      e4: 00 00                        	addb	%al, (%eax)
      e6: 05 03 00 00 00               	addl	$3, %eax
      eb: 00 09                        	addb	%cl, (%ecx)
      ed: 85 01                        	testl	%eax, (%ecx)
      ef: 00 00                        	addb	%al, (%eax)
      f1: 02 0d 12 8e 00 00            	addb	36370, %cl
      f7: 00 05 03 03 00 00            	addb	%al, 771
      fd: 00 0a                        	addb	%cl, (%edx)
      ff: 52                           	pushl	%edx
     100: 45                           	incl	%ebp
     101: 44                           	incl	%esp
     102: 00 02                        	addb	%al, (%edx)
     104: 0e                           	pushl	%cs
     105: 12 8e 00 00 00 05            	adcb	83886080(%esi), %cl
     10b: 03 06                        	addl	(%esi), %eax
     10d: 00 00                        	addb	%al, (%eax)
     10f: 00 09                        	addb	%cl, (%ecx)
     111: 98                           	cwtl
     112: 01 00                        	addl	%eax, (%eax)
     114: 00 02                        	addb	%al, (%edx)
     116: 0f 12 8e 00 00 00 05         	movlps	83886080(%esi), %xmm1   # xmm1 = mem[0,1],xmm1[2,3]
     11d: 03 09                        	addl	(%ecx), %ecx
     11f: 00 00                        	addb	%al, (%eax)
     121: 00 09                        	addb	%cl, (%ecx)
     123: 8b 00                        	movl	(%eax), %eax
     125: 00 00                        	addb	%al, (%eax)
     127: 02 10                        	addb	(%eax), %dl
     129: 12 8e 00 00 00 05            	adcb	83886080(%esi), %cl
     12f: 03 0c 00                     	addl	(%eax,%eax), %ecx
     132: 00 00                        	addb	%al, (%eax)
     134: 09 ae 00 00 00 02            	orl	%ebp, 33554432(%esi)
     13a: 11 12                        	adcl	%edx, (%edx)
     13c: 8e 00                        	movw	(%eax), %es
     13e: 00 00                        	addb	%al, (%eax)
     140: 05 03 0f 00 00               	addl	$3843, %eax             # imm = 0xF03
     145: 00 09                        	addb	%cl, (%ecx)
     147: 3d 00 00 00 02               	cmpl	$33554432, %eax         # imm = 0x2000000
     14c: 12 12                        	adcb	(%edx), %dl
     14e: 8e 00                        	movw	(%eax), %es
     150: 00 00                        	addb	%al, (%eax)
     152: 05 03 12 00 00               	addl	$4611, %eax             # imm = 0x1203
     157: 00 09                        	addb	%cl, (%ecx)
     159: 78 00                        	js	0x15b <.debug_info+0x15b>
     15b: 00 00                        	addb	%al, (%eax)
     15d: 02 13                        	addb	(%ebx), %dl
     15f: 12 8e 00 00 00 05            	adcb	83886080(%esi), %cl
     165: 03 15 00 00 00 09            	addl	150994944, %edx
     16b: 6d                           	insl	%dx, %es:(%edi)
     16c: 00 00                        	addb	%al, (%eax)
     16e: 00 02                        	addb	%al, (%edx)
     170: 14 12                        	adcb	$18, %al
     172: 8e 00                        	movw	(%eax), %es
     174: 00 00                        	addb	%al, (%eax)
     176: 05 03 18 00 00               	addl	$6147, %eax             # imm = 0x1803
     17b: 00 0b                        	addb	%cl, (%ebx)
     17d: 8b 01                        	movl	(%ecx), %eax
     17f: 00 00                        	addb	%al, (%eax)
     181: 01 03                        	addl	%eax, (%ebx)
     183: 06                           	pushl	%es
     184: 00 02                        	addb	%al, (%edx)
     186: 00 00                        	addb	%al, (%eax)
     188: 02 00                        	addb	(%eax), %al
     18a: 00 00                        	addb	%al, (%eax)
     18c: 01 9c 00 80 02 00 00         	addl	%ebx, 640(%eax,%eax)
     193: 04 00                        	addb	$0, %al
     195: cc                           	int3
     196: 00 00                        	addb	%al, (%eax)
     198: 00 04 01                     	addb	%al, (%ecx,%eax)
     19b: a1 02 00 00 0c               	movl	201326594, %eax
     1a0: 02 02                        	addb	(%edx), %al
     1a2: 00 00                        	addb	%al, (%eax)
     1a4: 9e                           	sahf
     1a5: 01 00                        	addl	%eax, (%eax)
     1a7: 00 10                        	addb	%dl, (%eax)
     1a9: 02 00                        	addb	(%eax), %al
     1ab: 00 fd                        	addb	%bh, %ch
     1ad: 00 00                        	addb	%al, (%eax)
     1af: 00 ce                        	addb	%cl, %dh
     1b1: 00 00                        	addb	%al, (%eax)
     1b3: 00 02                        	addb	%al, (%edx)
     1b5: 9b                           	wait
     1b6: 02 00                        	addb	(%eax), %al
     1b8: 00 02                        	addb	%al, (%edx)
     1ba: 04 17                        	addb	$23, %al
     1bc: 36 00 00                     	addb	%al, %ss:(%eax)
     1bf: 00 03                        	addb	%al, (%ebx)
     1c1: 25 00 00 00 04               	andl	$67108864, %eax         # imm = 0x4000000
     1c6: 01 08                        	addl	%ecx, (%eax)
     1c8: 64 02 00                     	addb	%fs:(%eax), %al
     1cb: 00 04 02                     	addb	%al, (%edx,%eax)
     1ce: 07                           	popl	%es
     1cf: c9                           	leave
     1d0: 01 00                        	addl	%eax, (%eax)
     1d2: 00 04 04                     	addb	%al, (%esp,%eax)
     1d5: 07                           	popl	%es
     1d6: dc 01                        	faddl	(%ecx)
     1d8: 00 00                        	addb	%al, (%eax)
     1da: 04 08                        	addb	$8, %al
     1dc: 07                           	popl	%es
     1dd: 37                           	aaa
     1de: 02 00                        	addb	(%eax), %al
     1e0: 00 02                        	addb	%al, (%edx)
     1e2: f5                           	cmc
     1e3: 01 00                        	addl	%eax, (%eax)
     1e5: 00 02                        	addb	%al, (%edx)
     1e7: 08 16                        	orb	%dl, (%esi)
     1e9: 44                           	incl	%esp
     1ea: 00 00                        	addb	%al, (%eax)
     1ec: 00 05 52 47 42 00            	addb	%al, 4343634
     1f2: 03 03                        	addl	(%ebx), %eax
     1f4: 06                           	pushl	%es
     1f5: 10 93 00 00 00 06            	adcb	%dl, 100663296(%ebx)
     1fb: 72 65                        	jb	0x262 <.debug_info+0x262>
     1fd: 64 00 03                     	addb	%al, %fs:(%ebx)
     200: 07                           	popl	%es
     201: 09 25 00 00 00 00            	orl	%esp, 0
     207: 07                           	popl	%es
     208: 4e                           	decl	%esi
     209: 02 00                        	addb	(%eax), %al
     20b: 00 03                        	addb	%al, (%ebx)
     20d: 08 09                        	orb	%cl, (%ecx)
     20f: 25 00 00 00 01               	andl	$16777216, %eax         # imm = 0x1000000
     214: 07                           	popl	%es
     215: e9 01 00 00 03               	jmp	0x300021b <.debug_info+0x300021b>
     21a: 09 09                        	orl	%ecx, (%ecx)
     21c: 25 00 00 00 02               	andl	$33554432, %eax         # imm = 0x2000000
     221: 00 08                        	addb	%cl, (%eax)
     223: 52                           	pushl	%edx
     224: 47                           	incl	%edi
     225: 42                           	incl	%edx
     226: 00 03                        	addb	%al, (%ebx)
     228: 0a 03                        	orb	(%ebx), %al
     22a: 5e                           	popl	%esi
     22b: 00 00                        	addb	%al, (%eax)
     22d: 00 03                        	addb	%al, (%ebx)
     22f: 93                           	xchgl	%ebx, %eax
     230: 00 00                        	addb	%al, (%eax)
     232: 00 09                        	addb	%cl, (%ecx)
     234: fc                           	cld
     235: 01 00                        	addl	%eax, (%eax)
     237: 00 03                        	addb	%al, (%ebx)
     239: 0c 12                        	orb	$18, %al
     23b: 9f                           	lahf
     23c: 00 00                        	addb	%al, (%eax)
     23e: 00 05 03 20 00 00            	addb	%al, 8195
     244: 00 09                        	addb	%cl, (%ecx)
     246: 64 03 00                     	addl	%fs:(%eax), %eax
     249: 00 03                        	addb	%al, (%ebx)
     24b: 0d 12 9f 00 00               	orl	$40722, %eax            # imm = 0x9F12
     250: 00 05 03 23 00 00            	addb	%al, 8963
     256: 00 0a                        	addb	%cl, (%edx)
     258: 52                           	pushl	%edx
     259: 45                           	incl	%ebp
     25a: 44                           	incl	%esp
     25b: 00 03                        	addb	%al, (%ebx)
     25d: 0e                           	pushl	%cs
     25e: 12 9f 00 00 00 05            	adcb	83886080(%edi), %bl
     264: 03 26                        	addl	(%esi), %esp
     266: 00 00                        	addb	%al, (%eax)
     268: 00 09                        	addb	%cl, (%ecx)
     26a: 6a 03                        	pushl	$3
     26c: 00 00                        	addb	%al, (%eax)
     26e: 03 0f                        	addl	(%edi), %ecx
     270: 12 9f 00 00 00 05            	adcb	83886080(%edi), %bl
     276: 03 29                        	addl	(%ecx), %ebp
     278: 00 00                        	addb	%al, (%eax)
     27a: 00 09                        	addb	%cl, (%ecx)
     27c: 81 02 00 00 03 10            	addl	$268632064, (%edx)      # imm = 0x10030000
     282: 12 9f 00 00 00 05            	adcb	83886080(%edi), %bl
     288: 03 2c 00                     	addl	(%eax,%eax), %ebp
     28b: 00 00                        	addb	%al, (%eax)
     28d: 09 8f 02 00 00 03            	orl	%ecx, 50331650(%edi)
     293: 11 12                        	adcl	%edx, (%edx)
     295: 9f                           	lahf
     296: 00 00                        	addb	%al, (%eax)
     298: 00 05 03 2f 00 00            	addb	%al, 12035
     29e: 00 09                        	addb	%cl, (%ecx)
     2a0: ee                           	outb	%al, %dx
     2a1: 01 00                        	addl	%eax, (%eax)
     2a3: 00 03                        	addb	%al, (%ebx)
     2a5: 12 12                        	adcb	(%edx), %dl
     2a7: 9f                           	lahf
     2a8: 00 00                        	addb	%al, (%eax)
     2aa: 00 05 03 32 00 00            	addb	%al, 12803
     2b0: 00 09                        	addb	%cl, (%ecx)
     2b2: 5f                           	popl	%edi
     2b3: 02 00                        	addb	(%eax), %al
     2b5: 00 03                        	addb	%al, (%ebx)
     2b7: 13 12                        	adcl	(%edx), %edx
     2b9: 9f                           	lahf
     2ba: 00 00                        	addb	%al, (%eax)
     2bc: 00 05 03 35 00 00            	addb	%al, 13571
     2c2: 00 09                        	addb	%cl, (%ecx)
     2c4: 54                           	pushl	%esp
     2c5: 02 00                        	addb	(%eax), %al
     2c7: 00 03                        	addb	%al, (%ebx)
     2c9: 14 12                        	adcb	$18, %al
     2cb: 9f                           	lahf
     2cc: 00 00                        	addb	%al, (%eax)
     2ce: 00 05 03 38 00 00            	addb	%al, 14339
     2d4: 00 09                        	addb	%cl, (%ecx)
     2d6: 1d 02 00 00 04               	sbbl	$67108866, %eax         # imm = 0x4000002
     2db: 0e                           	pushl	%cs
     2dc: 14 31                        	adcb	$49, %al
     2de: 00 00                        	addb	%al, (%eax)
     2e0: 00 05 03 3b 00 00            	addb	%al, 15107
     2e6: 00 0b                        	addb	%cl, (%ebx)
     2e8: 31 00                        	xorl	%eax, (%eax)
     2ea: 00 00                        	addb	%al, (%eax)
     2ec: 6e                           	outsb	(%esi), %dx
     2ed: 01 00                        	addl	%eax, (%eax)
     2ef: 00 0c 44                     	addb	%cl, (%esp,%eax,2)
     2f2: 00 00                        	addb	%al, (%eax)
     2f4: 00 7f 0c                     	addb	%bh, 12(%edi)
     2f7: 44                           	incl	%esp
     2f8: 00 00                        	addb	%al, (%eax)
     2fa: 00 07                        	addb	%al, (%edi)
     2fc: 00 03                        	addb	%al, (%ebx)
     2fe: 58                           	popl	%eax
     2ff: 01 00                        	addl	%eax, (%eax)
     301: 00 09                        	addb	%cl, (%ecx)
     303: 96                           	xchgl	%esi, %eax
     304: 02 00                        	addb	(%eax), %al
     306: 00 01                        	addb	%al, (%ecx)
     308: 1d 14 6e 01 00               	sbbl	$93716, %eax            # imm = 0x16E14
     30d: 00 05 03 40 00 00            	addb	%al, 16387
     313: 00 0d 86 02 00 00            	addb	%cl, 646
     319: 01 bb 06 c0 02 00            	addl	%edi, 180230(%ebx)
     31f: 00 4d 00                     	addb	%cl, (%ebp)
     322: 00 00                        	addb	%al, (%eax)
     324: 01 9c df 01 00 00 0e         	addl	%ebx, 234881025(%edi,%ebx,8)
     32b: 73 00                        	jae	0x32d <.debug_info+0x32d>
     32d: 01 bb 1b df 01 00            	addl	%edi, 122651(%ebx)
     333: 00 02                        	addb	%al, (%edx)
     335: 91                           	xchgl	%ecx, %eax
     336: 00 0e                        	addb	%cl, (%esi)
     338: 78 00                        	js	0x33a <.debug_info+0x33a>
     33a: 01 bb 25 52 00 00            	addl	%edi, 21029(%ebx)
     340: 00 02                        	addb	%al, (%edx)
     342: 91                           	xchgl	%ecx, %eax
     343: 04 0e                        	addb	$14, %al
     345: 79 00                        	jns	0x347 <.debug_info+0x347>
     347: 01 bb 2f 52 00 00            	addl	%edi, 21039(%ebx)
     34d: 00 02                        	addb	%al, (%edx)
     34f: 91                           	xchgl	%ecx, %eax
     350: 08 0f                        	orb	%cl, (%edi)
     352: 31 02                        	xorl	%eax, (%edx)
     354: 00 00                        	addb	%al, (%eax)
     356: 01 bb 38 25 00 00            	addl	%edi, 9528(%ebx)
     35c: 00 02                        	addb	%al, (%edx)
     35e: 91                           	xchgl	%ecx, %eax
     35f: 5c                           	popl	%esp
     360: 0a 63 00                     	orb	(%ebx), %ah
     363: 01 bc 08 e5 01 00 00         	addl	%edi, 485(%eax,%ecx)
     36a: 02 91 6f 00 10 04            	addb	68157551(%ecx), %dl
     370: ec                           	inb	%dx, %al
     371: 01 00                        	addl	%eax, (%eax)
     373: 00 04 01                     	addb	%al, (%ecx,%eax)
     376: 06                           	pushl	%es
     377: 72 02                        	jb	0x37b <.debug_info+0x37b>
     379: 00 00                        	addb	%al, (%eax)
     37b: 03 e5                        	addl	%ebp, %esp
     37d: 01 00                        	addl	%eax, (%eax)
     37f: 00 0d 77 02 00 00            	addb	%cl, 631
     385: 01 a4 06 10 02 00 00         	addl	%esp, 528(%esi,%eax)
     38c: ae                           	scasb	%es:(%edi), %al
     38d: 00 00                        	addb	%al, (%eax)
     38f: 00 01                        	addb	%al, (%ecx)
     391: 9c                           	pushfl
     392: 7d 02                        	jge	0x396 <.debug_info+0x396>
     394: 00 00                        	addb	%al, (%eax)
     396: 0e                           	pushl	%cs
     397: 63 00                        	arpl	%ax, (%eax)
     399: 01 a4 15 e5 01 00 00         	addl	%esp, 485(%ebp,%edx)
     3a0: 02 91 5c 0e 78 00            	addb	7867996(%ecx), %dl
     3a6: 01 a4 1f 52 00 00 00         	addl	%esp, 82(%edi,%ebx)
     3ad: 02 91 04 0e 79 00            	addb	7933444(%ecx), %dl
     3b3: 01 a4 29 52 00 00 00         	addl	%esp, 82(%ecx,%ebp)
     3ba: 02 91 08 0f 31 02            	addb	36769544(%ecx), %dl
     3c0: 00 00                        	addb	%al, (%eax)
     3c2: 01 a4 32 25 00 00 00         	addl	%esp, 37(%edx,%esi)
     3c9: 02 91 58 09 5e 03            	addb	56494424(%ecx), %dl
     3cf: 00 00                        	addb	%al, (%eax)
     3d1: 01 b0 10 7d 02 00            	addl	%esi, 163088(%eax)
     3d7: 00 02                        	addb	%al, (%edx)
     3d9: 91                           	xchgl	%ecx, %eax
     3da: 64 11 37                     	adcl	%esi, %fs:(%edi)
     3dd: 02 00                        	addb	(%eax), %al
     3df: 00 81 00 00 00 0a            	addb	%al, 167772160(%ecx)
     3e5: 79 79                        	jns	0x460 <.debug_info+0x460>
     3e7: 00 01                        	addb	%al, (%ecx)
     3e9: b2 0f                        	movb	$15, %dl
     3eb: 52                           	pushl	%edx
     3ec: 00 00                        	addb	%al, (%eax)
     3ee: 00 02                        	addb	%al, (%edx)
     3f0: 91                           	xchgl	%ecx, %eax
     3f1: 6c                           	insb	%dx, %es:(%edi)
     3f2: 11 41 02                     	adcl	%eax, 2(%ecx)
     3f5: 00 00                        	addb	%al, (%eax)
     3f7: 6b 00 00                     	imull	$0, (%eax), %eax
     3fa: 00 0a                        	addb	%cl, (%edx)
     3fc: 78 78                        	js	0x476 <.debug_info+0x476>
     3fe: 00 01                        	addb	%al, (%ecx)
     400: b3 11                        	movb	$17, %bl
     402: 52                           	pushl	%edx
     403: 00 00                        	addb	%al, (%eax)
     405: 00 02                        	addb	%al, (%edx)
     407: 91                           	xchgl	%ecx, %eax
     408: 68 00 00 00 10               	pushl	$268435456              # imm = 0x10000000
     40d: 04 31                        	addb	$49, %al
     40f: 00 00                        	addb	%al, (%eax)
     411: 00 00                        	addb	%al, (%eax)
     413: d4 02                        	aam	$2
     415: 00 00                        	addb	%al, (%eax)
     417: 04 00                        	addb	$0, %al
     419: c7 01 00 00 04 01            	movl	$17039360, (%ecx)       # imm = 0x1040000
     41f: c8 04 00 00                  	enter	$4, $0
     423: 0c 9f                        	orb	$-97, %al
     425: 04 00                        	addb	$0, %al
     427: 00 70 03                     	addb	%dh, 3(%eax)
     42a: 00 00                        	addb	%al, (%eax)
     42c: 10 03                        	adcb	%al, (%ebx)
     42e: 00 00                        	addb	%al, (%eax)
     430: 5f                           	popl	%edi
     431: 02 00                        	addb	(%eax), %al
     433: 00 b3 01 00 00 02            	addb	%dh, 33554433(%ebx)
     439: da 03                        	fiaddl	(%ebx)
     43b: 00 00                        	addb	%al, (%eax)
     43d: 02 04 17                     	addb	(%edi,%edx), %al
     440: 36 00 00                     	addb	%al, %ss:(%eax)
     443: 00 03                        	addb	%al, (%ebx)
     445: 25 00 00 00 04               	andl	$67108864, %eax         # imm = 0x4000000
     44a: 01 08                        	addl	%ecx, (%eax)
     44c: 40                           	incl	%eax
     44d: 04 00                        	addb	$0, %al
     44f: 00 02                        	addb	%al, (%edx)
     451: 8d 05 00 00 02 05            	leal	84017152, %eax
     457: 18 49 00                     	sbbb	%cl, (%ecx)
     45a: 00 00                        	addb	%al, (%eax)
     45c: 04 02                        	addb	$2, %al
     45e: 07                           	popl	%es
     45f: 86 04 00                     	xchgb	%al, (%eax,%eax)
     462: 00 04 04                     	addb	%al, (%esp,%eax)
     465: 07                           	popl	%es
     466: a9 03 00 00 04               	testl	$67108867, %eax         # imm = 0x4000003
     46b: 08 07                        	orb	%al, (%edi)
     46d: 01 04 00                     	addl	%eax, (%eax,%eax)
     470: 00 05 52 47 42 00            	addb	%al, 4343634
     476: 03 03                        	addl	(%ebx), %eax
     478: 06                           	pushl	%es
     479: 10 93 00 00 00 06            	adcb	%dl, 100663296(%ebx)
     47f: 72 65                        	jb	0x4e6 <.debug_info+0x4e6>
     481: 64 00 03                     	addb	%al, %fs:(%ebx)
     484: 07                           	popl	%es
     485: 09 25 00 00 00 00            	orl	%esp, 0
     48b: 07                           	popl	%es
     48c: 18 04 00                     	sbbb	%al, (%eax,%eax)
     48f: 00 03                        	addb	%al, (%ebx)
     491: 08 09                        	orb	%cl, (%ecx)
     493: 25 00 00 00 01               	andl	$16777216, %eax         # imm = 0x1000000
     498: 07                           	popl	%es
     499: b6 03                        	movb	$3, %dh
     49b: 00 00                        	addb	%al, (%eax)
     49d: 03 09                        	addl	(%ecx), %ecx
     49f: 09 25 00 00 00 02            	orl	%esp, 33554432
     4a5: 00 08                        	addb	%cl, (%eax)
     4a7: 52                           	pushl	%edx
     4a8: 47                           	incl	%edi
     4a9: 42                           	incl	%edx
     4aa: 00 03                        	addb	%al, (%ebx)
     4ac: 0a 03                        	orb	(%ebx), %al
     4ae: 5e                           	popl	%esi
     4af: 00 00                        	addb	%al, (%eax)
     4b1: 00 03                        	addb	%al, (%ebx)
     4b3: 93                           	xchgl	%ebx, %eax
     4b4: 00 00                        	addb	%al, (%eax)
     4b6: 00 09                        	addb	%cl, (%ecx)
     4b8: c9                           	leave
     4b9: 03 00                        	addl	(%eax), %eax
     4bb: 00 03                        	addb	%al, (%ebx)
     4bd: 0c 12                        	orb	$18, %al
     4bf: 9f                           	lahf
     4c0: 00 00                        	addb	%al, (%eax)
     4c2: 00 05 03 40 04 00            	addb	%al, 278531
     4c8: 00 09                        	addb	%cl, (%ecx)
     4ca: 99                           	cltd
     4cb: 04 00                        	addb	$0, %al
     4cd: 00 03                        	addb	%al, (%ebx)
     4cf: 0d 12 9f 00 00               	orl	$40722, %eax            # imm = 0x9F12
     4d4: 00 05 03 43 04 00            	addb	%al, 279299
     4da: 00 0a                        	addb	%cl, (%edx)
     4dc: 52                           	pushl	%edx
     4dd: 45                           	incl	%ebp
     4de: 44                           	incl	%esp
     4df: 00 03                        	addb	%al, (%ebx)
     4e1: 0e                           	pushl	%cs
     4e2: 12 9f 00 00 00 05            	adcb	83886080(%edi), %bl
     4e8: 03 46 04                     	addl	4(%esi), %eax
     4eb: 00 00                        	addb	%al, (%eax)
     4ed: 09 a1 05 00 00 03            	orl	%esp, 50331653(%ecx)
     4f3: 0f 12 9f 00 00 00 05         	movlps	83886080(%edi), %xmm3   # xmm3 = mem[0,1],xmm3[2,3]
     4fa: 03 49 04                     	addl	4(%ecx), %ecx
     4fd: 00 00                        	addb	%al, (%eax)
     4ff: 09 5a 04                     	orl	%ebx, 4(%edx)
     502: 00 00                        	addb	%al, (%eax)
     504: 03 10                        	addl	(%eax), %edx
     506: 12 9f 00 00 00 05            	adcb	83886080(%edi), %bl
     50c: 03 4c 04 00                  	addl	(%esp,%eax), %ecx
     510: 00 09                        	addb	%cl, (%ecx)
     512: 74 04                        	je	0x518 <.debug_info+0x518>
     514: 00 00                        	addb	%al, (%eax)
     516: 03 11                        	addl	(%ecx), %edx
     518: 12 9f 00 00 00 05            	adcb	83886080(%edi), %bl
     51e: 03 4f 04                     	addl	4(%edi), %ecx
     521: 00 00                        	addb	%al, (%eax)
     523: 09 c2                        	orl	%eax, %edx
     525: 03 00                        	addl	(%eax), %eax
     527: 00 03                        	addb	%al, (%ebx)
     529: 12 12                        	adcb	(%edx), %dl
     52b: 9f                           	lahf
     52c: 00 00                        	addb	%al, (%eax)
     52e: 00 05 03 52 04 00            	addb	%al, 283139
     534: 00 09                        	addb	%cl, (%ecx)
     536: 35 04 00 00 03               	xorl	$50331652, %eax         # imm = 0x3000004
     53b: 13 12                        	adcl	(%edx), %edx
     53d: 9f                           	lahf
     53e: 00 00                        	addb	%al, (%eax)
     540: 00 05 03 55 04 00            	addb	%al, 283907
     546: 00 09                        	addb	%cl, (%ecx)
     548: 2a 04 00                     	subb	(%eax,%eax), %al
     54b: 00 03                        	addb	%al, (%ebx)
     54d: 14 12                        	adcb	$18, %al
     54f: 9f                           	lahf
     550: 00 00                        	addb	%al, (%eax)
     552: 00 05 03 58 04 00            	addb	%al, 284675
     558: 00 09                        	addb	%cl, (%ecx)
     55a: e0 03                        	loopne	0x55f <.debug_info+0x55f>
     55c: 00 00                        	addb	%al, (%eax)
     55e: 04 0e                        	addb	$14, %al
     560: 14 31                        	adcb	$49, %al
     562: 00 00                        	addb	%al, (%eax)
     564: 00 05 03 5b 04 00            	addb	%al, 285443
     56a: 00 0b                        	addb	%cl, (%ebx)
     56c: 7b 04                        	jnp	0x572 <.debug_info+0x572>
     56e: 00 00                        	addb	%al, (%eax)
     570: 01 36                        	addl	%esi, (%esi)
     572: 06                           	pushl	%es
     573: 20 05 00 00 4f 00            	andb	%al, 5177344
     579: 00 00                        	addb	%al, (%eax)
     57b: 01 9c a5 01 00 00 0c         	addl	%ebx, 201326593(%ebp,%eiz,4)
     582: 63 00                        	arpl	%ax, (%eax)
     584: 01 36                        	addl	%esi, (%esi)
     586: 16                           	pushl	%ss
     587: a5                           	movsl	(%esi), %es:(%edi)
     588: 01 00                        	addl	%eax, (%eax)
     58a: 00 02                        	addb	%al, (%edx)
     58c: 91                           	xchgl	%ecx, %eax
     58d: 68 0c 78 00 01               	pushl	$16807948               # imm = 0x100780C
     592: 36 20 3d 00 00 00 02         	andb	%bh, %ss:33554432
     599: 91                           	xchgl	%ecx, %eax
     59a: 64 0c 79                     	orb	$121, %al
     59d: 00 01                        	addb	%al, (%ecx)
     59f: 36 2a 3d 00 00 00 02         	subb	%ss:33554432, %bh
     5a6: 91                           	xchgl	%ecx, %eax
     5a7: 60                           	pushal
     5a8: 09 cf                        	orl	%ecx, %edi
     5aa: 03 00                        	addl	(%eax), %eax
     5ac: 00 01                        	addb	%al, (%ecx)
     5ae: 37                           	aaa
     5af: 0a ac 01 00 00 02 91         	orb	-1862139904(%ecx,%eax), %ch
     5b6: 78 00                        	js	0x5b8 <.debug_info+0x5b8>
     5b8: 04 01                        	addb	$1, %al
     5ba: 06                           	pushl	%es
     5bb: 4e                           	decl	%esi
     5bc: 04 00                        	addb	$0, %al
     5be: 00 0d 04 25 00 00            	addb	%cl, 9476
     5c4: 00 0e                        	addb	%cl, (%esi)
     5c6: 1e                           	pushl	%ds
     5c7: 04 00                        	addb	$0, %al
     5c9: 00 01                        	addb	%al, (%ecx)
     5cb: 28 06                        	subb	%al, (%esi)
     5cd: a0 04 00 00 7b               	movb	2063597572, %al
     5d2: 00 00                        	addb	%al, (%eax)
     5d4: 00 01                        	addb	%al, (%ecx)
     5d6: 9c                           	pushfl
     5d7: 23 02                        	andl	(%edx), %eax
     5d9: 00 00                        	addb	%al, (%eax)
     5db: 09 cf                        	orl	%ecx, %edi
     5dd: 03 00                        	addl	(%eax), %eax
     5df: 00 01                        	addb	%al, (%ecx)
     5e1: 2c 0a                        	subb	$10, %al
     5e3: ac                           	lodsb	(%esi), %al
     5e4: 01 00                        	addl	%eax, (%eax)
     5e6: 00 02                        	addb	%al, (%edx)
     5e8: 91                           	xchgl	%ecx, %eax
     5e9: 64 0f b0 04 00               	cmpxchgb	%al, %fs:(%eax,%eax)
     5ee: 00 65 00                     	addb	%ah, (%ebp)
     5f1: 00 00                        	addb	%al, (%eax)
     5f3: 09 94 05 00 00 01 2e         	orl	%edx, 771817472(%ebp,%eax)
     5fa: 0c 23                        	orb	$35, %al
     5fc: 02 00                        	addb	(%eax), %al
     5fe: 00 02                        	addb	%al, (%edx)
     600: 91                           	xchgl	%ecx, %eax
     601: 6c                           	insb	%dx, %es:(%edi)
     602: 0f ba 04 00                  	<unknown>
     606: 00 4c 00 00                  	addb	%cl, (%eax,%eax)
     60a: 00 09                        	addb	%cl, (%ecx)
     60c: 53                           	pushl	%ebx
     60d: 04 00                        	addb	$0, %al
     60f: 00 01                        	addb	%al, (%ecx)
     611: 2f                           	das
     612: 0e                           	pushl	%cs
     613: 23 02                        	andl	(%edx), %eax
     615: 00 00                        	addb	%al, (%eax)
     617: 02 91 68 0f c4 04            	addb	79957864(%ecx), %dl
     61d: 00 00                        	addb	%al, (%eax)
     61f: 33 00                        	xorl	(%eax), %eax
     621: 00 00                        	addb	%al, (%eax)
     623: 09 9a 05 00 00 01            	orl	%ebx, 16777221(%edx)
     629: 31 0e                        	xorl	%ecx, (%esi)
     62b: 3d 00 00 00 02               	cmpl	$33554432, %eax         # imm = 0x2000000
     630: 91                           	xchgl	%ecx, %eax
     631: 62 00                        	bound	%eax, (%eax)
     633: 00 00                        	addb	%al, (%eax)
     635: 00 10                        	addb	%dl, (%eax)
     637: 04 05                        	addb	$5, %al
     639: 69 6e 74 00 11 bc 04         	imull	$79433984, 116(%esi), %ebp # imm = 0x4BC1100
     640: 00 00                        	addb	%al, (%eax)
     642: 01 1f                        	addl	%ebx, (%edi)
     644: 06                           	pushl	%es
     645: 20 04 00                     	andb	%al, (%eax,%eax)
     648: 00 71 00                     	addb	%dh, (%ecx)
     64b: 00 00                        	addb	%al, (%eax)
     64d: 01 9c 5f 02 00 00 12         	addl	%ebx, 301989890(%edi,%ebx,2)
     654: 3a 04 00                     	cmpb	(%eax,%eax), %al
     657: 00 01                        	addb	%al, (%ecx)
     659: 1f                           	popl	%ds
     65a: 18 25 00 00 00 02            	sbbb	%ah, 33554432
     660: 91                           	xchgl	%ecx, %eax
     661: 6c                           	insb	%dx, %es:(%edi)
     662: 12 bb 03 00 00 01            	adcb	16777219(%ebx), %bh
     668: 1f                           	popl	%ds
     669: 2a 5e 00                     	subb	(%esi), %bl
     66c: 00 00                        	addb	%al, (%eax)
     66e: 02 91 04 00 0e 5f            	addb	1594753028(%ecx), %dl
     674: 04 00                        	addb	$0, %al
     676: 00 01                        	addb	%al, (%ecx)
     678: 10 06                        	adcb	%al, (%esi)
     67a: 20 03                        	andb	%al, (%ebx)
     67c: 00 00                        	addb	%al, (%eax)
     67e: f2 00 00                     	repne		addb	%al, (%eax)
     681: 00 01                        	addb	%al, (%ecx)
     683: 9c                           	pushfl
     684: 9c                           	pushfl
     685: 02 00                        	addb	(%eax), %al
     687: 00 09                        	addb	%cl, (%ecx)
     689: bb 03 00 00 01               	movl	$16777219, %ebx         # imm = 0x1000003
     68e: 14 0e                        	adcb	$14, %al
     690: 5e                           	popl	%esi
     691: 00 00                        	addb	%al, (%eax)
     693: 00 02                        	addb	%al, (%edx)
     695: 91                           	xchgl	%ecx, %eax
     696: 6c                           	insb	%dx, %es:(%edi)
     697: 0f 69 03                     	punpckhwd	(%ebx), %mm0    # mm0 = mm0[2],mem[2],mm0[3],mem[3]
     69a: 00 00                        	addb	%al, (%eax)
     69c: 70 00                        	jo	0x69e <.debug_info+0x69e>
     69e: 00 00                        	addb	%al, (%eax)
     6a0: 0a 69 00                     	orb	(%ecx), %ch
     6a3: 01 16                        	addl	%edx, (%esi)
     6a5: 0e                           	pushl	%cs
     6a6: 25 00 00 00 02               	andl	$33554432, %eax         # imm = 0x2000000
     6ab: 91                           	xchgl	%ecx, %eax
     6ac: 6f                           	outsl	(%esi), %dx
     6ad: 00 00                        	addb	%al, (%eax)
     6af: 0b f4                        	orl	%esp, %esi
     6b1: 03 00                        	addl	(%eax), %eax
     6b3: 00 01                        	addb	%al, (%ecx)
     6b5: 04 06                        	addb	$6, %al
     6b7: 10 03                        	adcb	%al, (%ebx)
     6b9: 00 00                        	addb	%al, (%eax)
     6bb: 0f 00 00                     	sldtw	(%eax)
     6be: 00 01                        	addb	%al, (%ecx)
     6c0: 9c                           	pushfl
     6c1: d1 02                        	roll	(%edx)
     6c3: 00 00                        	addb	%al, (%eax)
     6c5: 12 85 05 00 00 01            	adcb	16777221(%ebp), %al
     6cb: 04 18                        	addb	$24, %al
     6cd: d1 02                        	roll	(%edx)
     6cf: 00 00                        	addb	%al, (%eax)
     6d1: 02 91 00 12 9b 03            	addb	60494336(%ecx), %dl
     6d7: 00 00                        	addb	%al, (%eax)
     6d9: 01 04 27                     	addl	%eax, (%edi,%eiz)
     6dc: 25 00 00 00 02               	andl	$33554432, %eax         # imm = 0x2000000
     6e1: 91                           	xchgl	%ecx, %eax
     6e2: 78 00                        	js	0x6e4 <.debug_info+0x6e4>
     6e4: 0d 04 93 00 00               	orl	$37636, %eax            # imm = 0x9304
     6e9: 00 00                        	addb	%al, (%eax)
     6eb: 7b 02                        	jnp	0x6ef <.debug_info+0x6ef>
     6ed: 00 00                        	addb	%al, (%eax)
     6ef: 04 00                        	addb	$0, %al
     6f1: f1                           	<unknown>
     6f2: 02 00                        	addb	(%eax), %al
     6f4: 00 04 01                     	addb	%al, (%ecx,%eax)
     6f7: 3e 07                        	popl	%es
     6f9: 00 00                        	addb	%al, (%eax)
     6fb: 0c fc                        	orb	$-4, %al
     6fd: 06                           	pushl	%es
     6fe: 00 00                        	addb	%al, (%eax)
     700: a7                           	cmpsl	%es:(%edi), (%esi)
     701: 05 00 00 70 05               	addl	$91226112, %eax         # imm = 0x5700000
     706: 00 00                        	addb	%al, (%eax)
     708: 49                           	decl	%ecx
     709: 01 00                        	addl	%eax, (%eax)
     70b: 00 12                        	addb	%dl, (%edx)
     70d: 03 00                        	addl	(%eax), %eax
     70f: 00 02                        	addb	%al, (%edx)
     711: 24 06                        	andb	$6, %al
     713: 00 00                        	addb	%al, (%eax)
     715: 02 04 17                     	addb	(%edi,%edx), %al
     718: 36 00 00                     	addb	%al, %ss:(%eax)
     71b: 00 03                        	addb	%al, (%ebx)
     71d: 25 00 00 00 04               	andl	$67108864, %eax         # imm = 0x4000000
     722: 01 08                        	addl	%ecx, (%eax)
     724: 7a 06                        	jp	0x72c <.debug_info+0x72c>
     726: 00 00                        	addb	%al, (%eax)
     728: 02 05 08 00 00 02            	addb	33554440, %al
     72e: 05 18 49 00 00               	addl	$18712, %eax            # imm = 0x4918
     733: 00 04 02                     	addb	%al, (%edx,%eax)
     736: 07                           	popl	%es
     737: e9 06 00 00 02               	jmp	0x2000742 <.debug_info+0x2000742>
     73c: d2 05 00 00 02 06            	rolb	%cl, 100794368
     742: 16                           	pushl	%ss
     743: 5c                           	popl	%esp
     744: 00 00                        	addb	%al, (%eax)
     746: 00 04 04                     	addb	%al, (%esp,%eax)
     749: 07                           	popl	%es
     74a: d9 05 00 00 04 08            	flds	134479872
     750: 07                           	popl	%es
     751: 3b 06                        	cmpl	(%esi), %eax
     753: 00 00                        	addb	%al, (%eax)
     755: 05 e0 06 00 00               	addl	$1760, %eax             # imm = 0x6E0
     75a: 08 03                        	orb	%al, (%ebx)
     75c: 07                           	popl	%es
     75d: 08 b9 00 00 00 06            	orb	%bh, 100663296(%ecx)
     763: 2a 06                        	subb	(%esi), %al
     765: 00 00                        	addb	%al, (%eax)
     767: 03 08                        	addl	(%eax), %ecx
     769: 0a 3d 00 00 00 00            	orb	0, %bh
     76f: 06                           	pushl	%es
     770: f0                           	lock
     771: 05 00 00 03 09               	addl	$151191552, %eax        # imm = 0x9030000
     776: 0a 3d 00 00 00 02            	orb	33554432, %bh
     77c: 06                           	pushl	%es
     77d: fb                           	sti
     77e: 07                           	popl	%es
     77f: 00 00                        	addb	%al, (%eax)
     781: 03 0a                        	addl	(%edx), %ecx
     783: 09 25 00 00 00 04            	orl	%esp, 67108864
     789: 06                           	pushl	%es
     78a: e6 05                        	outb	%al, $5
     78c: 00 00                        	addb	%al, (%eax)
     78e: 03 0b                        	addl	(%ebx), %ecx
     790: 09 25 00 00 00 05            	orl	%esp, 83886080
     796: 06                           	pushl	%es
     797: 2f                           	das
     798: 08 00                        	orb	%al, (%eax)
     79a: 00 03                        	addb	%al, (%ebx)
     79c: 0c 0a                        	orb	$10, %al
     79e: 3d 00 00 00 06               	cmpl	$100663296, %eax        # imm = 0x6000000
     7a3: 00 05 52 06 00 00            	addb	%al, 1618
     7a9: 06                           	pushl	%es
     7aa: 03 10                        	addl	(%eax), %edx
     7ac: 08 e1                        	orb	%ah, %cl
     7ae: 00 00                        	addb	%al, (%eax)
     7b0: 00 06                        	addb	%al, (%esi)
     7b2: 35 06 00 00 03               	xorl	$50331654, %eax         # imm = 0x3000006
     7b7: 11 0a                        	adcl	%ecx, (%edx)
     7b9: 3d 00 00 00 00               	cmpl	$0, %eax
     7be: 06                           	pushl	%es
     7bf: 6b 06 00                     	imull	$0, (%esi), %eax
     7c2: 00 03                        	addb	%al, (%ebx)
     7c4: 12 0a                        	adcb	(%edx), %cl
     7c6: 50                           	pushl	%eax
     7c7: 00 00                        	addb	%al, (%eax)
     7c9: 00 02                        	addb	%al, (%edx)
     7cb: 00 02                        	addb	%al, (%edx)
     7cd: 1c 08                        	sbbb	$8, %al
     7cf: 00 00                        	addb	%al, (%eax)
     7d1: 04 09                        	addb	$9, %al
     7d3: 0f 25                        	<unknown>
     7d5: 00 00                        	addb	%al, (%eax)
     7d7: 00 03                        	addb	%al, (%ebx)
     7d9: e1 00                        	loope	0x7db <.debug_info+0x7db>
     7db: 00 00                        	addb	%al, (%eax)
     7dd: 05 d7 06 00 00               	addl	$1751, %eax             # imm = 0x6D7
     7e2: 03 04 0b                     	addl	(%ebx,%ecx), %eax
     7e5: 10 27                        	adcb	%ah, (%edi)
     7e7: 01 00                        	addl	%eax, (%eax)
     7e9: 00 06                        	addb	%al, (%esi)
     7eb: 1e                           	pushl	%ds
     7ec: 07                           	popl	%es
     7ed: 00 00                        	addb	%al, (%eax)
     7ef: 04 0c                        	addb	$12, %al
     7f1: 0d e1 00 00 00               	orl	$225, %eax
     7f6: 00 06                        	addb	%al, (%esi)
     7f8: b8 06 00 00 04               	movl	$67108870, %eax         # imm = 0x4000006
     7fd: 0d 09 25 00 00               	orl	$9481, %eax             # imm = 0x2509
     802: 00 01                        	addb	%al, (%ecx)
     804: 06                           	pushl	%es
     805: 11 07                        	adcl	%eax, (%edi)
     807: 00 00                        	addb	%al, (%eax)
     809: 04 0e                        	addb	$14, %al
     80b: 09 25 00 00 00 02            	orl	%esp, 33554432
     811: 00 07                        	addb	%al, (%edi)
     813: 70 06                        	jo	0x81b <.debug_info+0x81b>
     815: 00 00                        	addb	%al, (%eax)
     817: 04 11                        	addb	$17, %al
     819: 18 ed                        	sbbb	%ch, %ch
     81b: 00 00                        	addb	%al, (%eax)
     81d: 00 05 03 5c 04 00            	addb	%al, 285699
     823: 00 07                        	addb	%al, (%edi)
     825: 0b 06                        	orl	(%esi), %eax
     827: 00 00                        	addb	%al, (%eax)
     829: 04 12                        	addb	$18, %al
     82b: 18 ed                        	sbbb	%ch, %ch
     82d: 00 00                        	addb	%al, (%eax)
     82f: 00 05 03 5d 04 00            	addb	%al, 285955
     835: 00 07                        	addb	%al, (%edi)
     837: 01 06                        	addl	%eax, (%esi)
     839: 00 00                        	addb	%al, (%eax)
     83b: 04 13                        	addb	$19, %al
     83d: 18 ed                        	sbbb	%ch, %ch
     83f: 00 00                        	addb	%al, (%eax)
     841: 00 05 03 5e 04 00            	addb	%al, 286211
     847: 00 07                        	addb	%al, (%edi)
     849: 88 06                        	movb	%al, (%esi)
     84b: 00 00                        	addb	%al, (%eax)
     84d: 04 14                        	addb	$20, %al
     84f: 14 31                        	adcb	$49, %al
     851: 00 00                        	addb	%al, (%eax)
     853: 00 05 03 5f 04 00            	addb	%al, 286467
     859: 00 07                        	addb	%al, (%edi)
     85b: cd 06                        	int	$6
     85d: 00 00                        	addb	%al, (%eax)
     85f: 04 15                        	addb	$21, %al
     861: 14 31                        	adcb	$49, %al
     863: 00 00                        	addb	%al, (%eax)
     865: 00 05 03 60 04 00            	addb	%al, 286723
     86b: 00 07                        	addb	%al, (%edi)
     86d: ad                           	lodsl	(%esi), %eax
     86e: 06                           	pushl	%es
     86f: 00 00                        	addb	%al, (%eax)
     871: 04 17                        	addb	$23, %al
     873: 18 f2                        	sbbb	%dh, %dl
     875: 00 00                        	addb	%al, (%eax)
     877: 00 05 03 00 00 00            	addb	%al, 3
     87d: 00 08                        	addb	%cl, (%eax)
     87f: 6a 00                        	pushl	$0
     881: 00 00                        	addb	%al, (%eax)
     883: a3 01 00 00 09               	movl	%eax, 150994945
     888: 5c                           	popl	%esp
     889: 00 00                        	addb	%al, (%eax)
     88b: 00 ff                        	addb	%bh, %bh
     88d: 00 0a                        	addb	%cl, (%edx)
     88f: 14 06                        	adcb	$6, %al
     891: 00 00                        	addb	%al, (%eax)
     893: 01 11                        	addl	%edx, (%ecx)
     895: 11 93 01 00 00 05            	adcl	%edx, 83886081(%ebx)
     89b: 03 00                        	addl	(%eax), %eax
     89d: 00 00                        	addb	%al, (%eax)
     89f: 00 0a                        	addb	%cl, (%edx)
     8a1: 0c 08                        	orb	$8, %al
     8a3: 00 00                        	addb	%al, (%eax)
     8a5: 01 12                        	addl	%edx, (%edx)
     8a7: 12 b9 00 00 00 05            	adcb	83886080(%ecx), %bh
     8ad: 03 00                        	addl	(%eax), %eax
     8af: 00 00                        	addb	%al, (%eax)
     8b1: 00 0b                        	addb	%cl, (%ebx)
     8b3: 26 08 00                     	orb	%al, %es:(%eax)
     8b6: 00 01                        	addb	%al, (%ecx)
     8b8: 27                           	daa
     8b9: 06                           	pushl	%es
     8ba: 30 06                        	xorb	%al, (%esi)
     8bc: 00 00                        	addb	%al, (%eax)
     8be: 89 00                        	movl	%eax, (%eax)
     8c0: 00 00                        	addb	%al, (%eax)
     8c2: 01 9c f5 01 00 00 0c         	addl	%ebx, 201326593(%ebp,%esi,8)
     8c9: 5d                           	popl	%ebp
     8ca: 06                           	pushl	%es
     8cb: 00 00                        	addb	%al, (%eax)
     8cd: 35 00 00 00 0d               	xorl	$218103808, %eax        # imm = 0xD000000
     8d2: 69 00 01 2d 0f 3d            	imull	$1024404737, (%eax), %eax # imm = 0x3D0F2D01
     8d8: 00 00                        	addb	%al, (%eax)
     8da: 00 02                        	addb	%al, (%edx)
     8dc: 91                           	xchgl	%ecx, %eax
     8dd: 6e                           	outsb	(%esi), %dx
     8de: 00 00                        	addb	%al, (%eax)
     8e0: 0e                           	pushl	%cs
     8e1: f9                           	stc
     8e2: 05 00 00 01 1e               	addl	$503382016, %eax        # imm = 0x1E010000
     8e7: 06                           	pushl	%es
     8e8: e0 05                        	loopne	0x8ef <.debug_info+0x8ef>
     8ea: 00 00                        	addb	%al, (%eax)
     8ec: 50                           	pushl	%eax
     8ed: 00 00                        	addb	%al, (%eax)
     8ef: 00 01                        	addb	%al, (%ecx)
     8f1: 9c                           	pushfl
     8f2: 39 02                        	cmpl	%eax, (%edx)
     8f4: 00 00                        	addb	%al, (%eax)
     8f6: 0f 97 06                     	seta	(%esi)
     8f9: 00 00                        	addb	%al, (%eax)
     8fb: 01 1e                        	addl	%ebx, (%esi)
     8fd: 12 39                        	adcb	(%ecx), %bh
     8ff: 02 00                        	addb	(%eax), %al
     901: 00 02                        	addb	%al, (%edx)
     903: 91                           	xchgl	%ecx, %eax
     904: 00 0f                        	addb	%cl, (%edi)
     906: c5 06                        	ldsl	(%esi), %eax
     908: 00 00                        	addb	%al, (%eax)
     90a: 01 1e                        	addl	%ebx, (%esi)
     90c: 26 40                        	incl	%eax
     90e: 02 00                        	addb	(%eax), %al
     910: 00 02                        	addb	%al, (%edx)
     912: 91                           	xchgl	%ecx, %eax
     913: 04 07                        	addb	$7, %al
     915: 00 08                        	addb	%cl, (%eax)
     917: 00 00                        	addb	%al, (%eax)
     919: 01 1f                        	addl	%ebx, (%edi)
     91b: 14 42                        	adcb	$66, %al
     91d: 02 00                        	addb	(%eax), %al
     91f: 00 02                        	addb	%al, (%edx)
     921: 91                           	xchgl	%ecx, %eax
     922: 78 00                        	js	0x924 <.debug_info+0x924>
     924: 10 04 05 69 6e 74 00         	adcb	%al, 7630441(,%eax)
     92b: 11 04 12                     	adcl	%eax, (%edx,%edx)
     92e: 04 6a                        	addb	$106, %al
     930: 00 00                        	addb	%al, (%eax)
     932: 00 13                        	addb	%dl, (%ebx)
     934: 29 07                        	subl	%eax, (%edi)
     936: 00 00                        	addb	%al, (%eax)
     938: 01 1c 06                     	addl	%ebx, (%esi,%eax)
     93b: c0 05 00 00 17 00 00         	rolb	$0, 1507328
     942: 00 01                        	addb	%al, (%ecx)
     944: 9c                           	pushfl
     945: 13 5c 06 00                  	adcl	(%esi,%eax), %ebx
     949: 00 01                        	addb	%al, (%ecx)
     94b: 17                           	popl	%ss
     94c: 06                           	pushl	%es
     94d: 90                           	nop
     94e: 05 00 00 2c 00               	addl	$2883584, %eax          # imm = 0x2C0000
     953: 00 00                        	addb	%al, (%eax)
     955: 01 9c 13 a4 06 00 00         	addl	%ebx, 1700(%ebx,%edx)
     95c: 01 14 06                     	addl	%edx, (%esi,%eax)
     95f: 70 05                        	jo	0x966 <.debug_info+0x966>
     961: 00 00                        	addb	%al, (%eax)
     963: 1d 00 00 00 01               	sbbl	$16777216, %eax         # imm = 0x1000000
     968: 9c                           	pushfl
     969: 00 8d 00 00 00 04            	addb	%cl, 67108864(%ebp)
     96f: 00 12                        	addb	%dl, (%edx)
     971: 04 00                        	addb	$0, %al
     973: 00 04 01                     	addb	%al, (%ecx,%eax)
     976: c7 08                        	<unknown>
     978: 00 00                        	addb	%al, (%eax)
     97a: 0c 9b                        	orb	$-101, %al
     97c: 08 00                        	orb	%al, (%eax)
     97e: 00 5d 08                     	addb	%bl, 8(%ebp)
     981: 00 00                        	addb	%al, (%eax)
     983: c0 06 00                     	rolb	$0, (%esi)
     986: 00 ed                        	addb	%ch, %ch
     988: 00 00                        	addb	%al, (%eax)
     98a: 00 fe                        	addb	%bh, %dh
     98c: 03 00                        	addl	(%eax), %eax
     98e: 00 02                        	addb	%al, (%edx)
     990: 84 09                        	testb	%cl, (%ecx)
     992: 00 00                        	addb	%al, (%eax)
     994: 02 04 17                     	addb	(%edi,%edx), %al
     997: 31 00                        	xorl	%eax, (%eax)
     999: 00 00                        	addb	%al, (%eax)
     99b: 03 01                        	addl	(%ecx), %eax
     99d: 08 4f 08                     	orb	%cl, 8(%edi)
     9a0: 00 00                        	addb	%al, (%eax)
     9a2: 03 02                        	addl	(%edx), %eax
     9a4: 07                           	popl	%es
     9a5: 88 08                        	movb	%cl, (%eax)
     9a7: 00 00                        	addb	%al, (%eax)
     9a9: 03 04 07                     	addl	(%edi,%eax), %eax
     9ac: 42                           	incl	%edx
     9ad: 08 00                        	orb	%al, (%eax)
     9af: 00 03                        	addb	%al, (%ebx)
     9b1: 08 07                        	orb	%al, (%edi)
     9b3: b0 08                        	movb	$8, %al
     9b5: 00 00                        	addb	%al, (%eax)
     9b7: 04 9b                        	addb	$-101, %al
     9b9: 09 00                        	orl	%eax, (%eax)
     9bb: 00 01                        	addb	%al, (%ecx)
     9bd: 1c 06                        	sbbb	$6, %al
     9bf: a0 07 00 00 0d               	movb	218103815, %al
     9c4: 00 00                        	addb	%al, (%eax)
     9c6: 00 01                        	addb	%al, (%ecx)
     9c8: 9c                           	pushfl
     9c9: 05 8a 09 00 00               	addl	$2442, %eax             # imm = 0x98A
     9ce: 01 05 06 c0 06 00            	addl	%eax, 442374
     9d4: 00 da                        	addb	%bl, %dl
     9d6: 00 00                        	addb	%al, (%eax)
     9d8: 00 01                        	addb	%al, (%ecx)
     9da: 9c                           	pushfl
     9db: 06                           	pushl	%es
     9dc: 3b 08                        	cmpl	(%eax), %ecx
     9de: 00 00                        	addb	%al, (%eax)
     9e0: 01 07                        	addl	%eax, (%edi)
     9e2: 09 25 00 00 00 02            	orl	%esp, 33554432
     9e8: 91                           	xchgl	%ecx, %eax
     9e9: 6f                           	outsl	(%esi), %dx
     9ea: 06                           	pushl	%es
     9eb: 94                           	xchgl	%esp, %eax
     9ec: 09 00                        	orl	%eax, (%eax)
     9ee: 00 01                        	addb	%al, (%ecx)
     9f0: 08 09                        	orb	%cl, (%ecx)
     9f2: 25 00 00 00 02               	andl	$33554432, %eax         # imm = 0x2000000
     9f7: 91                           	xchgl	%ecx, %eax
     9f8: 6e                           	outsb	(%esi), %dx
     9f9: 00 00                        	addb	%al, (%eax)
     9fb: 60                           	pushal
     9fc: 04 00                        	addb	$0, %al
     9fe: 00 04 00                     	addb	%al, (%eax,%eax)
     a01: 81 04 00 00 04 01 25         	addl	$620823552, (%eax,%eax) # imm = 0x25010400
     a08: 0b 00                        	orl	(%eax), %eax
     a0a: 00 0c b8                     	addb	%cl, (%eax,%edi,4)
     a0d: 0a 00                        	orb	(%eax), %al
     a0f: 00 45 0c                     	addb	%al, 12(%ebp)
     a12: 00 00                        	addb	%al, (%eax)
     a14: b0 07                        	movb	$7, %al
     a16: 00 00                        	addb	%al, (%eax)
     a18: 16                           	pushl	%ss
     a19: 03 00                        	addl	(%eax), %eax
     a1b: 00 80 04 00 00 02            	addb	%al, 33554436(%eax)
     a21: 8d 0a                        	leal	(%edx), %ecx
     a23: 00 00                        	addb	%al, (%eax)
     a25: 02 04 17                     	addb	(%edi,%edx), %al
     a28: 36 00 00                     	addb	%al, %ss:(%eax)
     a2b: 00 03                        	addb	%al, (%ebx)
     a2d: 25 00 00 00 04               	andl	$67108864, %eax         # imm = 0x4000000
     a32: 01 08                        	addl	%ecx, (%eax)
     a34: 79 0a                        	jns	0xa40 <.debug_info+0xa40>
     a36: 00 00                        	addb	%al, (%eax)
     a38: 04 02                        	addb	$2, %al
     a3a: 07                           	popl	%es
     a3b: 22 0a                        	andb	(%edx), %cl
     a3d: 00 00                        	addb	%al, (%eax)
     a3f: 02 e2                        	addb	%dl, %ah
     a41: 0b 00                        	orl	(%eax), %eax
     a43: 00 02                        	addb	%al, (%edx)
     a45: 06                           	pushl	%es
     a46: 16                           	pushl	%ss
     a47: 50                           	pushl	%eax
     a48: 00 00                        	addb	%al, (%eax)
     a4a: 00 04 04                     	addb	%al, (%esp,%eax)
     a4d: 07                           	popl	%es
     a4e: e9 0b 00 00 04               	jmp	0x4000a5e <.debug_info+0x4000a5e>
     a53: 08 07                        	orb	%al, (%edi)
     a55: 04 0c                        	addb	$12, %al
     a57: 00 00                        	addb	%al, (%eax)
     a59: 02 c2                        	addb	%dl, %al
     a5b: 09 00                        	orl	%eax, (%eax)
     a5d: 00 02                        	addb	%al, (%edx)
     a5f: 08 16                        	orb	%dl, (%esi)
     a61: 50                           	pushl	%eax
     a62: 00 00                        	addb	%al, (%eax)
     a64: 00 02                        	addb	%al, (%edx)
     a66: 0b 0a                        	orl	(%edx), %ecx
     a68: 00 00                        	addb	%al, (%eax)
     a6a: 03 1d 17 36 00 00            	addl	13847, %ebx
     a70: 00 05 6e 0a 00 00            	addb	%al, 2670
     a76: 08 03                        	orb	%al, (%ebx)
     a78: 1f                           	popl	%ds
     a79: 08 9e 00 00 00 06            	orb	%bl, 100663296(%esi)
     a7f: b0 0c                        	movb	$12, %al
     a81: 00 00                        	addb	%al, (%eax)
     a83: 03 23                        	addl	(%ebx), %esp
     a85: 1b 9e 00 00 00 00            	sbbl	(%esi), %ebx
     a8b: 06                           	pushl	%es
     a8c: a2 0c 00 00 03               	movb	%al, 50331660
     a91: 24 0a                        	andb	$10, %al
     a93: 5e                           	popl	%esi
     a94: 00 00                        	addb	%al, (%eax)
     a96: 00 04 00                     	addb	%al, (%eax,%eax)
     a99: 07                           	popl	%es
     a9a: 04 6a                        	addb	$106, %al
     a9c: 00 00                        	addb	%al, (%eax)
     a9e: 00 05 1b 0c 00 00            	addb	%al, 3099
     aa4: 08 03                        	orb	%al, (%ebx)
     aa6: 27                           	daa
     aa7: 08 cc                        	orb	%cl, %ah
     aa9: 00 00                        	addb	%al, (%eax)
     aab: 00 06                        	addb	%al, (%esi)
     aad: a0 0a 00 00 03               	movb	50331658, %al
     ab2: 28 16                        	subb	%dl, (%esi)
     ab4: cc                           	int3
     ab5: 00 00                        	addb	%al, (%eax)
     ab7: 00 00                        	addb	%al, (%eax)
     ab9: 06                           	pushl	%es
     aba: f6 0b                        	<unknown>
     abc: 00 00                        	addb	%al, (%eax)
     abe: 03 29                        	addl	(%ecx), %ebp
     ac0: 09 d2                        	orl	%edx, %edx
     ac2: 00 00                        	addb	%al, (%eax)
     ac4: 00 04 00                     	addb	%al, (%eax,%eax)
     ac7: 07                           	popl	%es
     ac8: 04 76                        	addb	$118, %al
     aca: 00 00                        	addb	%al, (%eax)
     acc: 00 08                        	addb	%cl, (%eax)
     ace: 04 02                        	addb	$2, %al
     ad0: b8 09 00 00 04               	movl	$67108873, %eax         # imm = 0x4000009
     ad5: 09 0f                        	orl	%ecx, (%edi)
     ad7: 25 00 00 00 03               	andl	$50331648, %eax         # imm = 0x3000000
     adc: d4 00                        	aam	$0
     ade: 00 00                        	addb	%al, (%eax)
     ae0: 05 2b 0c 00 00               	addl	$3115, %eax             # imm = 0xC2B
     ae5: 03 04 0b                     	addl	(%ebx,%ecx), %eax
     ae8: 10 1a                        	adcb	%bl, (%edx)
     aea: 01 00                        	addl	%eax, (%eax)
     aec: 00 06                        	addb	%al, (%esi)
     aee: 20 0c 00                     	andb	%cl, (%eax,%eax)
     af1: 00 04 0c                     	addb	%al, (%esp,%ecx)
     af4: 0d d4 00 00 00               	orl	$212, %eax
     af9: 00 06                        	addb	%al, (%esi)
     afb: 95                           	xchgl	%ebp, %eax
     afc: 0c 00                        	orb	$0, %al
     afe: 00 04 0d 09 25 00 00         	addb	%al, 9481(,%ecx)
     b05: 00 01                        	addb	%al, (%ecx)
     b07: 06                           	pushl	%es
     b08: 7c 0c                        	jl	0xb16 <.debug_info+0xb16>
     b0a: 00 00                        	addb	%al, (%eax)
     b0c: 04 0e                        	addb	$14, %al
     b0e: 09 25 00 00 00 02            	orl	%esp, 33554432
     b14: 00 09                        	addb	%cl, (%ecx)
     b16: 3b 0c 00                     	cmpl	(%eax,%eax), %ecx
     b19: 00 04 11                     	addb	%al, (%ecx,%edx)
     b1c: 18 e0                        	sbbb	%ah, %al
     b1e: 00 00                        	addb	%al, (%eax)
     b20: 00 05 03 7e 04 00            	addb	%al, 294403
     b26: 00 09                        	addb	%cl, (%ecx)
     b28: f7 09                        	<unknown>
     b2a: 00 00                        	addb	%al, (%eax)
     b2c: 04 12                        	addb	$18, %al
     b2e: 18 e0                        	sbbb	%ah, %al
     b30: 00 00                        	addb	%al, (%eax)
     b32: 00 05 03 7f 04 00            	addb	%al, 294659
     b38: 00 09                        	addb	%cl, (%ecx)
     b3a: a4                           	movsb	(%esi), %es:(%edi)
     b3b: 09 00                        	orl	%eax, (%eax)
     b3d: 00 04 13                     	addb	%al, (%ebx,%edx)
     b40: 18 e0                        	sbbb	%ah, %al
     b42: 00 00                        	addb	%al, (%eax)
     b44: 00 05 03 80 04 00            	addb	%al, 294915
     b4a: 00 09                        	addb	%cl, (%ecx)
     b4c: e8 09 00 00 04               	calll	0x4000b5a <.debug_info+0x4000b5a>
     b51: 14 14                        	adcb	$20, %al
     b53: 31 00                        	xorl	%eax, (%eax)
     b55: 00 00                        	addb	%al, (%eax)
     b57: 05 03 81 04 00               	addl	$295171, %eax           # imm = 0x48103
     b5c: 00 09                        	addb	%cl, (%ecx)
     b5e: ae                           	scasb	%es:(%edi), %al
     b5f: 09 00                        	orl	%eax, (%eax)
     b61: 00 04 15 14 31 00 00         	addb	%al, 12564(,%edx)
     b68: 00 05 03 82 04 00            	addb	%al, 295427
     b6e: 00 09                        	addb	%cl, (%ecx)
     b70: 00 0b                        	addb	%cl, (%ebx)
     b72: 00 00                        	addb	%al, (%eax)
     b74: 04 17                        	addb	$23, %al
     b76: 18 e5                        	sbbb	%ah, %ch
     b78: 00 00                        	addb	%al, (%eax)
     b7a: 00 05 03 03 00 00            	addb	%al, 771
     b80: 00 0a                        	addb	%cl, (%edx)
     b82: 50                           	pushl	%eax
     b83: 0a 00                        	orb	(%eax), %al
     b85: 00 01                        	addb	%al, (%ecx)
     b87: 6d                           	insl	%dx, %es:(%edi)
     b88: 07                           	popl	%es
     b89: d2 00                        	rolb	%cl, (%eax)
     b8b: 00 00                        	addb	%al, (%eax)
     b8d: c0 0a 00                     	rorb	$0, (%edx)
     b90: 00 06                        	addb	%al, (%esi)
     b92: 00 00                        	addb	%al, (%eax)
     b94: 00 01                        	addb	%al, (%ecx)
     b96: 9c                           	pushfl
     b97: bf 01 00 00 0b               	movl	$184549377, %edi        # imm = 0xB000001
     b9c: 1b 0c 00                     	sbbl	(%eax,%eax), %ecx
     b9f: 00 01                        	addb	%al, (%ecx)
     ba1: 6d                           	insl	%dx, %es:(%edi)
     ba2: 1e                           	pushl	%ds
     ba3: bf 01 00 00 02               	movl	$33554433, %edi         # imm = 0x2000001
     ba8: 91                           	xchgl	%ecx, %eax
     ba9: 00 0c 70                     	addb	%cl, (%eax,%esi,2)
     bac: 74 72                        	je	0xc20 <.debug_info+0xc20>
     bae: 00 01                        	addb	%al, (%ecx)
     bb0: 6d                           	insl	%dx, %es:(%edi)
     bb1: 2a d2                        	subb	%dl, %dl
     bb3: 00 00                        	addb	%al, (%eax)
     bb5: 00 02                        	addb	%al, (%edx)
     bb7: 91                           	xchgl	%ecx, %eax
     bb8: 04 00                        	addb	$0, %al
     bba: 07                           	popl	%es
     bbb: 04 a4                        	addb	$-92, %al
     bbd: 00 00                        	addb	%al, (%eax)
     bbf: 00 0d 89 0c 00 00            	addb	%cl, 3209
     bc5: 01 65 07                     	addl	%esp, 7(%ebp)
     bc8: d2 00                        	rolb	%cl, (%eax)
     bca: 00 00                        	addb	%al, (%eax)
     bcc: 80 0a 00                     	orb	$0, (%edx)
     bcf: 00 32                        	addb	%dh, (%edx)
     bd1: 00 00                        	addb	%al, (%eax)
     bd3: 00 01                        	addb	%al, (%ecx)
     bd5: 9c                           	pushfl
     bd6: 1c 02                        	sbbb	$2, %al
     bd8: 00 00                        	addb	%al, (%eax)
     bda: 0b 1b                        	orl	(%ebx), %ebx
     bdc: 0c 00                        	orb	$0, %al
     bde: 00 01                        	addb	%al, (%ecx)
     be0: 65 20 bf 01 00 00 02         	andb	%bh, %gs:33554433(%edi)
     be7: 91                           	xchgl	%ecx, %eax
     be8: 00 0b                        	addb	%cl, (%ebx)
     bea: b8 0c 00 00 01               	movl	$16777228, %eax         # imm = 0x100000C
     bef: 65 2d 5e 00 00 00            	subl	$94, %eax
     bf5: 02 91 04 09 db 09            	addb	165349636(%ecx), %dl
     bfb: 00 00                        	addb	%al, (%eax)
     bfd: 01 67 0a                     	addl	%esp, 10(%edi)
     c00: 5e                           	popl	%esi
     c01: 00 00                        	addb	%al, (%eax)
     c03: 00 02                        	addb	%al, (%edx)
     c05: 91                           	xchgl	%ecx, %eax
     c06: 78 09                        	js	0xc11 <.debug_info+0xc11>
     c08: 93                           	xchgl	%ebx, %eax
     c09: 0a 00                        	orb	(%eax), %al
     c0b: 00 01                        	addb	%al, (%ecx)
     c0d: 68 0a 44 00 00               	pushl	$17418                  # imm = 0x440A
     c12: 00 02                        	addb	%al, (%edx)
     c14: 91                           	xchgl	%ecx, %eax
     c15: 74 00                        	je	0xc17 <.debug_info+0xc17>
     c17: 0d c9 09 00 00               	orl	$2505, %eax             # imm = 0x9C9
     c1c: 01 54 07 d2                  	addl	%edx, -46(%edi,%eax)
     c20: 00 00                        	addb	%al, (%eax)
     c22: 00 b0 09 00 00 c6            	addb	%dh, -973078519(%eax)
     c28: 00 00                        	addb	%al, (%eax)
     c2a: 00 01                        	addb	%al, (%ecx)
     c2c: 9c                           	pushfl
     c2d: 7b 02                        	jnp	0xc31 <.debug_info+0xc31>
     c2f: 00 00                        	addb	%al, (%eax)
     c31: 0b 1b                        	orl	(%ebx), %ebx
     c33: 0c 00                        	orb	$0, %al
     c35: 00 01                        	addb	%al, (%ecx)
     c37: 54                           	pushl	%esp
     c38: 26 bf 01 00 00 02            	movl	$33554433, %edi         # imm = 0x2000001
     c3e: 91                           	xchgl	%ecx, %eax
     c3f: 00 0b                        	addb	%cl, (%ebx)
     c41: 34 0c                        	xorb	$12, %al
     c43: 00 00                        	addb	%al, (%eax)
     c45: 01 54 33 44                  	addl	%edx, 68(%ebx,%esi)
     c49: 00 00                        	addb	%al, (%eax)
     c4b: 00 02                        	addb	%al, (%edx)
     c4d: 91                           	xchgl	%ecx, %eax
     c4e: 04 09                        	addb	$9, %al
     c50: e9 0a 00 00 01               	jmp	0x1000c5f <.debug_info+0x1000c5f>
     c55: 55                           	pushl	%ebp
     c56: 0a 44 00 00                  	orb	(%eax,%eax), %al
     c5a: 00 02                        	addb	%al, (%edx)
     c5c: 91                           	xchgl	%ecx, %eax
     c5d: 70 0e                        	jo	0xc6d <.debug_info+0xc6d>
     c5f: ec                           	inb	%dx, %al
     c60: 09 00                        	orl	%eax, (%eax)
     c62: 00 49 00                     	addb	%cl, (%ecx)
     c65: 00 00                        	addb	%al, (%eax)
     c67: 0f 69 00                     	punpckhwd	(%eax), %mm0    # mm0 = mm0[2],mem[2],mm0[3],mem[3]
     c6a: 01 5c 0f 44                  	addl	%ebx, 68(%edi,%ecx)
     c6e: 00 00                        	addb	%al, (%eax)
     c70: 00 02                        	addb	%al, (%edx)
     c72: 91                           	xchgl	%ecx, %eax
     c73: 74 00                        	je	0xc75 <.debug_info+0xc75>
     c75: 00 10                        	addb	%dl, (%eax)
     c77: 3b 0a                        	cmpl	(%edx), %ecx
     c79: 00 00                        	addb	%al, (%eax)
     c7b: 01 3a                        	addl	%edi, (%edx)
     c7d: 0f 44 00                     	cmovel	(%eax), %eax
     c80: 00 00                        	addb	%al, (%eax)
     c82: 10 09                        	adcb	%cl, (%ecx)
     c84: 00 00                        	addb	%al, (%eax)
     c86: 96                           	xchgl	%esi, %eax
     c87: 00 00                        	addb	%al, (%eax)
     c89: 00 01                        	addb	%al, (%ecx)
     c8b: 9c                           	pushfl
     c8c: f8                           	clc
     c8d: 02 00                        	addb	(%eax), %al
     c8f: 00 0b                        	addb	%cl, (%ebx)
     c91: 1b 0c 00                     	sbbl	(%eax,%eax), %ecx
     c94: 00 01                        	addb	%al, (%ecx)
     c96: 3a 31                        	cmpb	(%ecx), %dh
     c98: bf 01 00 00 02               	movl	$33554433, %edi         # imm = 0x2000001
     c9d: 91                           	xchgl	%ecx, %eax
     c9e: 00 0b                        	addb	%cl, (%ebx)
     ca0: 93                           	xchgl	%ebx, %eax
     ca1: 0a 00                        	orb	(%eax), %al
     ca3: 00 01                        	addb	%al, (%ecx)
     ca5: 3a 3e                        	cmpb	(%esi), %bh
     ca7: 44                           	incl	%esp
     ca8: 00 00                        	addb	%al, (%eax)
     caa: 00 02                        	addb	%al, (%edx)
     cac: 91                           	xchgl	%ecx, %eax
     cad: 04 09                        	addb	$9, %al
     caf: e9 0a 00 00 01               	jmp	0x1000cbe <.debug_info+0x1000cbe>
     cb4: 3b 0a                        	cmpl	(%edx), %ecx
     cb6: 44                           	incl	%esp
     cb7: 00 00                        	addb	%al, (%eax)
     cb9: 00 02                        	addb	%al, (%edx)
     cbb: 91                           	xchgl	%ecx, %eax
     cbc: 78 09                        	js	0xcc7 <.debug_info+0xcc7>
     cbe: a6                           	cmpsb	%es:(%edi), (%esi)
     cbf: 0a 00                        	orb	(%eax), %al
     cc1: 00 01                        	addb	%al, (%ecx)
     cc3: 3c 0a                        	cmpb	$10, %al
     cc5: 44                           	incl	%esp
     cc6: 00 00                        	addb	%al, (%eax)
     cc8: 00 02                        	addb	%al, (%edx)
     cca: 91                           	xchgl	%ecx, %eax
     ccb: 74 09                        	je	0xcd6 <.debug_info+0xcd6>
     ccd: a0 0a 00 00 01               	movb	16777226, %al
     cd2: 3e 16                        	pushl	%ss
     cd4: cc                           	int3
     cd5: 00 00                        	addb	%al, (%eax)
     cd7: 00 02                        	addb	%al, (%edx)
     cd9: 91                           	xchgl	%ecx, %eax
     cda: 6c                           	insb	%dx, %es:(%edi)
     cdb: 0e                           	pushl	%cs
     cdc: 2c 09                        	subb	$9, %al
     cde: 00 00                        	addb	%al, (%eax)
     ce0: 64 00 00                     	addb	%al, %fs:(%eax)
     ce3: 00 0f                        	addb	%cl, (%edi)
     ce5: 69 00 01 3f 0f 44            	imull	$1141849857, (%eax), %eax # imm = 0x440F3F01
     ceb: 00 00                        	addb	%al, (%eax)
     ced: 00 02                        	addb	%al, (%edx)
     cef: 91                           	xchgl	%ecx, %eax
     cf0: 70 00                        	jo	0xcf2 <.debug_info+0xcf2>
     cf2: 00 11                        	addb	%dl, (%ecx)
     cf4: 5a                           	popl	%edx
     cf5: 0a 00                        	orb	(%eax), %al
     cf7: 00 01                        	addb	%al, (%ecx)
     cf9: 36 0e                        	pushl	%cs
     cfb: 25 00 00 00 f0               	andl	$4026531840, %eax       # imm = 0xF0000000
     d00: 08 00                        	orb	%al, (%eax)
     d02: 00 15 00 00 00 01            	addb	%dl, 16777216
     d08: 9c                           	pushfl
     d09: 22 03                        	andb	(%ebx), %al
     d0b: 00 00                        	addb	%al, (%eax)
     d0d: 0b 35 0a 00 00 01            	orl	16777226, %esi
     d13: 36 39 6a 00                  	cmpl	%ebp, %ss:(%edx)
     d17: 00 00                        	addb	%al, (%eax)
     d19: 02 91 78 00 11 0b            	addb	185663608(%ecx), %dl
     d1f: 0b 00                        	orl	(%eax), %eax
     d21: 00 01                        	addb	%al, (%ecx)
     d23: 2e 0f 44 00                  	cmovel	%cs:(%eax), %eax
     d27: 00 00                        	addb	%al, (%eax)
     d29: c0 08 00                     	rorb	$0, (%eax)
     d2c: 00 21                        	addb	%ah, (%ecx)
     d2e: 00 00                        	addb	%al, (%eax)
     d30: 00 01                        	addb	%al, (%ecx)
     d32: 9c                           	pushfl
     d33: 4c                           	decl	%esp
     d34: 03 00                        	addl	(%eax), %eax
     d36: 00 0b                        	addb	%cl, (%ebx)
     d38: 00 0a                        	addb	%cl, (%edx)
     d3a: 00 00                        	addb	%al, (%eax)
     d3c: 01 2e                        	addl	%ebp, (%esi)
     d3e: 30 44 00 00                  	xorb	%al, (%eax,%eax)
     d42: 00 02                        	addb	%al, (%edx)
     d44: 91                           	xchgl	%ecx, %eax
     d45: 00 00                        	addb	%al, (%eax)
     d47: 0d 70 0c 00 00               	orl	$3184, %eax             # imm = 0xC70
     d4c: 01 16                        	addl	%edx, (%esi)
     d4e: 05 c1 03 00 00               	addl	$961, %eax              # imm = 0x3C1
     d53: 10 08                        	adcb	%cl, (%eax)
     d55: 00 00                        	addb	%al, (%eax)
     d57: ae                           	scasb	%es:(%edi), %al
     d58: 00 00                        	addb	%al, (%eax)
     d5a: 00 01                        	addb	%al, (%ecx)
     d5c: 9c                           	pushfl
     d5d: c1 03 00                     	roll	$0, (%ebx)
     d60: 00 0b                        	addb	%cl, (%ebx)
     d62: 1b 0c 00                     	sbbl	(%eax,%eax), %ecx
     d65: 00 01                        	addb	%al, (%ecx)
     d67: 16                           	pushl	%ss
     d68: 1e                           	pushl	%ds
     d69: bf 01 00 00 02               	movl	$33554433, %edi         # imm = 0x2000001
     d6e: 91                           	xchgl	%ecx, %eax
     d6f: 00 0b                        	addb	%cl, (%ebx)
     d71: 87 0a                        	xchgl	%ecx, (%edx)
     d73: 00 00                        	addb	%al, (%eax)
     d75: 01 16                        	addl	%edx, (%esi)
     d77: 2a d2                        	subb	%dl, %dl
     d79: 00 00                        	addb	%al, (%eax)
     d7b: 00 02                        	addb	%al, (%edx)
     d7d: 91                           	xchgl	%ecx, %eax
     d7e: 04 0c                        	addb	$12, %al
     d80: 65 6e                        	outsb	%gs:(%esi), %dx
     d82: 64 00 01                     	addb	%al, %fs:(%ecx)
     d85: 16                           	pushl	%ss
     d86: 37                           	aaa
     d87: d2 00                        	rolb	%cl, (%eax)
     d89: 00 00                        	addb	%al, (%eax)
     d8b: 02 91 08 0b a0 0a            	addb	178260744(%ecx), %dl
     d91: 00 00                        	addb	%al, (%eax)
     d93: 01 17                        	addl	%edx, (%edi)
     d95: 24 cc                        	andb	$-52, %al
     d97: 00 00                        	addb	%al, (%eax)
     d99: 00 02                        	addb	%al, (%edx)
     d9b: 91                           	xchgl	%ecx, %eax
     d9c: 0c 0f                        	orb	$15, %al
     d9e: 72 65                        	jb	0xe05 <.debug_info+0xe05>
     da0: 73 00                        	jae	0xda2 <.debug_info+0xda2>
     da2: 01 19                        	addl	%ebx, (%ecx)
     da4: 07                           	popl	%es
     da5: c1 03 00                     	roll	$0, (%ebx)
     da8: 00 02                        	addb	%al, (%edx)
     daa: 91                           	xchgl	%ecx, %eax
     dab: 6c                           	insb	%dx, %es:(%edi)
     dac: 09 f5                        	orl	%esi, %ebp
     dae: 0a 00                        	orb	(%eax), %al
     db0: 00 01                        	addb	%al, (%ecx)
     db2: 28 0a                        	subb	%cl, (%edx)
     db4: 5e                           	popl	%esi
     db5: 00 00                        	addb	%al, (%eax)
     db7: 00 02                        	addb	%al, (%edx)
     db9: 91                           	xchgl	%ecx, %eax
     dba: 68 00 12 04 05               	pushl	$84152832               # imm = 0x5041200
     dbf: 69 6e 74 00 11 d1 0a         	imull	$181473536, 116(%esi), %ebp # imm = 0xAD11100
     dc6: 00 00                        	addb	%al, (%eax)
     dc8: 01 12                        	addl	%edx, (%edx)
     dca: 0c c1                        	orb	$-63, %al
     dcc: 03 00                        	addl	(%eax), %eax
     dce: 00 f0                        	addb	%dh, %al
     dd0: 07                           	popl	%es
     dd1: 00 00                        	addb	%al, (%eax)
     dd3: 12 00                        	adcb	(%eax), %al
     dd5: 00 00                        	addb	%al, (%eax)
     dd7: 01 9c f2 03 00 00 0c         	addl	%ebx, 201326595(%edx,%esi,8)
     dde: 70 74                        	jo	0xe54 <.debug_info+0xe54>
     de0: 72 00                        	jb	0xde2 <.debug_info+0xde2>
     de2: 01 12                        	addl	%edx, (%edx)
     de4: 2a d2                        	subb	%dl, %dl
     de6: 00 00                        	addb	%al, (%eax)
     de8: 00 02                        	addb	%al, (%edx)
     dea: 91                           	xchgl	%ecx, %eax
     deb: 00 00                        	addb	%al, (%eax)
     ded: 13 bd 0c 00 00 01            	adcl	16777228(%ebp), %edi
     df3: 06                           	pushl	%es
     df4: 0c c1                        	orb	$-63, %al
     df6: 03 00                        	addl	(%eax), %eax
     df8: 00 b0 07 00 00 3e            	addb	%dh, 1040187399(%eax)
     dfe: 00 00                        	addb	%al, (%eax)
     e00: 00 01                        	addb	%al, (%ecx)
     e02: 9c                           	pushfl
     e03: 0b 87 0a 00 00 01            	orl	16777226(%edi), %eax
     e09: 06                           	pushl	%es
     e0a: 2b d2                        	subl	%edx, %edx
     e0c: 00 00                        	addb	%al, (%eax)
     e0e: 00 02                        	addb	%al, (%edx)
     e10: 91                           	xchgl	%ecx, %eax
     e11: 00 0c 65 6e 64 00 01         	addb	%cl, 16802926(,%eiz,2)
     e18: 06                           	pushl	%es
     e19: 38 d2                        	cmpb	%dl, %dl
     e1b: 00 00                        	addb	%al, (%eax)
     e1d: 00 02                        	addb	%al, (%edx)
     e1f: 91                           	xchgl	%ecx, %eax
     e20: 04 0b                        	addb	$11, %al
     e22: a0 0a 00 00 01               	movb	16777226, %al
     e27: 07                           	popl	%es
     e28: 38 cc                        	cmpb	%cl, %ah
     e2a: 00 00                        	addb	%al, (%eax)
     e2c: 00 02                        	addb	%al, (%edx)
     e2e: 91                           	xchgl	%ecx, %eax
     e2f: 08 0f                        	orb	%cl, (%edi)
     e31: 72 65                        	jb	0xe98 <.debug_info+0xe98>
     e33: 73 00                        	jae	0xe35 <.debug_info+0xe35>
     e35: 01 08                        	addl	%ecx, (%eax)
     e37: 07                           	popl	%es
     e38: c1 03 00                     	roll	$0, (%ebx)
     e3b: 00 02                        	addb	%al, (%edx)
     e3d: 91                           	xchgl	%ecx, %eax
     e3e: 78 09                        	js	0xe49 <.debug_info+0xe49>
     e40: f5                           	cmc
     e41: 0a 00                        	orb	(%eax), %al
     e43: 00 01                        	addb	%al, (%ecx)
     e45: 0a 0a                        	orb	(%edx), %cl
     e47: 5e                           	popl	%esi
     e48: 00 00                        	addb	%al, (%eax)
     e4a: 00 02                        	addb	%al, (%edx)
     e4c: 91                           	xchgl	%ecx, %eax
     e4d: 74 09                        	je	0xe58 <.debug_info+0xe58>
     e4f: 93                           	xchgl	%ebx, %eax
     e50: 0a 00                        	orb	(%eax), %al
     e52: 00 01                        	addb	%al, (%ecx)
     e54: 0b 0a                        	orl	(%edx), %ecx
     e56: 5e                           	popl	%esi
     e57: 00 00                        	addb	%al, (%eax)
     e59: 00 02                        	addb	%al, (%edx)
     e5b: 91                           	xchgl	%ecx, %eax
     e5c: 70 00                        	jo	0xe5e <.debug_info+0xe5e>
     e5e: 00 d7                        	addb	%dl, %bh
     e60: 01 00                        	addl	%eax, (%eax)
     e62: 00 04 00                     	addb	%al, (%eax,%eax)
     e65: ce                           	into
     e66: 05 00 00 04 01               	addl	$17039360, %eax         # imm = 0x1040000
     e6b: 2f                           	das
     e6c: 0e                           	pushl	%cs
     e6d: 00 00                        	addb	%al, (%eax)
     e6f: 0c 3b                        	orb	$59, %al
     e71: 0d 00 00 d6 0c               	orl	$215351296, %eax        # imm = 0xCD60000
     e76: 00 00                        	addb	%al, (%eax)
     e78: d0 0a                        	rorb	(%edx)
     e7a: 00 00                        	addb	%al, (%eax)
     e7c: 6c                           	insb	%dx, %es:(%edi)
     e7d: 00 00                        	addb	%al, (%eax)
     e7f: 00 78 06                     	addb	%bh, 6(%eax)
     e82: 00 00                        	addb	%al, (%eax)
     e84: 02 35 0d 00 00 02            	addb	33554445, %dh
     e8a: 04 17                        	addb	$23, %al
     e8c: 36 00 00                     	addb	%al, %ss:(%eax)
     e8f: 00 03                        	addb	%al, (%ebx)
     e91: 25 00 00 00 04               	andl	$67108864, %eax         # imm = 0x4000000
     e96: 01 08                        	addl	%ecx, (%eax)
     e98: 7a 0d                        	jp	0xea7 <.debug_info+0xea7>
     e9a: 00 00                        	addb	%al, (%eax)
     e9c: 04 02                        	addb	$2, %al
     e9e: 07                           	popl	%es
     e9f: f3 0d 00 00 04 04            	rep		orl	$67371008, %eax # imm = 0x4040000
     ea5: 07                           	popl	%es
     ea6: 0f 0d 00                     	prefetch	(%eax)
     ea9: 00 04 08                     	addb	%al, (%eax,%ecx)
     eac: 07                           	popl	%es
     ead: 55                           	pushl	%ebp
     eae: 0d 00 00 02 24               	orl	$604110848, %eax        # imm = 0x24020000
     eb3: 0d 00 00 02 08               	orl	$134348800, %eax        # imm = 0x8020000
     eb8: 16                           	pushl	%ss
     eb9: 44                           	incl	%esp
     eba: 00 00                        	addb	%al, (%eax)
     ebc: 00 02                        	addb	%al, (%edx)
     ebe: f8                           	clc
     ebf: 0e                           	pushl	%cs
     ec0: 00 00                        	addb	%al, (%eax)
     ec2: 03 1d 17 36 00 00            	addl	13847, %ebx
     ec8: 00 05 a2 0d 00 00            	addb	%al, 3490
     ece: 08 03                        	orb	%al, (%ebx)
     ed0: 1f                           	popl	%ds
     ed1: 08 92 00 00 00 06            	orb	%dl, 100663296(%edx)
     ed7: 1c 0d                        	sbbb	$13, %al
     ed9: 00 00                        	addb	%al, (%eax)
     edb: 03 23                        	addl	(%ebx), %esp
     edd: 1b 92 00 00 00 00            	sbbl	(%edx), %edx
     ee3: 06                           	pushl	%es
     ee4: 0f 0f 00 00                  	<unknown>
     ee8: 03 24 0a                     	addl	(%edx,%ecx), %esp
     eeb: 52                           	pushl	%edx
     eec: 00 00                        	addb	%al, (%eax)
     eee: 00 04 00                     	addb	%al, (%eax,%eax)
     ef1: 07                           	popl	%es
     ef2: 04 5e                        	addb	$94, %al
     ef4: 00 00                        	addb	%al, (%eax)
     ef6: 00 05 75 0d 00 00            	addb	%al, 3445
     efc: 08 03                        	orb	%al, (%ebx)
     efe: 27                           	daa
     eff: 08 c0                        	orb	%al, %al
     f01: 00 00                        	addb	%al, (%eax)
     f03: 00 06                        	addb	%al, (%esi)
     f05: 29 0e                        	subl	%ecx, (%esi)
     f07: 00 00                        	addb	%al, (%eax)
     f09: 03 28                        	addl	(%eax), %ebp
     f0b: 16                           	pushl	%ss
     f0c: c0 00 00                     	rolb	$0, (%eax)
     f0f: 00 00                        	addb	%al, (%eax)
     f11: 06                           	pushl	%es
     f12: 01 0d 00 00 03 29            	addl	%ecx, 688062464
     f18: 09 c6                        	orl	%eax, %esi
     f1a: 00 00                        	addb	%al, (%eax)
     f1c: 00 04 00                     	addb	%al, (%eax,%eax)
     f1f: 07                           	popl	%es
     f20: 04 6a                        	addb	$106, %al
     f22: 00 00                        	addb	%al, (%eax)
     f24: 00 08                        	addb	%cl, (%eax)
     f26: 04 02                        	addb	$2, %al
     f28: ad                           	lodsl	(%esi), %eax
     f29: 0d 00 00 04 09               	orl	$151257088, %eax        # imm = 0x9040000
     f2e: 0f 25                        	<unknown>
     f30: 00 00                        	addb	%al, (%eax)
     f32: 00 03                        	addb	%al, (%ebx)
     f34: c8 00 00 00                  	enter	$0, $0
     f38: 05 e0 0d 00 00               	addl	$3552, %eax             # imm = 0xDE0
     f3d: 03 04 0b                     	addl	(%ebx,%ecx), %eax
     f40: 10 0e                        	adcb	%cl, (%esi)
     f42: 01 00                        	addl	%eax, (%eax)
     f44: 00 06                        	addb	%al, (%esi)
     f46: 13 0e                        	adcl	(%esi), %ecx
     f48: 00 00                        	addb	%al, (%eax)
     f4a: 04 0c                        	addb	$12, %al
     f4c: 0d c8 00 00 00               	orl	$200, %eax
     f51: 00 06                        	addb	%al, (%esi)
     f53: c9                           	leave
     f54: 0d 00 00 04 0d               	orl	$218365952, %eax        # imm = 0xD040000
     f59: 09 25 00 00 00 01            	orl	%esp, 16777216
     f5f: 06                           	pushl	%es
     f60: 06                           	pushl	%es
     f61: 0e                           	pushl	%cs
     f62: 00 00                        	addb	%al, (%eax)
     f64: 04 0e                        	addb	$14, %al
     f66: 09 25 00 00 00 02            	orl	%esp, 33554432
     f6c: 00 09                        	addb	%cl, (%ecx)
     f6e: e9 0d 00 00 04               	jmp	0x4000f80 <.debug_info+0x4000f80>
     f73: 11 18                        	adcl	%ebx, (%eax)
     f75: d4 00                        	aam	$0
     f77: 00 00                        	addb	%al, (%eax)
     f79: 05 03 83 04 00               	addl	$295683, %eax           # imm = 0x48303
     f7e: 00 09                        	addb	%cl, (%ecx)
     f80: 6c                           	insb	%dx, %es:(%edi)
     f81: 0d 00 00 04 12               	orl	$302252032, %eax        # imm = 0x12040000
     f86: 18 d4                        	sbbb	%dl, %ah
     f88: 00 00                        	addb	%al, (%eax)
     f8a: 00 05 03 84 04 00            	addb	%al, 295939
     f90: 00 09                        	addb	%cl, (%ecx)
     f92: 2b 0d 00 00 04 13            	subl	319029248, %ecx
     f98: 18 d4                        	sbbb	%dl, %ah
     f9a: 00 00                        	addb	%al, (%eax)
     f9c: 00 05 03 85 04 00            	addb	%al, 296195
     fa2: 00 09                        	addb	%cl, (%ecx)
     fa4: 88 0d 00 00 04 14            	movb	%cl, 335806464
     faa: 14 31                        	adcb	$49, %al
     fac: 00 00                        	addb	%al, (%eax)
     fae: 00 05 03 86 04 00            	addb	%al, 296451
     fb4: 00 09                        	addb	%cl, (%ecx)
     fb6: d6                           	salc
     fb7: 0d 00 00 04 15               	orl	$352583680, %eax        # imm = 0x15040000
     fbc: 14 31                        	adcb	$49, %al
     fbe: 00 00                        	addb	%al, (%eax)
     fc0: 00 05 03 87 04 00            	addb	%al, 296707
     fc6: 00 09                        	addb	%cl, (%ecx)
     fc8: 97                           	xchgl	%edi, %eax
     fc9: 0d 00 00 04 17               	orl	$386138112, %eax        # imm = 0x17040000
     fce: 18 d9                        	sbbb	%bl, %cl
     fd0: 00 00                        	addb	%al, (%eax)
     fd2: 00 05 03 06 00 00            	addb	%al, 1539
     fd8: 00 0a                        	addb	%cl, (%edx)
     fda: ec                           	inb	%dx, %al
     fdb: 0e                           	pushl	%cs
     fdc: 00 00                        	addb	%al, (%eax)
     fde: 01 05 0d 98 00 00            	addl	%eax, 38925
     fe4: 00 05 03 00 00 00            	addb	%al, 3
     fea: 00 0a                        	addb	%cl, (%edx)
     fec: b7 0d                        	movb	$13, %bh
     fee: 00 00                        	addb	%al, (%eax)
     ff0: 01 06                        	addl	%eax, (%esi)
     ff2: 13 6a 00                     	adcl	(%edx), %ebp
     ff5: 00 00                        	addb	%al, (%eax)
     ff7: 05 03 00 00 00               	addl	$3, %eax
     ffc: 00 0b                        	addb	%cl, (%ebx)
     ffe: 1e                           	pushl	%ds
     fff: 0e                           	pushl	%cs
    1000: 00 00                        	addb	%al, (%eax)
    1002: 01 08                        	addl	%ecx, (%eax)
    1004: 06                           	pushl	%es
    1005: d0 0a                        	rorb	(%edx)
    1007: 00 00                        	addb	%al, (%eax)
    1009: 6c                           	insb	%dx, %es:(%edi)
    100a: 00 00                        	addb	%al, (%eax)
    100c: 00 01                        	addb	%al, (%ecx)
    100e: 9c                           	pushfl
    100f: d3 01                        	roll	%cl, (%ecx)
    1011: 00 00                        	addb	%al, (%eax)
    1013: 0c 65                        	orb	$101, %al
    1015: 6e                           	outsb	(%esi), %dx
    1016: 64 00 01                     	addb	%al, %fs:(%ecx)
    1019: 0e                           	pushl	%cs
    101a: 09 c6                        	orl	%eax, %esi
    101c: 00 00                        	addb	%al, (%eax)
    101e: 00 02                        	addb	%al, (%edx)
    1020: 91                           	xchgl	%ecx, %eax
    1021: 6c                           	insb	%dx, %es:(%edi)
    1022: 0c 72                        	orb	$114, %al
    1024: 65 73 00                     	jae	0x1027 <.debug_info+0x1027>
    1027: 01 10                        	addl	%edx, (%eax)
    1029: 07                           	popl	%es
    102a: d3 01                        	roll	%cl, (%ecx)
    102c: 00 00                        	addb	%al, (%eax)
    102e: 02 91 68 00 0d 04            	addb	67960936(%ecx), %dl
    1034: 05 69 6e 74 00               	addl	$7630441, %eax          # imm = 0x746E69
    1039: 00 cc                        	addb	%cl, %ah
    103b: 00 00                        	addb	%al, (%eax)
    103d: 00 04 00                     	addb	%al, (%eax,%eax)
    1040: 8f 06                        	popl	(%esi)
    1042: 00 00                        	addb	%al, (%eax)
    1044: 04 01                        	addb	$1, %al
    1046: 96                           	xchgl	%esi, %eax
    1047: 0f 00 00                     	sldtw	(%eax)
    104a: 0c 68                        	orb	$104, %al
    104c: 10 00                        	adcb	%al, (%eax)
    104e: 00 36                        	addb	%dh, (%esi)
    1050: 0f 00 00                     	sldtw	(%eax)
    1053: 40                           	incl	%eax
    1054: 0b 00                        	orl	(%eax), %eax
    1056: 00 3c 00                     	addb	%bh, (%eax,%eax)
    1059: 00 00                        	addb	%al, (%eax)
    105b: 1b 07                        	sbbl	(%edi), %eax
    105d: 00 00                        	addb	%al, (%eax)
    105f: 02 01                        	addb	(%ecx), %al
    1061: 08 53 10                     	orb	%dl, 16(%ebx)
    1064: 00 00                        	addb	%al, (%eax)
    1066: 02 02                        	addb	(%edx), %al
    1068: 07                           	popl	%es
    1069: 61                           	popal
    106a: 0f 00 00                     	sldtw	(%eax)
    106d: 02 04 07                     	addb	(%edi,%eax), %al
    1070: 22 0f                        	andb	(%edi), %cl
    1072: 00 00                        	addb	%al, (%eax)
    1074: 02 08                        	addb	(%eax), %cl
    1076: 07                           	popl	%es
    1077: 7f 0f                        	jg	0x1088 <.debug_info+0x1088>
    1079: 00 00                        	addb	%al, (%eax)
    107b: 03 2f                        	addl	(%edi), %ebp
    107d: 0f 00 00                     	sldtw	(%eax)
    1080: 02 08                        	addb	(%eax), %cl
    1082: 16                           	pushl	%ss
    1083: 33 00                        	xorl	(%eax), %eax
    1085: 00 00                        	addb	%al, (%eax)
    1087: 04 61                        	addb	$97, %al
    1089: 10 00                        	adcb	%al, (%eax)
    108b: 00 01                        	addb	%al, (%ecx)
    108d: 05 07 b9 00 00               	addl	$47367, %eax            # imm = 0xB907
    1092: 00 40 0b                     	addb	%al, 11(%eax)
    1095: 00 00                        	addb	%al, (%eax)
    1097: 3c 00                        	cmpb	$0, %al
    1099: 00 00                        	addb	%al, (%eax)
    109b: 01 9c b9 00 00 00 05         	addl	%ebx, 83886080(%ecx,%edi,4)
    10a2: 70 74                        	jo	0x1118 <.debug_info+0x1118>
    10a4: 72 00                        	jb	0x10a6 <.debug_info+0x10a6>
    10a6: 01 05 14 b9 00 00            	addl	%eax, 47380
    10ac: 00 02                        	addb	%al, (%edx)
    10ae: 91                           	xchgl	%ecx, %eax
    10af: 00 05 63 00 01 05            	addb	%al, 83951715
    10b5: 1d bb 00 00 00               	sbbl	$187, %eax
    10ba: 02 91 04 06 1d 0f            	addb	253560324(%ecx), %dl
    10c0: 00 00                        	addb	%al, (%eax)
    10c2: 01 05 27 41 00 00            	addl	%eax, 16679
    10c8: 00 02                        	addb	%al, (%edx)
    10ca: 91                           	xchgl	%ecx, %eax
    10cb: 08 07                        	orb	%al, (%edi)
    10cd: 74 0f                        	je	0x10de <.debug_info+0x10de>
    10cf: 00 00                        	addb	%al, (%eax)
    10d1: 01 07                        	addl	%eax, (%edi)
    10d3: 09 c2                        	orl	%eax, %edx
    10d5: 00 00                        	addb	%al, (%eax)
    10d7: 00 02                        	addb	%al, (%edx)
    10d9: 91                           	xchgl	%ecx, %eax
    10da: 74 08                        	je	0x10e4 <.debug_info+0x10e4>
    10dc: 4b                           	decl	%ebx
    10dd: 0b 00                        	orl	(%eax), %eax
    10df: 00 29                        	addb	%ch, (%ecx)
    10e1: 00 00                        	addb	%al, (%eax)
    10e3: 00 09                        	addb	%cl, (%ecx)
    10e5: 69 00 01 08 0f 41            	imull	$1091504129, (%eax), %eax # imm = 0x410F0801
    10eb: 00 00                        	addb	%al, (%eax)
    10ed: 00 02                        	addb	%al, (%edx)
    10ef: 91                           	xchgl	%ecx, %eax
    10f0: 78 00                        	js	0x10f2 <.debug_info+0x10f2>
    10f2: 00 0a                        	addb	%cl, (%edx)
    10f4: 04 0b                        	addb	$11, %al
    10f6: 04 05                        	addb	$5, %al
    10f8: 69 6e 74 00 0c 04 c8         	imull	$3355708416, 116(%esi), %ebp # imm = 0xC8040C00
    10ff: 00 00                        	addb	%al, (%eax)
    1101: 00 02                        	addb	%al, (%edx)
    1103: 01 06                        	addl	%eax, (%esi)
    1105: 7a 0f                        	jp	0x1116 <.debug_info+0x1116>
    1107: 00 00                        	addb	%al, (%eax)
    1109: 00 95 00 00 00 04            	addb	%dl, 67108864(%ebp)
    110f: 00 43 07                     	addb	%al, 7(%ebx)
    1112: 00 00                        	addb	%al, (%eax)
    1114: 04 01                        	addb	$1, %al
    1116: 13 11                        	adcl	(%ecx), %edx
    1118: 00 00                        	addb	%al, (%eax)
    111a: 0c c9                        	orb	$-55, %al
    111c: 10 00                        	adcb	%al, (%eax)
    111e: 00 9e 10 00 00 80            	addb	%bl, -2147483632(%esi)
    1124: 0b 00                        	orl	(%eax), %eax
    1126: 00 2b                        	addb	%ch, (%ebx)
    1128: 00 00                        	addb	%al, (%eax)
    112a: 00 ac 07 00 00 02 01         	addb	%ch, 16908288(%edi,%eax)
    1131: 08 d0                        	orb	%dl, %al
    1133: 11 00                        	adcl	%eax, (%eax)
    1135: 00 02                        	addb	%al, (%edx)
    1137: 02 07                        	addb	(%edi), %al
    1139: e4 10                        	inb	$16, %al
    113b: 00 00                        	addb	%al, (%eax)
    113d: 02 04 07                     	addb	(%edi,%eax), %al
    1140: 83 10 00                     	adcl	$0, (%eax)
    1143: 00 02                        	addb	%al, (%edx)
    1145: 08 07                        	orb	%al, (%edi)
    1147: fc                           	cld
    1148: 10 00                        	adcb	%al, (%eax)
    114a: 00 03                        	addb	%al, (%ebx)
    114c: 97                           	xchgl	%edi, %eax
    114d: 10 00                        	adcb	%al, (%eax)
    114f: 00 02                        	addb	%al, (%edx)
    1151: 08 16                        	orb	%dl, (%esi)
    1153: 33 00                        	xorl	(%eax), %eax
    1155: 00 00                        	addb	%al, (%eax)
    1157: 04 90                        	addb	$-112, %al
    1159: 10 00                        	adcb	%al, (%eax)
    115b: 00 01                        	addb	%al, (%ecx)
    115d: 03 08                        	addl	(%eax), %ecx
    115f: 41                           	incl	%ecx
    1160: 00 00                        	addb	%al, (%eax)
    1162: 00 80 0b 00 00 2b            	addb	%al, 721420299(%eax)
    1168: 00 00                        	addb	%al, (%eax)
    116a: 00 01                        	addb	%al, (%ecx)
    116c: 9c                           	pushfl
    116d: 86 00                        	xchgb	%al, (%eax)
    116f: 00 00                        	addb	%al, (%eax)
    1171: 05 de 11 00 00               	addl	$4574, %eax             # imm = 0x11DE
    1176: 01 03                        	addl	%eax, (%ebx)
    1178: 1b 86 00 00 00 02            	sbbl	33554432(%esi), %eax
    117e: 91                           	xchgl	%ecx, %eax
    117f: 00 06                        	addb	%al, (%esi)
    1181: 6c                           	insb	%dx, %es:(%edi)
    1182: 65 6e                        	outsb	%gs:(%esi), %dx
    1184: 00 01                        	addb	%al, (%ecx)
    1186: 05 0a 41 00 00               	addl	$16650, %eax            # imm = 0x410A
    118b: 00 02                        	addb	%al, (%edx)
    118d: 91                           	xchgl	%ecx, %eax
    118e: 78 00                        	js	0x1190 <.debug_info+0x1190>
    1190: 07                           	popl	%es
    1191: 04 93                        	addb	$-109, %al
    1193: 00 00                        	addb	%al, (%eax)
    1195: 00 02                        	addb	%al, (%edx)
    1197: 01 06                        	addl	%eax, (%esi)
    1199: f7 10                        	notl	(%eax)
    119b: 00 00                        	addb	%al, (%eax)
    119d: 08 8c 00 00 00 00 20         	orb	%cl, 536870912(%eax,%eax)
    11a4: 03 00                        	addl	(%eax), %eax
    11a6: 00 04 00                     	addb	%al, (%eax,%eax)
    11a9: c1 07 00                     	roll	$0, (%edi)
    11ac: 00 04 01                     	addb	%al, (%ecx,%eax)
    11af: 8a 14 00                     	movb	(%eax,%eax), %dl
    11b2: 00 0c f9                     	addb	%cl, (%ecx,%edi,8)
    11b5: 13 00                        	adcl	(%eax), %eax
    11b7: 00 e6                        	addb	%ah, %dh
    11b9: 12 00                        	adcb	(%eax), %al
    11bb: 00 b0 0b 00 00 a4            	addb	%dh, -1543503861(%eax)
    11c1: 02 00                        	addb	(%eax), %al
    11c3: 00 27                        	addb	%ah, (%edi)
    11c5: 08 00                        	orb	%al, (%eax)
    11c7: 00 02                        	addb	%al, (%edx)
    11c9: 57                           	pushl	%edi
    11ca: 13 00                        	adcl	(%eax), %eax
    11cc: 00 02                        	addb	%al, (%edx)
    11ce: 04 17                        	addb	$23, %al
    11d0: 36 00 00                     	addb	%al, %ss:(%eax)
    11d3: 00 03                        	addb	%al, (%ebx)
    11d5: 25 00 00 00 04               	andl	$67108864, %eax         # imm = 0x4000000
    11da: 01 08                        	addl	%ecx, (%eax)
    11dc: c4 13                        	lesl	(%ebx), %edx
    11de: 00 00                        	addb	%al, (%eax)
    11e0: 02 47 15                     	addb	21(%edi), %al
    11e3: 00 00                        	addb	%al, (%eax)
    11e5: 02 05 18 49 00 00            	addb	18712, %al
    11eb: 00 04 02                     	addb	%al, (%edx,%eax)
    11ee: 07                           	popl	%es
    11ef: 4d                           	decl	%ebp
    11f0: 14 00                        	adcb	$0, %al
    11f2: 00 04 04                     	addb	%al, (%esp,%eax)
    11f5: 07                           	popl	%es
    11f6: 11 13                        	adcl	%edx, (%ebx)
    11f8: 00 00                        	addb	%al, (%eax)
    11fa: 04 08                        	addb	$8, %al
    11fc: 07                           	popl	%es
    11fd: 73 13                        	jae	0x1212 <.debug_info+0x1212>
    11ff: 00 00                        	addb	%al, (%eax)
    1201: 02 28                        	addb	(%eax), %ch
    1203: 13 00                        	adcl	(%eax), %eax
    1205: 00 02                        	addb	%al, (%edx)
    1207: 08 16                        	orb	%dl, (%esi)
    1209: 50                           	pushl	%eax
    120a: 00 00                        	addb	%al, (%eax)
    120c: 00 02                        	addb	%al, (%edx)
    120e: 4e                           	decl	%esi
    120f: 15 00 00 03 09               	adcl	$151191552, %eax        # imm = 0x9030000
    1214: 0f 25                        	<unknown>
    1216: 00 00                        	addb	%al, (%eax)
    1218: 00 03                        	addb	%al, (%ebx)
    121a: 6a 00                        	pushl	$0
    121c: 00 00                        	addb	%al, (%eax)
    121e: 05 3a 14 00 00               	addl	$5178, %eax             # imm = 0x143A
    1223: 03 03                        	addl	(%ebx), %eax
    1225: 0b 10                        	orl	(%eax), %edx
    1227: b0 00                        	movb	$0, %al
    1229: 00 00                        	addb	%al, (%eax)
    122b: 06                           	pushl	%es
    122c: 6d                           	insl	%dx, %es:(%edi)
    122d: 14 00                        	adcb	$0, %al
    122f: 00 03                        	addb	%al, (%ebx)
    1231: 0c 0d                        	orb	$13, %al
    1233: 6a 00                        	pushl	$0
    1235: 00 00                        	addb	%al, (%eax)
    1237: 00 06                        	addb	%al, (%esi)
    1239: 23 14 00                     	andl	(%eax,%eax), %edx
    123c: 00 03                        	addb	%al, (%ebx)
    123e: 0d 09 25 00 00               	orl	$9481, %eax             # imm = 0x2509
    1243: 00 01                        	addb	%al, (%ecx)
    1245: 06                           	pushl	%es
    1246: 60                           	pushal
    1247: 14 00                        	adcb	$0, %al
    1249: 00 03                        	addb	%al, (%ebx)
    124b: 0e                           	pushl	%cs
    124c: 09 25 00 00 00 02            	orl	%esp, 33554432
    1252: 00 02                        	addb	%al, (%edx)
    1254: 3a 14 00                     	cmpb	(%eax,%eax), %dl
    1257: 00 03                        	addb	%al, (%ebx)
    1259: 0f 03 7b 00                  	lsll	(%ebx), %edi
    125d: 00 00                        	addb	%al, (%eax)
    125f: 07                           	popl	%es
    1260: 43                           	incl	%ebx
    1261: 14 00                        	adcb	$0, %al
    1263: 00 03                        	addb	%al, (%ebx)
    1265: 11 18                        	adcl	%ebx, (%eax)
    1267: 76 00                        	jbe	0x1269 <.debug_info+0x1269>
    1269: 00 00                        	addb	%al, (%eax)
    126b: 05 03 b3 04 00               	addl	$307971, %eax           # imm = 0x4B303
    1270: 00 07                        	addb	%al, (%edi)
    1272: a2 13 00 00 03               	movb	%al, 50331667
    1277: 12 18                        	adcb	(%eax), %bl
    1279: 76 00                        	jbe	0x127b <.debug_info+0x127b>
    127b: 00 00                        	addb	%al, (%eax)
    127d: 05 03 b4 04 00               	addl	$308227, %eax           # imm = 0x4B403
    1282: 00 07                        	addb	%al, (%edi)
    1284: 4d                           	decl	%ebp
    1285: 13 00                        	adcl	(%eax), %eax
    1287: 00 03                        	addb	%al, (%ebx)
    1289: 13 18                        	adcl	(%eax), %ebx
    128b: 76 00                        	jbe	0x128d <.debug_info+0x128d>
    128d: 00 00                        	addb	%al, (%eax)
    128f: 05 03 b5 04 00               	addl	$308483, %eax           # imm = 0x4B503
    1294: 00 07                        	addb	%al, (%edi)
    1296: d2 13                        	rclb	%cl, (%ebx)
    1298: 00 00                        	addb	%al, (%eax)
    129a: 03 14 14                     	addl	(%esp,%edx), %edx
    129d: 31 00                        	xorl	%eax, (%eax)
    129f: 00 00                        	addb	%al, (%eax)
    12a1: 05 03 b6 04 00               	addl	$308739, %eax           # imm = 0x4B603
    12a6: 00 07                        	addb	%al, (%edi)
    12a8: 30 14 00                     	xorb	%dl, (%eax,%eax)
    12ab: 00 03                        	addb	%al, (%ebx)
    12ad: 15 14 31 00 00               	adcl	$12564, %eax            # imm = 0x3114
    12b2: 00 05 03 b7 04 00            	addb	%al, 308995
    12b8: 00 07                        	addb	%al, (%edi)
    12ba: 0e                           	pushl	%cs
    12bb: 14 00                        	adcb	$0, %al
    12bd: 00 03                        	addb	%al, (%ebx)
    12bf: 17                           	popl	%ss
    12c0: 18 7b 00                     	sbbb	%bh, (%ebx)
    12c3: 00 00                        	addb	%al, (%eax)
    12c5: 05 03 09 00 00               	addl	$2307, %eax             # imm = 0x903
    12ca: 00 08                        	addb	%cl, (%eax)
    12cc: 5d                           	popl	%ebp
    12cd: 13 00                        	adcl	(%eax), %eax
    12cf: 00 01                        	addb	%al, (%ecx)
    12d1: 04 09                        	addb	$9, %al
    12d3: 3a 01                        	cmpb	(%ecx), %al
    12d5: 00 00                        	addb	%al, (%eax)
    12d7: 05 03 00 00 00               	addl	$3, %eax
    12dc: 00 09                        	addb	%cl, (%ecx)
    12de: 04 3d                        	addb	$61, %al
    12e0: 00 00                        	addb	%al, (%eax)
    12e2: 00 0a                        	addb	%cl, (%edx)
    12e4: 2f                           	das
    12e5: 13 00                        	adcl	(%eax), %eax
    12e7: 00 01                        	addb	%al, (%ecx)
    12e9: 38 06                        	cmpb	%al, (%esi)
    12eb: 20 0e                        	andb	%cl, (%esi)
    12ed: 00 00                        	addb	%al, (%eax)
    12ef: 34 00                        	xorb	$0, %al
    12f1: 00 00                        	addb	%al, (%eax)
    12f3: 01 9c 66 01 00 00 0b         	addl	%ebx, 184549377(%esi,%eiz,2)
    12fa: 19 14 00                     	sbbl	%edx, (%eax,%eax)
    12fd: 00 01                        	addb	%al, (%ecx)
    12ff: 38 1d 25 00 00 00            	cmpb	%bl, 37
    1305: 02 91 6c 00 0a 78            	addb	2013921388(%ecx), %dl
    130b: 14 00                        	adcb	$0, %al
    130d: 00 01                        	addb	%al, (%ecx)
    130f: 35 06 00 0e 00               	xorl	$917510, %eax           # imm = 0xE0006
    1314: 00 1c 00                     	addb	%bl, (%eax,%eax)
    1317: 00 00                        	addb	%al, (%eax)
    1319: 01 9c 8a 01 00 00 0c         	addl	%ebx, 201326593(%edx,%ecx,4)
    1320: 73 00                        	jae	0x1322 <.debug_info+0x1322>
    1322: 01 35 24 8a 01 00            	addl	%esi, 100900
    1328: 00 02                        	addb	%al, (%edx)
    132a: 91                           	xchgl	%ecx, %eax
    132b: 00 00                        	addb	%al, (%eax)
    132d: 09 04 97                     	orl	%eax, (%edi,%edx,4)
    1330: 01 00                        	addl	%eax, (%eax)
    1332: 00 04 01                     	addb	%al, (%ecx,%eax)
    1335: 06                           	pushl	%es
    1336: e1 13                        	loope	0x134b <.debug_info+0x134b>
    1338: 00 00                        	addb	%al, (%eax)
    133a: 03 90 01 00 00 0d            	addl	218103809(%eax), %edx
    1340: 6a 13                        	pushl	$19
    1342: 00 00                        	addb	%al, (%eax)
    1344: 01 33                        	addl	%esi, (%ebx)
    1346: 06                           	pushl	%es
    1347: e0 0d                        	loopne	0x1356 <.debug_info+0x1356>
    1349: 00 00                        	addb	%al, (%eax)
    134b: 18 00                        	sbbb	%al, (%eax)
    134d: 00 00                        	addb	%al, (%eax)
    134f: 01 9c 0e 8a 13 00 00         	addl	%ebx, 5002(%esi,%ecx)
    1356: 01 2f                        	addl	%ebp, (%edi)
    1358: 08 3d 00 00 00 b0            	orb	%bh, -1342177280
    135e: 0d 00 00 26 00               	orl	$2490368, %eax          # imm = 0x260000
    1363: 00 00                        	addb	%al, (%eax)
    1365: 01 9c e5 01 00 00 0c         	addl	%ebx, 201326593(%ebp,%eiz,8)
    136c: 63 00                        	arpl	%ax, (%eax)
    136e: 01 2f                        	addl	%ebp, (%edi)
    1370: 26 25 00 00 00 02            	andl	$33554432, %eax         # imm = 0x2000000
    1376: 91                           	xchgl	%ecx, %eax
    1377: 78 0b                        	js	0x1384 <.debug_info+0x1384>
    1379: 6d                           	insl	%dx, %es:(%edi)
    137a: 14 00                        	adcb	$0, %al
    137c: 00 01                        	addb	%al, (%ecx)
    137e: 2f                           	das
    137f: 2f                           	das
    1380: 25 00 00 00 02               	andl	$33554432, %eax         # imm = 0x2000000
    1385: 91                           	xchgl	%ecx, %eax
    1386: 74 00                        	je	0x1388 <.debug_info+0x1388>
    1388: 0f e6                        	<unknown>
    138a: 13 00                        	adcl	(%eax), %eax
    138c: 00 01                        	addb	%al, (%ecx)
    138e: 2b 06                        	subl	(%esi), %eax
    1390: 90                           	nop
    1391: 0d 00 00 19 00               	orl	$1638400, %eax          # imm = 0x190000
    1396: 00 00                        	addb	%al, (%eax)
    1398: 01 9c 18 02 00 00 0c         	addl	%ebx, 201326594(%eax,%ebx)
    139f: 74 00                        	je	0x13a1 <.debug_info+0x13a1>
    13a1: 01 2b                        	addl	%ebp, (%ebx)
    13a3: 23 18                        	andl	(%eax), %ebx
    13a5: 02 00                        	addb	(%eax), %al
    13a7: 00 02                        	addb	%al, (%edx)
    13a9: 91                           	xchgl	%ecx, %eax
    13aa: 00 0b                        	addb	%cl, (%ebx)
    13ac: 6d                           	insl	%dx, %es:(%edi)
    13ad: 14 00                        	adcb	$0, %al
    13af: 00 01                        	addb	%al, (%ecx)
    13b1: 2b 30                        	subl	(%eax), %esi
    13b3: 6a 00                        	pushl	$0
    13b5: 00 00                        	addb	%al, (%eax)
    13b7: 02 91 78 00 09 04            	addb	67698808(%ecx), %dl
    13bd: b0 00                        	movb	$0, %al
    13bf: 00 00                        	addb	%al, (%eax)
    13c1: 0a 1e                        	orb	(%esi), %bl
    13c3: 13 00                        	adcl	(%eax), %eax
    13c5: 00 01                        	addb	%al, (%ecx)
    13c7: 25 06 20 0d 00               	andl	$860166, %eax           # imm = 0xD2006
    13cc: 00 64 00 00                  	addb	%ah, (%eax,%eax)
    13d0: 00 01                        	addb	%al, (%ecx)
    13d2: 9c                           	pushfl
    13d3: 66 02 00                     	addb	(%eax), %al
    13d6: 00 0c 74                     	addb	%cl, (%esp,%esi,2)
    13d9: 00 01                        	addb	%al, (%ecx)
    13db: 25 1a 18 02 00               	andl	$137242, %eax           # imm = 0x2181A
    13e0: 00 02                        	addb	%al, (%edx)
    13e2: 91                           	xchgl	%ecx, %eax
    13e3: 00 0c 73                     	addb	%cl, (%ebx,%esi,2)
    13e6: 00 01                        	addb	%al, (%ecx)
    13e8: 25 29 8a 01 00               	andl	$100905, %eax           # imm = 0x18A29
    13ed: 00 02                        	addb	%al, (%edx)
    13ef: 91                           	xchgl	%ecx, %eax
    13f0: 04 10                        	addb	$16, %al
    13f2: 24 0d                        	andb	$13, %al
    13f4: 00 00                        	addb	%al, (%eax)
    13f6: 59                           	popl	%ecx
    13f7: 00 00                        	addb	%al, (%eax)
    13f9: 00 11                        	addb	%dl, (%ecx)
    13fb: 69 00 01 26 0f 5e            	imull	$1578051073, (%eax), %eax # imm = 0x5E0F2601
    1401: 00 00                        	addb	%al, (%eax)
    1403: 00 02                        	addb	%al, (%edx)
    1405: 91                           	xchgl	%ecx, %eax
    1406: 6c                           	insb	%dx, %es:(%edi)
    1407: 00 00                        	addb	%al, (%eax)
    1409: 0a 40 13                     	orb	19(%eax), %al
    140c: 00 00                        	addb	%al, (%eax)
    140e: 01 16                        	addl	%edx, (%esi)
    1410: 06                           	pushl	%es
    1411: 50                           	pushl	%eax
    1412: 0c 00                        	orb	$0, %al
    1414: 00 c3                        	addb	%al, %bl
    1416: 00 00                        	addb	%al, (%eax)
    1418: 00 01                        	addb	%al, (%ecx)
    141a: 9c                           	pushfl
    141b: b1 02                        	movb	$2, %cl
    141d: 00 00                        	addb	%al, (%eax)
    141f: 0c 74                        	orb	$116, %al
    1421: 00 01                        	addb	%al, (%ecx)
    1423: 16                           	pushl	%ss
    1424: 1d 18 02 00 00               	sbbl	$536, %eax              # imm = 0x218
    1429: 02 91 00 0c 63 00            	addb	6491136(%ecx), %dl
    142f: 01 16                        	addl	%edx, (%esi)
    1431: 25 90 01 00 00               	andl	$400, %eax              # imm = 0x190
    1436: 02 91 6c 0c 78 00            	addb	7867500(%ecx), %dl
    143c: 01 16                        	addl	%edx, (%esi)
    143e: 2e 25 00 00 00 02            	andl	$33554432, %eax         # imm = 0x2000000
    1444: 91                           	xchgl	%ecx, %eax
    1445: 68 0c 79 00 01               	pushl	$16808204               # imm = 0x100790C
    144a: 16                           	pushl	%ss
    144b: 37                           	aaa
    144c: 25 00 00 00 02               	andl	$33554432, %eax         # imm = 0x2000000
    1451: 91                           	xchgl	%ecx, %eax
    1452: 64 00 0a                     	addb	%cl, %fs:(%edx)
    1455: ab                           	stosl	%eax, %es:(%edi)
    1456: 13 00                        	adcl	(%eax), %eax
    1458: 00 01                        	addb	%al, (%ecx)
    145a: 0c 06                        	orb	$6, %al
    145c: e0 0b                        	loopne	0x1469 <.debug_info+0x1469>
    145e: 00 00                        	addb	%al, (%eax)
    1460: 66 00 00                     	addb	%al, (%eax)
    1463: 00 01                        	addb	%al, (%ecx)
    1465: 9c                           	pushfl
    1466: 03 03                        	addl	(%ebx), %eax
    1468: 00 00                        	addb	%al, (%eax)
    146a: 0c 74                        	orb	$116, %al
    146c: 00 01                        	addb	%al, (%ecx)
    146e: 0c 1a                        	orb	$26, %al
    1470: 18 02                        	sbbb	%al, (%edx)
    1472: 00 00                        	addb	%al, (%eax)
    1474: 02 91 00 10 e3 0b            	addb	199430144(%ecx), %dl
    147a: 00 00                        	addb	%al, (%eax)
    147c: 4e                           	decl	%esi
    147d: 00 00                        	addb	%al, (%eax)
    147f: 00 11                        	addb	%dl, (%ecx)
    1481: 69 00 01 0d 0e 25            	imull	$621677825, (%eax), %eax # imm = 0x250E0D01
    1487: 00 00                        	addb	%al, (%eax)
    1489: 00 02                        	addb	%al, (%edx)
    148b: 91                           	xchgl	%ecx, %eax
    148c: 6f                           	outsl	(%esi), %dx
    148d: 10 ea                        	adcb	%ch, %dl
    148f: 0b 00                        	orl	(%eax), %eax
    1491: 00 34 00                     	addb	%dh, (%eax,%eax)
    1494: 00 00                        	addb	%al, (%eax)
    1496: 11 6a 00                     	adcl	%ebp, (%edx)
    1499: 01 0e                        	addl	%ecx, (%esi)
    149b: 10 25 00 00 00 02            	adcb	%ah, 33554432
    14a1: 91                           	xchgl	%ecx, %eax
    14a2: 6e                           	outsb	(%esi), %dx
    14a3: 00 00                        	addb	%al, (%eax)
    14a5: 00 12                        	addb	%dl, (%edx)
    14a7: b5 13                        	movb	$19, %ch
    14a9: 00 00                        	addb	%al, (%eax)
    14ab: 01 06                        	addl	%eax, (%esi)
    14ad: 06                           	pushl	%es
    14ae: b0 0b                        	movb	$11, %al
    14b0: 00 00                        	addb	%al, (%eax)
    14b2: 2c 00                        	subb	$0, %al
    14b4: 00 00                        	addb	%al, (%eax)
    14b6: 01 9c 0c 74 00 01 06         	addl	%ebx, 100728948(%esp,%ecx)
    14bd: 1f                           	popl	%ds
    14be: 18 02                        	sbbb	%al, (%edx)
    14c0: 00 00                        	addb	%al, (%eax)
    14c2: 02 91 00 00 00 ed            	addb	-318767104(%ecx), %dl
    14c8: 01 00                        	addl	%eax, (%eax)
    14ca: 00 04 00                     	addb	%al, (%eax,%eax)
    14cd: 09 09                        	orl	%ecx, (%ecx)
    14cf: 00 00                        	addb	%al, (%eax)
    14d1: 04 01                        	addb	$1, %al
    14d3: 83 16 00                     	adcl	$0, (%esi)
    14d6: 00 0c 6f                     	addb	%cl, (%edi,%ebp,2)
    14d9: 16                           	pushl	%ss
    14da: 00 00                        	addb	%al, (%eax)
    14dc: 58                           	popl	%eax
    14dd: 15 00 00 60 0e               	adcl	$241172480, %eax        # imm = 0xE600000
    14e2: 00 00                        	addb	%al, (%eax)
    14e4: 5a                           	popl	%edx
    14e5: 01 00                        	addl	%eax, (%eax)
    14e7: 00 a2 09 00 00 02            	addb	%ah, 33554441(%edx)
    14ed: a8 15                        	testb	$21, %al
    14ef: 00 00                        	addb	%al, (%eax)
    14f1: 01 04 17                     	addl	%eax, (%edi,%edx)
    14f4: 36 00 00                     	addb	%al, %ss:(%eax)
    14f7: 00 03                        	addb	%al, (%ebx)
    14f9: 25 00 00 00 04               	andl	$67108864, %eax         # imm = 0x4000000
    14fe: 01 08                        	addl	%ecx, (%eax)
    1500: ce                           	into
    1501: 15 00 00 04 02               	adcl	$33816576, %eax         # imm = 0x2040000
    1506: 07                           	popl	%es
    1507: 37                           	aaa
    1508: 16                           	pushl	%ss
    1509: 00 00                        	addb	%al, (%eax)
    150b: 02 83 15 00 00 01            	addb	16777237(%ebx), %al
    1511: 06                           	pushl	%es
    1512: 16                           	pushl	%ss
    1513: 50                           	pushl	%eax
    1514: 00 00                        	addb	%al, (%eax)
    1516: 00 04 04                     	addb	%al, (%esp,%eax)
    1519: 07                           	popl	%es
    151a: 8a 15 00 00 04 08            	movb	134479872, %dl
    1520: 07                           	popl	%es
    1521: ae                           	scasb	%es:(%edi), %al
    1522: 15 00 00 02 97               	adcl	$2533490688, %eax       # imm = 0x97020000
    1527: 15 00 00 01 08               	adcl	$134283264, %eax        # imm = 0x8010000
    152c: 16                           	pushl	%ss
    152d: 50                           	pushl	%eax
    152e: 00 00                        	addb	%al, (%eax)
    1530: 00 02                        	addb	%al, (%edx)
    1532: 45                           	incl	%ebp
    1533: 17                           	popl	%ss
    1534: 00 00                        	addb	%al, (%eax)
    1536: 04 09                        	addb	$9, %al
    1538: 0f 25                        	<unknown>
    153a: 00 00                        	addb	%al, (%eax)
    153c: 00 03                        	addb	%al, (%ebx)
    153e: 6a 00                        	pushl	$0
    1540: 00 00                        	addb	%al, (%eax)
    1542: 05 24 16 00 00               	addl	$5668, %eax             # imm = 0x1624
    1547: 03 04 0b                     	addl	(%ebx,%ecx), %eax
    154a: 10 b0 00 00 00 06            	adcb	%dh, 100663296(%eax)
    1550: 64 16                        	pushl	%ss
    1552: 00 00                        	addb	%al, (%eax)
    1554: 04 0c                        	addb	$12, %al
    1556: 0d 6a 00 00 00               	orl	$106, %eax
    155b: 00 06                        	addb	%al, (%esi)
    155d: 0d 16 00 00 04               	orl	$67108886, %eax         # imm = 0x4000016
    1562: 0d 09 25 00 00               	orl	$9481, %eax             # imm = 0x2509
    1567: 00 01                        	addb	%al, (%ecx)
    1569: 06                           	pushl	%es
    156a: 4a                           	decl	%edx
    156b: 16                           	pushl	%ss
    156c: 00 00                        	addb	%al, (%eax)
    156e: 04 0e                        	addb	$14, %al
    1570: 09 25 00 00 00 02            	orl	%esp, 33554432
    1576: 00 07                        	addb	%al, (%edi)
    1578: 2d 16 00 00 04               	subl	$67108886, %eax         # imm = 0x4000016
    157d: 11 18                        	adcl	%ebx, (%eax)
    157f: 76 00                        	jbe	0x1581 <.debug_info+0x1581>
    1581: 00 00                        	addb	%al, (%eax)
    1583: 05 03 cf 04 00               	addl	$315139, %eax           # imm = 0x4CF03
    1588: 00 07                        	addb	%al, (%edi)
    158a: c5 15 00 00 04 12            	ldsl	302252032, %edx
    1590: 18 76 00                     	sbbb	%dh, (%esi)
    1593: 00 00                        	addb	%al, (%eax)
    1595: 05 03 d0 04 00               	addl	$315395, %eax           # imm = 0x4D003
    159a: 00 07                        	addb	%al, (%edi)
    159c: 9e                           	sahf
    159d: 15 00 00 04 13               	adcl	$319029248, %eax        # imm = 0x13040000
    15a2: 18 76 00                     	sbbb	%dh, (%esi)
    15a5: 00 00                        	addb	%al, (%eax)
    15a7: 05 03 d1 04 00               	addl	$315651, %eax           # imm = 0x4D103
    15ac: 00 07                        	addb	%al, (%edi)
    15ae: dc 15 00 00 04 14            	fcoml	335806464
    15b4: 14 31                        	adcb	$49, %al
    15b6: 00 00                        	addb	%al, (%eax)
    15b8: 00 05 03 d2 04 00            	addb	%al, 315907
    15be: 00 07                        	addb	%al, (%edi)
    15c0: 1a 16                        	sbbb	(%esi), %dl
    15c2: 00 00                        	addb	%al, (%eax)
    15c4: 04 15                        	addb	$21, %al
    15c6: 14 31                        	adcb	$49, %al
    15c8: 00 00                        	addb	%al, (%eax)
    15ca: 00 05 03 d3 04 00            	addb	%al, 316163
    15d0: 00 07                        	addb	%al, (%edi)
    15d2: 02 16                        	addb	(%esi), %dl
    15d4: 00 00                        	addb	%al, (%eax)
    15d6: 04 17                        	addb	$23, %al
    15d8: 18 7b 00                     	sbbb	%bh, (%ebx)
    15db: 00 00                        	addb	%al, (%eax)
    15dd: 05 03 0c 00 00               	addl	$3075, %eax             # imm = 0xC03
    15e2: 00 08                        	addb	%cl, (%eax)
    15e4: 57                           	pushl	%edi
    15e5: 16                           	pushl	%ss
    15e6: 00 00                        	addb	%al, (%eax)
    15e8: 03 5a 06                     	addl	6(%edx), %ebx
    15eb: 70 0f                        	jo	0x15fc <.debug_info+0x15fc>
    15ed: 00 00                        	addb	%al, (%eax)
    15ef: 4a                           	decl	%edx
    15f0: 00 00                        	addb	%al, (%eax)
    15f2: 00 01                        	addb	%al, (%ecx)
    15f4: 9c                           	pushfl
    15f5: 4e                           	decl	%esi
    15f6: 01 00                        	addl	%eax, (%eax)
    15f8: 00 09                        	addb	%cl, (%ecx)
    15fa: 73 00                        	jae	0x15fc <.debug_info+0x15fc>
    15fc: 03 5b 0a                     	addl	10(%ebx), %ebx
    15ff: 4e                           	decl	%esi
    1600: 01 00                        	addl	%eax, (%eax)
    1602: 00 02                        	addb	%al, (%edx)
    1604: 91                           	xchgl	%ecx, %eax
    1605: 6f                           	outsl	(%esi), %dx
    1606: 09 62 00                     	orl	%esp, (%edx)
    1609: 03 5c 0a 55                  	addl	85(%edx,%ecx), %ebx
    160d: 01 00                        	addl	%eax, (%eax)
    160f: 00 03                        	addb	%al, (%ebx)
    1611: 91                           	xchgl	%ecx, %eax
    1612: f2 7e 00                     	repne		jle	0x1615 <.debug_info+0x1615>
    1615: 04 01                        	addb	$1, %al
    1617: 06                           	pushl	%es
    1618: eb 15                        	jmp	0x162f <.debug_info+0x162f>
    161a: 00 00                        	addb	%al, (%eax)
    161c: 0a 4e 01                     	orb	1(%esi), %cl
    161f: 00 00                        	addb	%al, (%eax)
    1621: 65 01 00                     	addl	%eax, %gs:(%eax)
    1624: 00 0b                        	addb	%cl, (%ebx)
    1626: 50                           	pushl	%eax
    1627: 00 00                        	addb	%al, (%eax)
    1629: 00 7c 00 0c                  	addb	%bh, 12(%eax,%eax)
    162d: f0                           	lock
    162e: 15 00 00 02 10               	adcl	$268566528, %eax        # imm = 0x10020000
    1633: 14 60                        	adcb	$96, %al
    1635: 0f 00 00                     	sldtw	(%eax)
    1638: 03 00                        	addl	(%eax), %eax
    163a: 00 00                        	addb	%al, (%eax)
    163c: 01 9c 0d 40 17 00 00         	addl	%ebx, 5952(%ebp,%ecx)
    1643: 01 0d 15 e3 01 00            	addl	%ecx, 123669
    1649: 00 60 0e                     	addb	%ah, 14(%eax)
    164c: 00 00                        	addb	%al, (%eax)
    164e: f8                           	clc
    164f: 00 00                        	addb	%al, (%eax)
    1651: 00 01                        	addb	%al, (%ecx)
    1653: 9c                           	pushfl
    1654: e3 01                        	jecxz	0x1657 <.debug_info+0x1657>
    1656: 00 00                        	addb	%al, (%eax)
    1658: 0e                           	pushl	%cs
    1659: 78 00                        	js	0x165b <.debug_info+0x165b>
    165b: 01 0d 21 44 00 00            	addl	%ecx, 17441
    1661: 00 02                        	addb	%al, (%edx)
    1663: 91                           	xchgl	%ecx, %eax
    1664: 00 0e                        	addb	%cl, (%esi)
    1666: 73 00                        	jae	0x1668 <.debug_info+0x1668>
    1668: 01 0d 2a e3 01 00            	addl	%ecx, 123690
    166e: 00 02                        	addb	%al, (%edx)
    1670: 91                           	xchgl	%ecx, %eax
    1671: 04 0e                        	addb	$14, %al
    1673: 73 7a                        	jae	0x16ef <.debug_info+0x16ef>
    1675: 00 01                        	addb	%al, (%ecx)
    1677: 0d 34 5e 00 00               	orl	$24116, %eax            # imm = 0x5E34
    167c: 00 02                        	addb	%al, (%edx)
    167e: 91                           	xchgl	%ecx, %eax
    167f: 08 09                        	orb	%cl, (%ecx)
    1681: 74 6d                        	je	0x16f0 <.debug_info+0x16f0>
    1683: 70 00                        	jo	0x1685 <.debug_info+0x1685>
    1685: 01 0f                        	addl	%ecx, (%edi)
    1687: 0a 44 00 00                  	orb	(%eax,%eax), %al
    168b: 00 02                        	addb	%al, (%edx)
    168d: 91                           	xchgl	%ecx, %eax
    168e: 70 09                        	jo	0x1699 <.debug_info+0x1699>
    1690: 69 00 01 10 07 e9            	imull	$3909554177, (%eax), %eax # imm = 0xE9071001
    1696: 01 00                        	addl	%eax, (%eax)
    1698: 00 02                        	addb	%al, (%edx)
    169a: 91                           	xchgl	%ecx, %eax
    169b: 78 09                        	js	0x16a6 <.debug_info+0x16a6>
    169d: 6a 00                        	pushl	$0
    169f: 01 10                        	addl	%edx, (%eax)
    16a1: 0a e9                        	orb	%cl, %ch
    16a3: 01 00                        	addl	%eax, (%eax)
    16a5: 00 02                        	addb	%al, (%edx)
    16a7: 91                           	xchgl	%ecx, %eax
    16a8: 74 00                        	je	0x16aa <.debug_info+0x16aa>
    16aa: 0f 04                        	<unknown>
    16ac: 4e                           	decl	%esi
    16ad: 01 00                        	addl	%eax, (%eax)
    16af: 00 10                        	addb	%dl, (%eax)
    16b1: 04 05                        	addb	$5, %al
    16b3: 69 6e 74                     	<unknown>
    16b6: 00 00                        	addb	%al, (%eax)

Disassembly of section .rel.debug_info:

00000000 <.rel.debug_info>:
       0: 4d                           	decl	%ebp
       1: 00 00                        	addb	%al, (%eax)
       3: 00 01                        	addb	%al, (%ecx)
       5: 0c 00                        	orb	$0, %al
       7: 00 53 00                     	addb	%dl, (%ebx)
       a: 00 00                        	addb	%al, (%eax)
       c: 01 0f                        	addl	%ecx, (%edi)
       e: 00 00                        	addb	%al, (%eax)
      10: 58                           	popl	%eax
      11: 00 00                        	addb	%al, (%eax)
      13: 00 01                        	addb	%al, (%ecx)
      15: 0f 00 00                     	sldtw	(%eax)
      18: 5c                           	popl	%esp
      19: 00 00                        	addb	%al, (%eax)
      1b: 00 01                        	addb	%al, (%ecx)
      1d: 0f 00 00                     	sldtw	(%eax)
      20: 60                           	pushal
      21: 00 00                        	addb	%al, (%eax)
      23: 00 01                        	addb	%al, (%ecx)
      25: 01 00                        	addl	%eax, (%eax)
      27: 00 68 00                     	addb	%ch, (%eax)
      2a: 00 00                        	addb	%al, (%eax)
      2c: 01 0d 00 00 6d 00            	addl	%ecx, 7143424
      32: 00 00                        	addb	%al, (%eax)
      34: 01 0f                        	addl	%ecx, (%edi)
      36: 00 00                        	addb	%al, (%eax)
      38: 7b 00                        	jnp	0x3a <.rel.debug_info+0x3a>
      3a: 00 00                        	addb	%al, (%eax)
      3c: 01 0f                        	addl	%ecx, (%edi)
      3e: 00 00                        	addb	%al, (%eax)
      40: 82 00 00                     	addb	$0, (%eax)
      43: 00 01                        	addb	%al, (%ecx)
      45: 0f 00 00                     	sldtw	(%eax)
      48: 89 00                        	movl	%eax, (%eax)
      4a: 00 00                        	addb	%al, (%eax)
      4c: 01 0f                        	addl	%ecx, (%edi)
      4e: 00 00                        	addb	%al, (%eax)
      50: 90                           	nop
      51: 00 00                        	addb	%al, (%eax)
      53: 00 01                        	addb	%al, (%ecx)
      55: 0f 00 00                     	sldtw	(%eax)
      58: af                           	scasl	%es:(%edi), %eax
      59: 00 00                        	addb	%al, (%eax)
      5b: 00 01                        	addb	%al, (%ecx)
      5d: 0f 00 00                     	sldtw	(%eax)
      60: bc 00 00 00 01               	movl	$16777216, %esp         # imm = 0x1000000
      65: 0f 00 00                     	sldtw	(%eax)
      68: db 00                        	fildl	(%eax)
      6a: 00 00                        	addb	%al, (%eax)
      6c: 01 0f                        	addl	%ecx, (%edi)
      6e: 00 00                        	addb	%al, (%eax)
      70: e8 00 00 00 01               	calll	0x1000075 <.rel.debug_info+0x1000075>
      75: 02 00                        	addb	(%eax), %al
      77: 00 ed                        	addb	%ch, %ch
      79: 00 00                        	addb	%al, (%eax)
      7b: 00 01                        	addb	%al, (%ecx)
      7d: 0f 00 00                     	sldtw	(%eax)
      80: fa                           	cli
      81: 00 00                        	addb	%al, (%eax)
      83: 00 01                        	addb	%al, (%ecx)
      85: 02 00                        	addb	(%eax), %al
      87: 00 0c 01                     	addb	%cl, (%ecx,%eax)
      8a: 00 00                        	addb	%al, (%eax)
      8c: 01 02                        	addl	%eax, (%edx)
      8e: 00 00                        	addb	%al, (%eax)
      90: 11 01                        	adcl	%eax, (%ecx)
      92: 00 00                        	addb	%al, (%eax)
      94: 01 0f                        	addl	%ecx, (%edi)
      96: 00 00                        	addb	%al, (%eax)
      98: 1e                           	pushl	%ds
      99: 01 00                        	addl	%eax, (%eax)
      9b: 00 01                        	addb	%al, (%ecx)
      9d: 02 00                        	addb	(%eax), %al
      9f: 00 23                        	addb	%ah, (%ebx)
      a1: 01 00                        	addl	%eax, (%eax)
      a3: 00 01                        	addb	%al, (%ecx)
      a5: 0f 00 00                     	sldtw	(%eax)
      a8: 30 01                        	xorb	%al, (%ecx)
      aa: 00 00                        	addb	%al, (%eax)
      ac: 01 02                        	addl	%eax, (%edx)
      ae: 00 00                        	addb	%al, (%eax)
      b0: 35 01 00 00 01               	xorl	$16777217, %eax         # imm = 0x1000001
      b5: 0f 00 00                     	sldtw	(%eax)
      b8: 42                           	incl	%edx
      b9: 01 00                        	addl	%eax, (%eax)
      bb: 00 01                        	addb	%al, (%ecx)
      bd: 02 00                        	addb	(%eax), %al
      bf: 00 47 01                     	addb	%al, 1(%edi)
      c2: 00 00                        	addb	%al, (%eax)
      c4: 01 0f                        	addl	%ecx, (%edi)
      c6: 00 00                        	addb	%al, (%eax)
      c8: 54                           	pushl	%esp
      c9: 01 00                        	addl	%eax, (%eax)
      cb: 00 01                        	addb	%al, (%ecx)
      cd: 02 00                        	addb	(%eax), %al
      cf: 00 59 01                     	addb	%bl, 1(%ecx)
      d2: 00 00                        	addb	%al, (%eax)
      d4: 01 0f                        	addl	%ecx, (%edi)
      d6: 00 00                        	addb	%al, (%eax)
      d8: 66 01 00                     	addw	%ax, (%eax)
      db: 00 01                        	addb	%al, (%ecx)
      dd: 02 00                        	addb	(%eax), %al
      df: 00 6b 01                     	addb	%ch, 1(%ebx)
      e2: 00 00                        	addb	%al, (%eax)
      e4: 01 0f                        	addl	%ecx, (%edi)
      e6: 00 00                        	addb	%al, (%eax)
      e8: 78 01                        	js	0xeb <.rel.debug_info+0xeb>
      ea: 00 00                        	addb	%al, (%eax)
      ec: 01 02                        	addl	%eax, (%edx)
      ee: 00 00                        	addb	%al, (%eax)
      f0: 7d 01                        	jge	0xf3 <.rel.debug_info+0xf3>
      f2: 00 00                        	addb	%al, (%eax)
      f4: 01 0f                        	addl	%ecx, (%edi)
      f6: 00 00                        	addb	%al, (%eax)
      f8: 84 01                        	testb	%al, (%ecx)
      fa: 00 00                        	addb	%al, (%eax)
      fc: 01 01                        	addl	%eax, (%ecx)
      fe: 00 00                        	addb	%al, (%eax)
     100: 95                           	xchgl	%ebp, %eax
     101: 01 00                        	addl	%eax, (%eax)
     103: 00 01                        	addb	%al, (%ecx)
     105: 0c 00                        	orb	$0, %al
     107: 00 9b 01 00 00 01            	addb	%bl, 16777217(%ebx)
     10d: 0f 00 00                     	sldtw	(%eax)
     110: a0 01 00 00 01               	movb	16777217, %al
     115: 0f 00 00                     	sldtw	(%eax)
     118: a4                           	movsb	(%esi), %es:(%edi)
     119: 01 00                        	addl	%eax, (%eax)
     11b: 00 01                        	addb	%al, (%ecx)
     11d: 0f 00 00                     	sldtw	(%eax)
     120: a8 01                        	testb	$1, %al
     122: 00 00                        	addb	%al, (%eax)
     124: 01 01                        	addl	%eax, (%ecx)
     126: 00 00                        	addb	%al, (%eax)
     128: b0 01                        	movb	$1, %al
     12a: 00 00                        	addb	%al, (%eax)
     12c: 01 0d 00 00 b5 01            	addl	%ecx, 28639232
     132: 00 00                        	addb	%al, (%eax)
     134: 01 0f                        	addl	%ecx, (%edi)
     136: 00 00                        	addb	%al, (%eax)
     138: c8 01 00 00                  	enter	$1, $0
     13c: 01 0f                        	addl	%ecx, (%edi)
     13e: 00 00                        	addb	%al, (%eax)
     140: cf                           	iretl
     141: 01 00                        	addl	%eax, (%eax)
     143: 00 01                        	addb	%al, (%ecx)
     145: 0f 00 00                     	sldtw	(%eax)
     148: d6                           	salc
     149: 01 00                        	addl	%eax, (%eax)
     14b: 00 01                        	addb	%al, (%ecx)
     14d: 0f 00 00                     	sldtw	(%eax)
     150: dd 01                        	fldl	(%ecx)
     152: 00 00                        	addb	%al, (%eax)
     154: 01 0f                        	addl	%ecx, (%edi)
     156: 00 00                        	addb	%al, (%eax)
     158: e2 01                        	loop	0x15b <.rel.debug_info+0x15b>
     15a: 00 00                        	addb	%al, (%eax)
     15c: 01 0f                        	addl	%ecx, (%edi)
     15e: 00 00                        	addb	%al, (%eax)
     160: 08 02                        	orb	%al, (%edx)
     162: 00 00                        	addb	%al, (%eax)
     164: 01 0f                        	addl	%ecx, (%edi)
     166: 00 00                        	addb	%al, (%eax)
     168: 15 02 00 00 01               	adcl	$16777218, %eax         # imm = 0x1000002
     16d: 0f 00 00                     	sldtw	(%eax)
     170: 34 02                        	xorb	$2, %al
     172: 00 00                        	addb	%al, (%eax)
     174: 01 0f                        	addl	%ecx, (%edi)
     176: 00 00                        	addb	%al, (%eax)
     178: 41                           	incl	%ecx
     179: 02 00                        	addb	(%eax), %al
     17b: 00 01                        	addb	%al, (%ecx)
     17d: 02 00                        	addb	(%eax), %al
     17f: 00 46 02                     	addb	%al, 2(%esi)
     182: 00 00                        	addb	%al, (%eax)
     184: 01 0f                        	addl	%ecx, (%edi)
     186: 00 00                        	addb	%al, (%eax)
     188: 53                           	pushl	%ebx
     189: 02 00                        	addb	(%eax), %al
     18b: 00 01                        	addb	%al, (%ecx)
     18d: 02 00                        	addb	(%eax), %al
     18f: 00 65 02                     	addb	%ah, 2(%ebp)
     192: 00 00                        	addb	%al, (%eax)
     194: 01 02                        	addl	%eax, (%edx)
     196: 00 00                        	addb	%al, (%eax)
     198: 6a 02                        	pushl	$2
     19a: 00 00                        	addb	%al, (%eax)
     19c: 01 0f                        	addl	%ecx, (%edi)
     19e: 00 00                        	addb	%al, (%eax)
     1a0: 77 02                        	ja	0x1a4 <.rel.debug_info+0x1a4>
     1a2: 00 00                        	addb	%al, (%eax)
     1a4: 01 02                        	addl	%eax, (%edx)
     1a6: 00 00                        	addb	%al, (%eax)
     1a8: 7c 02                        	jl	0x1ac <.rel.debug_info+0x1ac>
     1aa: 00 00                        	addb	%al, (%eax)
     1ac: 01 0f                        	addl	%ecx, (%edi)
     1ae: 00 00                        	addb	%al, (%eax)
     1b0: 89 02                        	movl	%eax, (%edx)
     1b2: 00 00                        	addb	%al, (%eax)
     1b4: 01 02                        	addl	%eax, (%edx)
     1b6: 00 00                        	addb	%al, (%eax)
     1b8: 8e 02                        	movw	(%edx), %es
     1ba: 00 00                        	addb	%al, (%eax)
     1bc: 01 0f                        	addl	%ecx, (%edi)
     1be: 00 00                        	addb	%al, (%eax)
     1c0: 9b                           	wait
     1c1: 02 00                        	addb	(%eax), %al
     1c3: 00 01                        	addb	%al, (%ecx)
     1c5: 02 00                        	addb	(%eax), %al
     1c7: 00 a0 02 00 00 01            	addb	%ah, 16777218(%eax)
     1cd: 0f 00 00                     	sldtw	(%eax)
     1d0: ad                           	lodsl	(%esi), %eax
     1d1: 02 00                        	addb	(%eax), %al
     1d3: 00 01                        	addb	%al, (%ecx)
     1d5: 02 00                        	addb	(%eax), %al
     1d7: 00 b2 02 00 00 01            	addb	%dh, 16777218(%edx)
     1dd: 0f 00 00                     	sldtw	(%eax)
     1e0: bf 02 00 00 01               	movl	$16777218, %edi         # imm = 0x1000002
     1e5: 02 00                        	addb	(%eax), %al
     1e7: 00 c4                        	addb	%al, %ah
     1e9: 02 00                        	addb	(%eax), %al
     1eb: 00 01                        	addb	%al, (%ecx)
     1ed: 0f 00 00                     	sldtw	(%eax)
     1f0: d1 02                        	roll	(%edx)
     1f2: 00 00                        	addb	%al, (%eax)
     1f4: 01 02                        	addl	%eax, (%edx)
     1f6: 00 00                        	addb	%al, (%eax)
     1f8: d6                           	salc
     1f9: 02 00                        	addb	(%eax), %al
     1fb: 00 01                        	addb	%al, (%ecx)
     1fd: 0f 00 00                     	sldtw	(%eax)
     200: e3 02                        	jecxz	0x204 <.rel.debug_info+0x204>
     202: 00 00                        	addb	%al, (%eax)
     204: 01 02                        	addl	%eax, (%edx)
     206: 00 00                        	addb	%al, (%eax)
     208: 03 03                        	addl	(%ebx), %eax
     20a: 00 00                        	addb	%al, (%eax)
     20c: 01 0f                        	addl	%ecx, (%edi)
     20e: 00 00                        	addb	%al, (%eax)
     210: 10 03                        	adcb	%al, (%ebx)
     212: 00 00                        	addb	%al, (%eax)
     214: 01 02                        	addl	%eax, (%edx)
     216: 00 00                        	addb	%al, (%eax)
     218: 15 03 00 00 01               	adcl	$16777219, %eax         # imm = 0x1000003
     21d: 0f 00 00                     	sldtw	(%eax)
     220: 1c 03                        	sbbb	$3, %al
     222: 00 00                        	addb	%al, (%eax)
     224: 01 01                        	addl	%eax, (%ecx)
     226: 00 00                        	addb	%al, (%eax)
     228: 52                           	pushl	%edx
     229: 03 00                        	addl	(%eax), %eax
     22b: 00 01                        	addb	%al, (%ecx)
     22d: 0f 00 00                     	sldtw	(%eax)
     230: 77 03                        	ja	0x235 <.rel.debug_info+0x235>
     232: 00 00                        	addb	%al, (%eax)
     234: 01 0f                        	addl	%ecx, (%edi)
     236: 00 00                        	addb	%al, (%eax)
     238: 81 03 00 00 01 0f            	addl	$251723776, (%ebx)      # imm = 0xF010000
     23e: 00 00                        	addb	%al, (%eax)
     240: 88 03                        	movb	%al, (%ebx)
     242: 00 00                        	addb	%al, (%eax)
     244: 01 01                        	addl	%eax, (%ecx)
     246: 00 00                        	addb	%al, (%eax)
     248: be 03 00 00 01               	movl	$16777219, %esi         # imm = 0x1000003
     24d: 0f 00 00                     	sldtw	(%eax)
     250: cd 03                        	int	$3
     252: 00 00                        	addb	%al, (%eax)
     254: 01 0f                        	addl	%ecx, (%edi)
     256: 00 00                        	addb	%al, (%eax)
     258: dc 03                        	faddl	(%ebx)
     25a: 00 00                        	addb	%al, (%eax)
     25c: 01 01                        	addl	%eax, (%ecx)
     25e: 00 00                        	addb	%al, (%eax)
     260: f3 03 00                     	rep		addl	(%eax), %eax
     263: 00 01                        	addb	%al, (%ecx)
     265: 01 00                        	addl	%eax, (%eax)
     267: 00 19                        	addb	%bl, (%ecx)
     269: 04 00                        	addb	$0, %al
     26b: 00 01                        	addb	%al, (%ecx)
     26d: 0c 00                        	orb	$0, %al
     26f: 00 1f                        	addb	%bl, (%edi)
     271: 04 00                        	addb	$0, %al
     273: 00 01                        	addb	%al, (%ecx)
     275: 0f 00 00                     	sldtw	(%eax)
     278: 24 04                        	andb	$4, %al
     27a: 00 00                        	addb	%al, (%eax)
     27c: 01 0f                        	addl	%ecx, (%edi)
     27e: 00 00                        	addb	%al, (%eax)
     280: 28 04 00                     	subb	%al, (%eax,%eax)
     283: 00 01                        	addb	%al, (%ecx)
     285: 0f 00 00                     	sldtw	(%eax)
     288: 2c 04                        	subb	$4, %al
     28a: 00 00                        	addb	%al, (%eax)
     28c: 01 01                        	addl	%eax, (%ecx)
     28e: 00 00                        	addb	%al, (%eax)
     290: 34 04                        	xorb	$4, %al
     292: 00 00                        	addb	%al, (%eax)
     294: 01 0d 00 00 39 04            	addl	%ecx, 70844416
     29a: 00 00                        	addb	%al, (%eax)
     29c: 01 0f                        	addl	%ecx, (%edi)
     29e: 00 00                        	addb	%al, (%eax)
     2a0: 4c                           	decl	%esp
     2a1: 04 00                        	addb	$0, %al
     2a3: 00 01                        	addb	%al, (%ecx)
     2a5: 0f 00 00                     	sldtw	(%eax)
     2a8: 51                           	pushl	%ecx
     2a9: 04 00                        	addb	$0, %al
     2ab: 00 01                        	addb	%al, (%ecx)
     2ad: 0f 00 00                     	sldtw	(%eax)
     2b0: 5f                           	popl	%edi
     2b1: 04 00                        	addb	$0, %al
     2b3: 00 01                        	addb	%al, (%ecx)
     2b5: 0f 00 00                     	sldtw	(%eax)
     2b8: 66 04 00                     	addb	$0, %al
     2bb: 00 01                        	addb	%al, (%ecx)
     2bd: 0f 00 00                     	sldtw	(%eax)
     2c0: 6d                           	insl	%dx, %es:(%edi)
     2c1: 04 00                        	addb	$0, %al
     2c3: 00 01                        	addb	%al, (%ecx)
     2c5: 0f 00 00                     	sldtw	(%eax)
     2c8: 8c 04 00                     	movw	%es, (%eax,%eax)
     2cb: 00 01                        	addb	%al, (%ecx)
     2cd: 0f 00 00                     	sldtw	(%eax)
     2d0: 99                           	cltd
     2d1: 04 00                        	addb	$0, %al
     2d3: 00 01                        	addb	%al, (%ecx)
     2d5: 0f 00 00                     	sldtw	(%eax)
     2d8: b8 04 00 00 01               	movl	$16777220, %eax         # imm = 0x1000004
     2dd: 0f 00 00                     	sldtw	(%eax)
     2e0: c5 04 00                     	ldsl	(%eax,%eax), %eax
     2e3: 00 01                        	addb	%al, (%ecx)
     2e5: 02 00                        	addb	(%eax), %al
     2e7: 00 ca                        	addb	%cl, %dl
     2e9: 04 00                        	addb	$0, %al
     2eb: 00 01                        	addb	%al, (%ecx)
     2ed: 0f 00 00                     	sldtw	(%eax)
     2f0: d7                           	xlatb
     2f1: 04 00                        	addb	$0, %al
     2f3: 00 01                        	addb	%al, (%ecx)
     2f5: 02 00                        	addb	(%eax), %al
     2f7: 00 e9                        	addb	%ch, %cl
     2f9: 04 00                        	addb	$0, %al
     2fb: 00 01                        	addb	%al, (%ecx)
     2fd: 02 00                        	addb	(%eax), %al
     2ff: 00 ee                        	addb	%ch, %dh
     301: 04 00                        	addb	$0, %al
     303: 00 01                        	addb	%al, (%ecx)
     305: 0f 00 00                     	sldtw	(%eax)
     308: fb                           	sti
     309: 04 00                        	addb	$0, %al
     30b: 00 01                        	addb	%al, (%ecx)
     30d: 02 00                        	addb	(%eax), %al
     30f: 00 00                        	addb	%al, (%eax)
     311: 05 00 00 01 0f               	addl	$251723776, %eax        # imm = 0xF010000
     316: 00 00                        	addb	%al, (%eax)
     318: 0d 05 00 00 01               	orl	$16777221, %eax         # imm = 0x1000005
     31d: 02 00                        	addb	(%eax), %al
     31f: 00 12                        	addb	%dl, (%edx)
     321: 05 00 00 01 0f               	addl	$251723776, %eax        # imm = 0xF010000
     326: 00 00                        	addb	%al, (%eax)
     328: 1f                           	popl	%ds
     329: 05 00 00 01 02               	addl	$33619968, %eax         # imm = 0x2010000
     32e: 00 00                        	addb	%al, (%eax)
     330: 24 05                        	andb	$5, %al
     332: 00 00                        	addb	%al, (%eax)
     334: 01 0f                        	addl	%ecx, (%edi)
     336: 00 00                        	addb	%al, (%eax)
     338: 31 05 00 00 01 02            	xorl	%eax, 33619968
     33e: 00 00                        	addb	%al, (%eax)
     340: 36 05 00 00 01 0f            	addl	$251723776, %eax        # imm = 0xF010000
     346: 00 00                        	addb	%al, (%eax)
     348: 43                           	incl	%ebx
     349: 05 00 00 01 02               	addl	$33619968, %eax         # imm = 0x2010000
     34e: 00 00                        	addb	%al, (%eax)
     350: 48                           	decl	%eax
     351: 05 00 00 01 0f               	addl	$251723776, %eax        # imm = 0xF010000
     356: 00 00                        	addb	%al, (%eax)
     358: 55                           	pushl	%ebp
     359: 05 00 00 01 02               	addl	$33619968, %eax         # imm = 0x2010000
     35e: 00 00                        	addb	%al, (%eax)
     360: 5a                           	popl	%edx
     361: 05 00 00 01 0f               	addl	$251723776, %eax        # imm = 0xF010000
     366: 00 00                        	addb	%al, (%eax)
     368: 67 05 00 00 01 02            	addl	$33619968, %eax         # imm = 0x2010000
     36e: 00 00                        	addb	%al, (%eax)
     370: 6c                           	insb	%dx, %es:(%edi)
     371: 05 00 00 01 0f               	addl	$251723776, %eax        # imm = 0xF010000
     376: 00 00                        	addb	%al, (%eax)
     378: 73 05                        	jae	0x37f <.rel.debug_info+0x37f>
     37a: 00 00                        	addb	%al, (%eax)
     37c: 01 01                        	addl	%eax, (%ecx)
     37e: 00 00                        	addb	%al, (%eax)
     380: a9 05 00 00 01               	testl	$16777221, %eax         # imm = 0x1000005
     385: 0f 00 00                     	sldtw	(%eax)
     388: bb 05 00 00 01               	movl	$16777221, %ebx         # imm = 0x1000005
     38d: 0f 00 00                     	sldtw	(%eax)
     390: c6 05 00 00 01 0f 00         	movb	$0, 251723776
     397: 00 cd                        	addb	%cl, %ch
     399: 05 00 00 01 01               	addl	$16842752, %eax         # imm = 0x1010000
     39e: 00 00                        	addb	%al, (%eax)
     3a0: dc 05 00 00 01 0f            	faddl	251723776
     3a6: 00 00                        	addb	%al, (%eax)
     3a8: eb 05                        	jmp	0x3af <.rel.debug_info+0x3af>
     3aa: 00 00                        	addb	%al, (%eax)
     3ac: 01 01                        	addl	%eax, (%ecx)
     3ae: 00 00                        	addb	%al, (%eax)
     3b0: f4                           	hlt
     3b1: 05 00 00 01 0f               	addl	$251723776, %eax        # imm = 0xF010000
     3b6: 00 00                        	addb	%al, (%eax)
     3b8: 03 06                        	addl	(%esi), %eax
     3ba: 00 00                        	addb	%al, (%eax)
     3bc: 01 01                        	addl	%eax, (%ecx)
     3be: 00 00                        	addb	%al, (%eax)
     3c0: 0c 06                        	orb	$6, %al
     3c2: 00 00                        	addb	%al, (%eax)
     3c4: 01 0f                        	addl	%ecx, (%edi)
     3c6: 00 00                        	addb	%al, (%eax)
     3c8: 1b 06                        	sbbl	(%esi), %eax
     3ca: 00 00                        	addb	%al, (%eax)
     3cc: 01 01                        	addl	%eax, (%ecx)
     3ce: 00 00                        	addb	%al, (%eax)
     3d0: 24 06                        	andb	$6, %al
     3d2: 00 00                        	addb	%al, (%eax)
     3d4: 01 0f                        	addl	%ecx, (%edi)
     3d6: 00 00                        	addb	%al, (%eax)
     3d8: 3e 06                        	pushl	%es
     3da: 00 00                        	addb	%al, (%eax)
     3dc: 01 0f                        	addl	%ecx, (%edi)
     3de: 00 00                        	addb	%al, (%eax)
     3e0: 45                           	incl	%ebp
     3e1: 06                           	pushl	%es
     3e2: 00 00                        	addb	%al, (%eax)
     3e4: 01 01                        	addl	%eax, (%ecx)
     3e6: 00 00                        	addb	%al, (%eax)
     3e8: 54                           	pushl	%esp
     3e9: 06                           	pushl	%es
     3ea: 00 00                        	addb	%al, (%eax)
     3ec: 01 0f                        	addl	%ecx, (%edi)
     3ee: 00 00                        	addb	%al, (%eax)
     3f0: 63 06                        	arpl	%ax, (%esi)
     3f2: 00 00                        	addb	%al, (%eax)
     3f4: 01 0f                        	addl	%ecx, (%edi)
     3f6: 00 00                        	addb	%al, (%eax)
     3f8: 73 06                        	jae	0x400 <.rel.debug_info+0x400>
     3fa: 00 00                        	addb	%al, (%eax)
     3fc: 01 0f                        	addl	%ecx, (%edi)
     3fe: 00 00                        	addb	%al, (%eax)
     400: 7a 06                        	jp	0x408 <.rel.debug_info+0x408>
     402: 00 00                        	addb	%al, (%eax)
     404: 01 01                        	addl	%eax, (%ecx)
     406: 00 00                        	addb	%al, (%eax)
     408: 89 06                        	movl	%eax, (%esi)
     40a: 00 00                        	addb	%al, (%eax)
     40c: 01 0f                        	addl	%ecx, (%edi)
     40e: 00 00                        	addb	%al, (%eax)
     410: 98                           	cwtl
     411: 06                           	pushl	%es
     412: 00 00                        	addb	%al, (%eax)
     414: 01 01                        	addl	%eax, (%ecx)
     416: 00 00                        	addb	%al, (%eax)
     418: b0 06                        	movb	$6, %al
     41a: 00 00                        	addb	%al, (%eax)
     41c: 01 0f                        	addl	%ecx, (%edi)
     41e: 00 00                        	addb	%al, (%eax)
     420: b7 06                        	movb	$6, %bh
     422: 00 00                        	addb	%al, (%eax)
     424: 01 01                        	addl	%eax, (%ecx)
     426: 00 00                        	addb	%al, (%eax)
     428: c6 06 00                     	movb	$0, (%esi)
     42b: 00 01                        	addb	%al, (%ecx)
     42d: 0f 00 00                     	sldtw	(%eax)
     430: d5 06                        	aad	$6
     432: 00 00                        	addb	%al, (%eax)
     434: 01 0f                        	addl	%ecx, (%edi)
     436: 00 00                        	addb	%al, (%eax)
     438: f1                           	<unknown>
     439: 06                           	pushl	%es
     43a: 00 00                        	addb	%al, (%eax)
     43c: 01 0c 00                     	addl	%ecx, (%eax,%eax)
     43f: 00 f7                        	addb	%dh, %bh
     441: 06                           	pushl	%es
     442: 00 00                        	addb	%al, (%eax)
     444: 01 0f                        	addl	%ecx, (%edi)
     446: 00 00                        	addb	%al, (%eax)
     448: fc                           	cld
     449: 06                           	pushl	%es
     44a: 00 00                        	addb	%al, (%eax)
     44c: 01 0f                        	addl	%ecx, (%edi)
     44e: 00 00                        	addb	%al, (%eax)
     450: 00 07                        	addb	%al, (%edi)
     452: 00 00                        	addb	%al, (%eax)
     454: 01 0f                        	addl	%ecx, (%edi)
     456: 00 00                        	addb	%al, (%eax)
     458: 04 07                        	addb	$7, %al
     45a: 00 00                        	addb	%al, (%eax)
     45c: 01 01                        	addl	%eax, (%ecx)
     45e: 00 00                        	addb	%al, (%eax)
     460: 0c 07                        	orb	$7, %al
     462: 00 00                        	addb	%al, (%eax)
     464: 01 0d 00 00 11 07            	addl	%ecx, 118554624
     46a: 00 00                        	addb	%al, (%eax)
     46c: 01 0f                        	addl	%ecx, (%edi)
     46e: 00 00                        	addb	%al, (%eax)
     470: 24 07                        	andb	$7, %al
     472: 00 00                        	addb	%al, (%eax)
     474: 01 0f                        	addl	%ecx, (%edi)
     476: 00 00                        	addb	%al, (%eax)
     478: 29 07                        	subl	%eax, (%edi)
     47a: 00 00                        	addb	%al, (%eax)
     47c: 01 0f                        	addl	%ecx, (%edi)
     47e: 00 00                        	addb	%al, (%eax)
     480: 37                           	aaa
     481: 07                           	popl	%es
     482: 00 00                        	addb	%al, (%eax)
     484: 01 0f                        	addl	%ecx, (%edi)
     486: 00 00                        	addb	%al, (%eax)
     488: 3c 07                        	cmpb	$7, %al
     48a: 00 00                        	addb	%al, (%eax)
     48c: 01 0f                        	addl	%ecx, (%edi)
     48e: 00 00                        	addb	%al, (%eax)
     490: 4a                           	decl	%edx
     491: 07                           	popl	%es
     492: 00 00                        	addb	%al, (%eax)
     494: 01 0f                        	addl	%ecx, (%edi)
     496: 00 00                        	addb	%al, (%eax)
     498: 51                           	pushl	%ecx
     499: 07                           	popl	%es
     49a: 00 00                        	addb	%al, (%eax)
     49c: 01 0f                        	addl	%ecx, (%edi)
     49e: 00 00                        	addb	%al, (%eax)
     4a0: 56                           	pushl	%esi
     4a1: 07                           	popl	%es
     4a2: 00 00                        	addb	%al, (%eax)
     4a4: 01 0f                        	addl	%ecx, (%edi)
     4a6: 00 00                        	addb	%al, (%eax)
     4a8: 63 07                        	arpl	%ax, (%edi)
     4aa: 00 00                        	addb	%al, (%eax)
     4ac: 01 0f                        	addl	%ecx, (%edi)
     4ae: 00 00                        	addb	%al, (%eax)
     4b0: 70 07                        	jo	0x4b9 <.rel.debug_info+0x4b9>
     4b2: 00 00                        	addb	%al, (%eax)
     4b4: 01 0f                        	addl	%ecx, (%edi)
     4b6: 00 00                        	addb	%al, (%eax)
     4b8: 7d 07                        	jge	0x4c1 <.rel.debug_info+0x4c1>
     4ba: 00 00                        	addb	%al, (%eax)
     4bc: 01 0f                        	addl	%ecx, (%edi)
     4be: 00 00                        	addb	%al, (%eax)
     4c0: 8a 07                        	movb	(%edi), %al
     4c2: 00 00                        	addb	%al, (%eax)
     4c4: 01 0f                        	addl	%ecx, (%edi)
     4c6: 00 00                        	addb	%al, (%eax)
     4c8: 97                           	xchgl	%edi, %eax
     4c9: 07                           	popl	%es
     4ca: 00 00                        	addb	%al, (%eax)
     4cc: 01 0f                        	addl	%ecx, (%edi)
     4ce: 00 00                        	addb	%al, (%eax)
     4d0: a5                           	movsl	(%esi), %es:(%edi)
     4d1: 07                           	popl	%es
     4d2: 00 00                        	addb	%al, (%eax)
     4d4: 01 0f                        	addl	%ecx, (%edi)
     4d6: 00 00                        	addb	%al, (%eax)
     4d8: b2 07                        	movb	$7, %dl
     4da: 00 00                        	addb	%al, (%eax)
     4dc: 01 0f                        	addl	%ecx, (%edi)
     4de: 00 00                        	addb	%al, (%eax)
     4e0: bf 07 00 00 01               	movl	$16777223, %edi         # imm = 0x1000007
     4e5: 0f 00 00                     	sldtw	(%eax)
     4e8: cd 07                        	int	$7
     4ea: 00 00                        	addb	%al, (%eax)
     4ec: 01 0f                        	addl	%ecx, (%edi)
     4ee: 00 00                        	addb	%al, (%eax)
     4f0: de 07                        	fiadds	(%edi)
     4f2: 00 00                        	addb	%al, (%eax)
     4f4: 01 0f                        	addl	%ecx, (%edi)
     4f6: 00 00                        	addb	%al, (%eax)
     4f8: eb 07                        	jmp	0x501 <.rel.debug_info+0x501>
     4fa: 00 00                        	addb	%al, (%eax)
     4fc: 01 0f                        	addl	%ecx, (%edi)
     4fe: 00 00                        	addb	%al, (%eax)
     500: f8                           	clc
     501: 07                           	popl	%es
     502: 00 00                        	addb	%al, (%eax)
     504: 01 0f                        	addl	%ecx, (%edi)
     506: 00 00                        	addb	%al, (%eax)
     508: 05 08 00 00 01               	addl	$16777224, %eax         # imm = 0x1000008
     50d: 0f 00 00                     	sldtw	(%eax)
     510: 13 08                        	adcl	(%eax), %ecx
     512: 00 00                        	addb	%al, (%eax)
     514: 01 0f                        	addl	%ecx, (%edi)
     516: 00 00                        	addb	%al, (%eax)
     518: 20 08                        	andb	%cl, (%eax)
     51a: 00 00                        	addb	%al, (%eax)
     51c: 01 02                        	addl	%eax, (%edx)
     51e: 00 00                        	addb	%al, (%eax)
     520: 25 08 00 00 01               	andl	$16777224, %eax         # imm = 0x1000008
     525: 0f 00 00                     	sldtw	(%eax)
     528: 32 08                        	xorb	(%eax), %cl
     52a: 00 00                        	addb	%al, (%eax)
     52c: 01 02                        	addl	%eax, (%edx)
     52e: 00 00                        	addb	%al, (%eax)
     530: 37                           	aaa
     531: 08 00                        	orb	%al, (%eax)
     533: 00 01                        	addb	%al, (%ecx)
     535: 0f 00 00                     	sldtw	(%eax)
     538: 44                           	incl	%esp
     539: 08 00                        	orb	%al, (%eax)
     53b: 00 01                        	addb	%al, (%ecx)
     53d: 02 00                        	addb	(%eax), %al
     53f: 00 49 08                     	addb	%cl, 8(%ecx)
     542: 00 00                        	addb	%al, (%eax)
     544: 01 0f                        	addl	%ecx, (%edi)
     546: 00 00                        	addb	%al, (%eax)
     548: 56                           	pushl	%esi
     549: 08 00                        	orb	%al, (%eax)
     54b: 00 01                        	addb	%al, (%ecx)
     54d: 02 00                        	addb	(%eax), %al
     54f: 00 5b 08                     	addb	%bl, 8(%ebx)
     552: 00 00                        	addb	%al, (%eax)
     554: 01 0f                        	addl	%ecx, (%edi)
     556: 00 00                        	addb	%al, (%eax)
     558: 68 08 00 00 01               	pushl	$16777224               # imm = 0x1000008
     55d: 02 00                        	addb	(%eax), %al
     55f: 00 6d 08                     	addb	%ch, 8(%ebp)
     562: 00 00                        	addb	%al, (%eax)
     564: 01 0f                        	addl	%ecx, (%edi)
     566: 00 00                        	addb	%al, (%eax)
     568: 7a 08                        	jp	0x572 <.rel.debug_info+0x572>
     56a: 00 00                        	addb	%al, (%eax)
     56c: 01 05 00 00 8f 08            	addl	%eax, 143589376
     572: 00 00                        	addb	%al, (%eax)
     574: 01 0f                        	addl	%ecx, (%edi)
     576: 00 00                        	addb	%al, (%eax)
     578: 9c                           	pushfl
     579: 08 00                        	orb	%al, (%eax)
     57b: 00 01                        	addb	%al, (%ecx)
     57d: 81 00 00 a1 08 00            	addl	$565504, (%eax)         # imm = 0x8A100
     583: 00 01                        	addb	%al, (%ecx)
     585: 0f 00 00                     	sldtw	(%eax)
     588: ae                           	scasb	%es:(%edi), %al
     589: 08 00                        	orb	%al, (%eax)
     58b: 00 01                        	addb	%al, (%ecx)
     58d: 91                           	xchgl	%ecx, %eax
     58e: 00 00                        	addb	%al, (%eax)
     590: b3 08                        	movb	$8, %bl
     592: 00 00                        	addb	%al, (%eax)
     594: 01 0f                        	addl	%ecx, (%edi)
     596: 00 00                        	addb	%al, (%eax)
     598: ba 08 00 00 01               	movl	$16777224, %edx         # imm = 0x1000008
     59d: 01 00                        	addl	%eax, (%eax)
     59f: 00 c9                        	addb	%cl, %cl
     5a1: 08 00                        	orb	%al, (%eax)
     5a3: 00 01                        	addb	%al, (%ecx)
     5a5: 01 00                        	addl	%eax, (%eax)
     5a7: 00 e1                        	addb	%ah, %cl
     5a9: 08 00                        	orb	%al, (%eax)
     5ab: 00 01                        	addb	%al, (%ecx)
     5ad: 0f 00 00                     	sldtw	(%eax)
     5b0: e8 08 00 00 01               	calll	0x10005bd <.rel.debug_info+0x10005bd>
     5b5: 01 00                        	addl	%eax, (%eax)
     5b7: 00 f7                        	addb	%dh, %bh
     5b9: 08 00                        	orb	%al, (%eax)
     5bb: 00 01                        	addb	%al, (%ecx)
     5bd: 0f 00 00                     	sldtw	(%eax)
     5c0: 06                           	pushl	%es
     5c1: 09 00                        	orl	%eax, (%eax)
     5c3: 00 01                        	addb	%al, (%ecx)
     5c5: 0f 00 00                     	sldtw	(%eax)
     5c8: 15 09 00 00 01               	adcl	$16777225, %eax         # imm = 0x1000009
     5cd: 0f 00 00                     	sldtw	(%eax)
     5d0: 34 09                        	xorb	$9, %al
     5d2: 00 00                        	addb	%al, (%eax)
     5d4: 01 0f                        	addl	%ecx, (%edi)
     5d6: 00 00                        	addb	%al, (%eax)
     5d8: 3b 09                        	cmpl	(%ecx), %ecx
     5da: 00 00                        	addb	%al, (%eax)
     5dc: 01 01                        	addl	%eax, (%ecx)
     5de: 00 00                        	addb	%al, (%eax)
     5e0: 46                           	incl	%esi
     5e1: 09 00                        	orl	%eax, (%eax)
     5e3: 00 01                        	addb	%al, (%ecx)
     5e5: 0f 00 00                     	sldtw	(%eax)
     5e8: 4d                           	decl	%ebp
     5e9: 09 00                        	orl	%eax, (%eax)
     5eb: 00 01                        	addb	%al, (%ecx)
     5ed: 01 00                        	addl	%eax, (%eax)
     5ef: 00 58 09                     	addb	%bl, 9(%eax)
     5f2: 00 00                        	addb	%al, (%eax)
     5f4: 01 0f                        	addl	%ecx, (%edi)
     5f6: 00 00                        	addb	%al, (%eax)
     5f8: 5f                           	popl	%edi
     5f9: 09 00                        	orl	%eax, (%eax)
     5fb: 00 01                        	addb	%al, (%ecx)
     5fd: 01 00                        	addl	%eax, (%eax)
     5ff: 00 70 09                     	addb	%dh, 9(%eax)
     602: 00 00                        	addb	%al, (%eax)
     604: 01 0c 00                     	addl	%ecx, (%eax,%eax)
     607: 00 76 09                     	addb	%dh, 9(%esi)
     60a: 00 00                        	addb	%al, (%eax)
     60c: 01 0f                        	addl	%ecx, (%edi)
     60e: 00 00                        	addb	%al, (%eax)
     610: 7b 09                        	jnp	0x61b <.rel.debug_info+0x61b>
     612: 00 00                        	addb	%al, (%eax)
     614: 01 0f                        	addl	%ecx, (%edi)
     616: 00 00                        	addb	%al, (%eax)
     618: 7f 09                        	jg	0x623 <.rel.debug_info+0x623>
     61a: 00 00                        	addb	%al, (%eax)
     61c: 01 0f                        	addl	%ecx, (%edi)
     61e: 00 00                        	addb	%al, (%eax)
     620: 83 09 00                     	orl	$0, (%ecx)
     623: 00 01                        	addb	%al, (%ecx)
     625: 01 00                        	addl	%eax, (%eax)
     627: 00 8b 09 00 00 01            	addb	%cl, 16777225(%ebx)
     62d: 0d 00 00 90 09               	orl	$160432128, %eax        # imm = 0x9900000
     632: 00 00                        	addb	%al, (%eax)
     634: 01 0f                        	addl	%ecx, (%edi)
     636: 00 00                        	addb	%al, (%eax)
     638: 9e                           	sahf
     639: 09 00                        	orl	%eax, (%eax)
     63b: 00 01                        	addb	%al, (%ecx)
     63d: 0f 00 00                     	sldtw	(%eax)
     640: a5                           	movsl	(%esi), %es:(%edi)
     641: 09 00                        	orl	%eax, (%eax)
     643: 00 01                        	addb	%al, (%ecx)
     645: 0f 00 00                     	sldtw	(%eax)
     648: ac                           	lodsb	(%esi), %al
     649: 09 00                        	orl	%eax, (%eax)
     64b: 00 01                        	addb	%al, (%ecx)
     64d: 0f 00 00                     	sldtw	(%eax)
     650: b3 09                        	movb	$9, %bl
     652: 00 00                        	addb	%al, (%eax)
     654: 01 0f                        	addl	%ecx, (%edi)
     656: 00 00                        	addb	%al, (%eax)
     658: b8 09 00 00 01               	movl	$16777225, %eax         # imm = 0x1000009
     65d: 0f 00 00                     	sldtw	(%eax)
     660: bf 09 00 00 01               	movl	$16777225, %edi         # imm = 0x1000009
     665: 01 00                        	addl	%eax, (%eax)
     667: 00 ca                        	addb	%cl, %dl
     669: 09 00                        	orl	%eax, (%eax)
     66b: 00 01                        	addb	%al, (%ecx)
     66d: 0f 00 00                     	sldtw	(%eax)
     670: d1 09                        	rorl	(%ecx)
     672: 00 00                        	addb	%al, (%eax)
     674: 01 01                        	addl	%eax, (%ecx)
     676: 00 00                        	addb	%al, (%eax)
     678: dc 09                        	fmull	(%ecx)
     67a: 00 00                        	addb	%al, (%eax)
     67c: 01 0f                        	addl	%ecx, (%edi)
     67e: 00 00                        	addb	%al, (%eax)
     680: eb 09                        	jmp	0x68b <.rel.debug_info+0x68b>
     682: 00 00                        	addb	%al, (%eax)
     684: 01 0f                        	addl	%ecx, (%edi)
     686: 00 00                        	addb	%al, (%eax)
     688: 01 0a                        	addl	%ecx, (%edx)
     68a: 00 00                        	addb	%al, (%eax)
     68c: 01 0c 00                     	addl	%ecx, (%eax,%eax)
     68f: 00 07                        	addb	%al, (%edi)
     691: 0a 00                        	orb	(%eax), %al
     693: 00 01                        	addb	%al, (%ecx)
     695: 0f 00 00                     	sldtw	(%eax)
     698: 0c 0a                        	orb	$10, %al
     69a: 00 00                        	addb	%al, (%eax)
     69c: 01 0f                        	addl	%ecx, (%edi)
     69e: 00 00                        	addb	%al, (%eax)
     6a0: 10 0a                        	adcb	%cl, (%edx)
     6a2: 00 00                        	addb	%al, (%eax)
     6a4: 01 0f                        	addl	%ecx, (%edi)
     6a6: 00 00                        	addb	%al, (%eax)
     6a8: 14 0a                        	adcb	$10, %al
     6aa: 00 00                        	addb	%al, (%eax)
     6ac: 01 01                        	addl	%eax, (%ecx)
     6ae: 00 00                        	addb	%al, (%eax)
     6b0: 1c 0a                        	sbbb	$10, %al
     6b2: 00 00                        	addb	%al, (%eax)
     6b4: 01 0d 00 00 21 0a            	addl	%ecx, 169934848
     6ba: 00 00                        	addb	%al, (%eax)
     6bc: 01 0f                        	addl	%ecx, (%edi)
     6be: 00 00                        	addb	%al, (%eax)
     6c0: 34 0a                        	xorb	$10, %al
     6c2: 00 00                        	addb	%al, (%eax)
     6c4: 01 0f                        	addl	%ecx, (%edi)
     6c6: 00 00                        	addb	%al, (%eax)
     6c8: 3b 0a                        	cmpl	(%edx), %ecx
     6ca: 00 00                        	addb	%al, (%eax)
     6cc: 01 0f                        	addl	%ecx, (%edi)
     6ce: 00 00                        	addb	%al, (%eax)
     6d0: 40                           	incl	%eax
     6d1: 0a 00                        	orb	(%eax), %al
     6d3: 00 01                        	addb	%al, (%ecx)
     6d5: 0f 00 00                     	sldtw	(%eax)
     6d8: 4e                           	decl	%esi
     6d9: 0a 00                        	orb	(%eax), %al
     6db: 00 01                        	addb	%al, (%ecx)
     6dd: 0f 00 00                     	sldtw	(%eax)
     6e0: 55                           	pushl	%ebp
     6e1: 0a 00                        	orb	(%eax), %al
     6e3: 00 01                        	addb	%al, (%ecx)
     6e5: 0f 00 00                     	sldtw	(%eax)
     6e8: 5a                           	popl	%edx
     6e9: 0a 00                        	orb	(%eax), %al
     6eb: 00 01                        	addb	%al, (%ecx)
     6ed: 0f 00 00                     	sldtw	(%eax)
     6f0: 66 0a 00                     	orb	(%eax), %al
     6f3: 00 01                        	addb	%al, (%ecx)
     6f5: 0f 00 00                     	sldtw	(%eax)
     6f8: 72 0a                        	jb	0x704 <.rel.debug_info+0x704>
     6fa: 00 00                        	addb	%al, (%eax)
     6fc: 01 0f                        	addl	%ecx, (%edi)
     6fe: 00 00                        	addb	%al, (%eax)
     700: 7f 0a                        	jg	0x70c <.rel.debug_info+0x70c>
     702: 00 00                        	addb	%al, (%eax)
     704: 01 0f                        	addl	%ecx, (%edi)
     706: 00 00                        	addb	%al, (%eax)
     708: 8c 0a                        	movw	%cs, (%edx)
     70a: 00 00                        	addb	%al, (%eax)
     70c: 01 0f                        	addl	%ecx, (%edi)
     70e: 00 00                        	addb	%al, (%eax)
     710: a0 0a 00 00 01               	movb	16777226, %al
     715: 0f 00 00                     	sldtw	(%eax)
     718: ad                           	lodsl	(%esi), %eax
     719: 0a 00                        	orb	(%eax), %al
     71b: 00 01                        	addb	%al, (%ecx)
     71d: 0f 00 00                     	sldtw	(%eax)
     720: ba 0a 00 00 01               	movl	$16777226, %edx         # imm = 0x100000A
     725: 0f 00 00                     	sldtw	(%eax)
     728: d0 0a                        	rorb	(%edx)
     72a: 00 00                        	addb	%al, (%eax)
     72c: 01 0f                        	addl	%ecx, (%edi)
     72e: 00 00                        	addb	%al, (%eax)
     730: e1 0a                        	loope	0x73c <.rel.debug_info+0x73c>
     732: 00 00                        	addb	%al, (%eax)
     734: 01 0f                        	addl	%ecx, (%edi)
     736: 00 00                        	addb	%al, (%eax)
     738: ee                           	outb	%al, %dx
     739: 0a 00                        	orb	(%eax), %al
     73b: 00 01                        	addb	%al, (%ecx)
     73d: 0f 00 00                     	sldtw	(%eax)
     740: fb                           	sti
     741: 0a 00                        	orb	(%eax), %al
     743: 00 01                        	addb	%al, (%ecx)
     745: 0f 00 00                     	sldtw	(%eax)
     748: 08 0b                        	orb	%cl, (%ebx)
     74a: 00 00                        	addb	%al, (%eax)
     74c: 01 0f                        	addl	%ecx, (%edi)
     74e: 00 00                        	addb	%al, (%eax)
     750: 16                           	pushl	%ss
     751: 0b 00                        	orl	(%eax), %eax
     753: 00 01                        	addb	%al, (%ecx)
     755: 0f 00 00                     	sldtw	(%eax)
     758: 23 0b                        	andl	(%ebx), %ecx
     75a: 00 00                        	addb	%al, (%eax)
     75c: 01 02                        	addl	%eax, (%edx)
     75e: 00 00                        	addb	%al, (%eax)
     760: 28 0b                        	subb	%cl, (%ebx)
     762: 00 00                        	addb	%al, (%eax)
     764: 01 0f                        	addl	%ecx, (%edi)
     766: 00 00                        	addb	%al, (%eax)
     768: 35 0b 00 00 01               	xorl	$16777227, %eax         # imm = 0x100000B
     76d: 02 00                        	addb	(%eax), %al
     76f: 00 3a                        	addb	%bh, (%edx)
     771: 0b 00                        	orl	(%eax), %eax
     773: 00 01                        	addb	%al, (%ecx)
     775: 0f 00 00                     	sldtw	(%eax)
     778: 47                           	incl	%edi
     779: 0b 00                        	orl	(%eax), %eax
     77b: 00 01                        	addb	%al, (%ecx)
     77d: 02 00                        	addb	(%eax), %al
     77f: 00 4c 0b 00                  	addb	%cl, (%ebx,%ecx)
     783: 00 01                        	addb	%al, (%ecx)
     785: 0f 00 00                     	sldtw	(%eax)
     788: 59                           	popl	%ecx
     789: 0b 00                        	orl	(%eax), %eax
     78b: 00 01                        	addb	%al, (%ecx)
     78d: 02 00                        	addb	(%eax), %al
     78f: 00 5e 0b                     	addb	%bl, 11(%esi)
     792: 00 00                        	addb	%al, (%eax)
     794: 01 0f                        	addl	%ecx, (%edi)
     796: 00 00                        	addb	%al, (%eax)
     798: 6b 0b 00                     	imull	$0, (%ebx), %ecx
     79b: 00 01                        	addb	%al, (%ecx)
     79d: 02 00                        	addb	(%eax), %al
     79f: 00 70 0b                     	addb	%dh, 11(%eax)
     7a2: 00 00                        	addb	%al, (%eax)
     7a4: 01 0f                        	addl	%ecx, (%edi)
     7a6: 00 00                        	addb	%al, (%eax)
     7a8: 7d 0b                        	jge	0x7b5 <.rel.debug_info+0x7b5>
     7aa: 00 00                        	addb	%al, (%eax)
     7ac: 01 05 00 00 82 0b            	addl	%eax, 193069056
     7b2: 00 00                        	addb	%al, (%eax)
     7b4: 01 0f                        	addl	%ecx, (%edi)
     7b6: 00 00                        	addb	%al, (%eax)
     7b8: 8d 0b                        	leal	(%ebx), %ecx
     7ba: 00 00                        	addb	%al, (%eax)
     7bc: 01 01                        	addl	%eax, (%ecx)
     7be: 00 00                        	addb	%al, (%eax)
     7c0: 9c                           	pushfl
     7c1: 0b 00                        	orl	(%eax), %eax
     7c3: 00 01                        	addb	%al, (%ecx)
     7c5: 0f 00 00                     	sldtw	(%eax)
     7c8: c1 0b 00                     	rorl	$0, (%ebx)
     7cb: 00 01                        	addb	%al, (%ecx)
     7cd: 0f 00 00                     	sldtw	(%eax)
     7d0: cc                           	int3
     7d1: 0b 00                        	orl	(%eax), %eax
     7d3: 00 01                        	addb	%al, (%ecx)
     7d5: 01 00                        	addl	%eax, (%eax)
     7d7: 00 db                        	addb	%bl, %bl
     7d9: 0b 00                        	orl	(%eax), %eax
     7db: 00 01                        	addb	%al, (%ecx)
     7dd: 0f 00 00                     	sldtw	(%eax)
     7e0: ea 0b 00 00 01 0f 00         	ljmpl	$15, $16777227          # imm = 0x100000B
     7e7: 00 f9                        	addb	%bh, %cl
     7e9: 0b 00                        	orl	(%eax), %eax
     7eb: 00 01                        	addb	%al, (%ecx)
     7ed: 0f 00 00                     	sldtw	(%eax)
     7f0: 08 0c 00                     	orb	%cl, (%eax,%eax)
     7f3: 00 01                        	addb	%al, (%ecx)
     7f5: 0f 00 00                     	sldtw	(%eax)
     7f8: 18 0c 00                     	sbbb	%cl, (%eax,%eax)
     7fb: 00 01                        	addb	%al, (%ecx)
     7fd: 0f 00 00                     	sldtw	(%eax)
     800: 23 0c 00                     	andl	(%eax,%eax), %ecx
     803: 00 01                        	addb	%al, (%ecx)
     805: 01 00                        	addl	%eax, (%eax)
     807: 00 32                        	addb	%dh, (%edx)
     809: 0c 00                        	orb	$0, %al
     80b: 00 01                        	addb	%al, (%ecx)
     80d: 0f 00 00                     	sldtw	(%eax)
     810: 41                           	incl	%ecx
     811: 0c 00                        	orb	$0, %al
     813: 00 01                        	addb	%al, (%ecx)
     815: 0f 00 00                     	sldtw	(%eax)
     818: 50                           	pushl	%eax
     819: 0c 00                        	orb	$0, %al
     81b: 00 01                        	addb	%al, (%ecx)
     81d: 0f 00 00                     	sldtw	(%eax)
     820: 5f                           	popl	%edi
     821: 0c 00                        	orb	$0, %al
     823: 00 01                        	addb	%al, (%ecx)
     825: 01 00                        	addl	%eax, (%eax)
     827: 00 77 0c                     	addb	%dh, 12(%edi)
     82a: 00 00                        	addb	%al, (%eax)
     82c: 01 0f                        	addl	%ecx, (%edi)
     82e: 00 00                        	addb	%al, (%eax)
     830: 82 0c 00 00                  	orb	$0, (%eax,%eax)
     834: 01 01                        	addl	%eax, (%ecx)
     836: 00 00                        	addb	%al, (%eax)
     838: 91                           	xchgl	%ecx, %eax
     839: 0c 00                        	orb	$0, %al
     83b: 00 01                        	addb	%al, (%ecx)
     83d: 0f 00 00                     	sldtw	(%eax)
     840: a0 0c 00 00 01               	movb	16777228, %al
     845: 0f 00 00                     	sldtw	(%eax)
     848: af                           	scasl	%es:(%edi), %eax
     849: 0c 00                        	orb	$0, %al
     84b: 00 01                        	addb	%al, (%ecx)
     84d: 0f 00 00                     	sldtw	(%eax)
     850: be 0c 00 00 01               	movl	$16777228, %esi         # imm = 0x100000C
     855: 0f 00 00                     	sldtw	(%eax)
     858: cd 0c                        	int	$12
     85a: 00 00                        	addb	%al, (%eax)
     85c: 01 0f                        	addl	%ecx, (%edi)
     85e: 00 00                        	addb	%al, (%eax)
     860: dc 0c 00                     	fmull	(%eax,%eax)
     863: 00 01                        	addb	%al, (%ecx)
     865: 01 00                        	addl	%eax, (%eax)
     867: 00 f4                        	addb	%dh, %ah
     869: 0c 00                        	orb	$0, %al
     86b: 00 01                        	addb	%al, (%ecx)
     86d: 0f 00 00                     	sldtw	(%eax)
     870: ff 0c 00                     	decl	(%eax,%eax)
     873: 00 01                        	addb	%al, (%ecx)
     875: 01 00                        	addl	%eax, (%eax)
     877: 00 0e                        	addb	%cl, (%esi)
     879: 0d 00 00 01 0f               	orl	$251723776, %eax        # imm = 0xF010000
     87e: 00 00                        	addb	%al, (%eax)
     880: 1e                           	pushl	%ds
     881: 0d 00 00 01 0f               	orl	$251723776, %eax        # imm = 0xF010000
     886: 00 00                        	addb	%al, (%eax)
     888: 29 0d 00 00 01 01            	subl	%ecx, 16842752
     88e: 00 00                        	addb	%al, (%eax)
     890: 38 0d 00 00 01 0f            	cmpb	%cl, 251723776
     896: 00 00                        	addb	%al, (%eax)
     898: 48                           	decl	%eax
     899: 0d 00 00 01 0f               	orl	$251723776, %eax        # imm = 0xF010000
     89e: 00 00                        	addb	%al, (%eax)
     8a0: 53                           	pushl	%ebx
     8a1: 0d 00 00 01 01               	orl	$16842752, %eax         # imm = 0x1010000
     8a6: 00 00                        	addb	%al, (%eax)
     8a8: 62 0d 00 00 01 0f            	bound	%ecx, 251723776
     8ae: 00 00                        	addb	%al, (%eax)
     8b0: 71 0d                        	jno	0x8bf <.rel.debug_info+0x8bf>
     8b2: 00 00                        	addb	%al, (%eax)
     8b4: 01 0f                        	addl	%ecx, (%edi)
     8b6: 00 00                        	addb	%al, (%eax)
     8b8: 8f 0d 00                     	<unknown>
     8bb: 00 01                        	addb	%al, (%ecx)
     8bd: 0f 00 00                     	sldtw	(%eax)
     8c0: ad                           	lodsl	(%esi), %eax
     8c1: 0d 00 00 01 0f               	orl	$251723776, %eax        # imm = 0xF010000
     8c6: 00 00                        	addb	%al, (%eax)
     8c8: c4 0d 00 00 01 0f            	lesl	251723776, %ecx
     8ce: 00 00                        	addb	%al, (%eax)
     8d0: cf                           	iretl
     8d1: 0d 00 00 01 01               	orl	$16842752, %eax         # imm = 0x1010000
     8d6: 00 00                        	addb	%al, (%eax)
     8d8: ee                           	outb	%al, %dx
     8d9: 0d 00 00 01 0f               	orl	$251723776, %eax        # imm = 0xF010000
     8de: 00 00                        	addb	%al, (%eax)
     8e0: f9                           	stc
     8e1: 0d 00 00 01 01               	orl	$16842752, %eax         # imm = 0x1010000
     8e6: 00 00                        	addb	%al, (%eax)
     8e8: 04 0e                        	addb	$14, %al
     8ea: 00 00                        	addb	%al, (%eax)
     8ec: 01 0f                        	addl	%ecx, (%edi)
     8ee: 00 00                        	addb	%al, (%eax)
     8f0: 22 0e                        	andb	(%esi), %cl
     8f2: 00 00                        	addb	%al, (%eax)
     8f4: 01 0f                        	addl	%ecx, (%edi)
     8f6: 00 00                        	addb	%al, (%eax)
     8f8: 40                           	incl	%eax
     8f9: 0e                           	pushl	%cs
     8fa: 00 00                        	addb	%al, (%eax)
     8fc: 01 0f                        	addl	%ecx, (%edi)
     8fe: 00 00                        	addb	%al, (%eax)
     900: 4f                           	decl	%edi
     901: 0e                           	pushl	%cs
     902: 00 00                        	addb	%al, (%eax)
     904: 01 0f                        	addl	%ecx, (%edi)
     906: 00 00                        	addb	%al, (%eax)
     908: 65 0e                        	pushl	%cs
     90a: 00 00                        	addb	%al, (%eax)
     90c: 01 0c 00                     	addl	%ecx, (%eax,%eax)
     90f: 00 6b 0e                     	addb	%ch, 14(%ebx)
     912: 00 00                        	addb	%al, (%eax)
     914: 01 0f                        	addl	%ecx, (%edi)
     916: 00 00                        	addb	%al, (%eax)
     918: 70 0e                        	jo	0x928 <.rel.debug_info+0x928>
     91a: 00 00                        	addb	%al, (%eax)
     91c: 01 0f                        	addl	%ecx, (%edi)
     91e: 00 00                        	addb	%al, (%eax)
     920: 74 0e                        	je	0x930 <.rel.debug_info+0x930>
     922: 00 00                        	addb	%al, (%eax)
     924: 01 0f                        	addl	%ecx, (%edi)
     926: 00 00                        	addb	%al, (%eax)
     928: 78 0e                        	js	0x938 <.rel.debug_info+0x938>
     92a: 00 00                        	addb	%al, (%eax)
     92c: 01 01                        	addl	%eax, (%ecx)
     92e: 00 00                        	addb	%al, (%eax)
     930: 80 0e 00                     	orb	$0, (%esi)
     933: 00 01                        	addb	%al, (%ecx)
     935: 0d 00 00 85 0e               	orl	$243597312, %eax        # imm = 0xE850000
     93a: 00 00                        	addb	%al, (%eax)
     93c: 01 0f                        	addl	%ecx, (%edi)
     93e: 00 00                        	addb	%al, (%eax)
     940: 98                           	cwtl
     941: 0e                           	pushl	%cs
     942: 00 00                        	addb	%al, (%eax)
     944: 01 0f                        	addl	%ecx, (%edi)
     946: 00 00                        	addb	%al, (%eax)
     948: 9f                           	lahf
     949: 0e                           	pushl	%cs
     94a: 00 00                        	addb	%al, (%eax)
     94c: 01 0f                        	addl	%ecx, (%edi)
     94e: 00 00                        	addb	%al, (%eax)
     950: a6                           	cmpsb	%es:(%edi), (%esi)
     951: 0e                           	pushl	%cs
     952: 00 00                        	addb	%al, (%eax)
     954: 01 0f                        	addl	%ecx, (%edi)
     956: 00 00                        	addb	%al, (%eax)
     958: ad                           	lodsl	(%esi), %eax
     959: 0e                           	pushl	%cs
     95a: 00 00                        	addb	%al, (%eax)
     95c: 01 0f                        	addl	%ecx, (%edi)
     95e: 00 00                        	addb	%al, (%eax)
     960: b2 0e                        	movb	$14, %dl
     962: 00 00                        	addb	%al, (%eax)
     964: 01 0f                        	addl	%ecx, (%edi)
     966: 00 00                        	addb	%al, (%eax)
     968: be 0e 00 00 01               	movl	$16777230, %esi         # imm = 0x100000E
     96d: 0f 00 00                     	sldtw	(%eax)
     970: ca 0e 00                     	lretl	$14
     973: 00 01                        	addb	%al, (%ecx)
     975: 0f 00 00                     	sldtw	(%eax)
     978: d7                           	xlatb
     979: 0e                           	pushl	%cs
     97a: 00 00                        	addb	%al, (%eax)
     97c: 01 0f                        	addl	%ecx, (%edi)
     97e: 00 00                        	addb	%al, (%eax)
     980: e4 0e                        	inb	$14, %al
     982: 00 00                        	addb	%al, (%eax)
     984: 01 0f                        	addl	%ecx, (%edi)
     986: 00 00                        	addb	%al, (%eax)
     988: f8                           	clc
     989: 0e                           	pushl	%cs
     98a: 00 00                        	addb	%al, (%eax)
     98c: 01 0f                        	addl	%ecx, (%edi)
     98e: 00 00                        	addb	%al, (%eax)
     990: 05 0f 00 00 01               	addl	$16777231, %eax         # imm = 0x100000F
     995: 0f 00 00                     	sldtw	(%eax)
     998: 12 0f                        	adcb	(%edi), %cl
     99a: 00 00                        	addb	%al, (%eax)
     99c: 01 0f                        	addl	%ecx, (%edi)
     99e: 00 00                        	addb	%al, (%eax)
     9a0: 28 0f                        	subb	%cl, (%edi)
     9a2: 00 00                        	addb	%al, (%eax)
     9a4: 01 0f                        	addl	%ecx, (%edi)
     9a6: 00 00                        	addb	%al, (%eax)
     9a8: 39 0f                        	cmpl	%ecx, (%edi)
     9aa: 00 00                        	addb	%al, (%eax)
     9ac: 01 0f                        	addl	%ecx, (%edi)
     9ae: 00 00                        	addb	%al, (%eax)
     9b0: 46                           	incl	%esi
     9b1: 0f 00 00                     	sldtw	(%eax)
     9b4: 01 0f                        	addl	%ecx, (%edi)
     9b6: 00 00                        	addb	%al, (%eax)
     9b8: 53                           	pushl	%ebx
     9b9: 0f 00 00                     	sldtw	(%eax)
     9bc: 01 0f                        	addl	%ecx, (%edi)
     9be: 00 00                        	addb	%al, (%eax)
     9c0: 60                           	pushal
     9c1: 0f 00 00                     	sldtw	(%eax)
     9c4: 01 0f                        	addl	%ecx, (%edi)
     9c6: 00 00                        	addb	%al, (%eax)
     9c8: 6e                           	outsb	(%esi), %dx
     9c9: 0f 00 00                     	sldtw	(%eax)
     9cc: 01 0f                        	addl	%ecx, (%edi)
     9ce: 00 00                        	addb	%al, (%eax)
     9d0: 7b 0f                        	jnp	0x9e1 <.rel.debug_info+0x9e1>
     9d2: 00 00                        	addb	%al, (%eax)
     9d4: 01 02                        	addl	%eax, (%edx)
     9d6: 00 00                        	addb	%al, (%eax)
     9d8: 80 0f 00                     	orb	$0, (%edi)
     9db: 00 01                        	addb	%al, (%ecx)
     9dd: 0f 00 00                     	sldtw	(%eax)
     9e0: 8d 0f                        	leal	(%edi), %ecx
     9e2: 00 00                        	addb	%al, (%eax)
     9e4: 01 02                        	addl	%eax, (%edx)
     9e6: 00 00                        	addb	%al, (%eax)
     9e8: 92                           	xchgl	%edx, %eax
     9e9: 0f 00 00                     	sldtw	(%eax)
     9ec: 01 0f                        	addl	%ecx, (%edi)
     9ee: 00 00                        	addb	%al, (%eax)
     9f0: 9f                           	lahf
     9f1: 0f 00 00                     	sldtw	(%eax)
     9f4: 01 02                        	addl	%eax, (%edx)
     9f6: 00 00                        	addb	%al, (%eax)
     9f8: a4                           	movsb	(%esi), %es:(%edi)
     9f9: 0f 00 00                     	sldtw	(%eax)
     9fc: 01 0f                        	addl	%ecx, (%edi)
     9fe: 00 00                        	addb	%al, (%eax)
     a00: b1 0f                        	movb	$15, %cl
     a02: 00 00                        	addb	%al, (%eax)
     a04: 01 02                        	addl	%eax, (%edx)
     a06: 00 00                        	addb	%al, (%eax)
     a08: b6 0f                        	movb	$15, %dh
     a0a: 00 00                        	addb	%al, (%eax)
     a0c: 01 0f                        	addl	%ecx, (%edi)
     a0e: 00 00                        	addb	%al, (%eax)
     a10: c3                           	retl
     a11: 0f 00 00                     	sldtw	(%eax)
     a14: 01 02                        	addl	%eax, (%edx)
     a16: 00 00                        	addb	%al, (%eax)
     a18: c8 0f 00 00                  	enter	$15, $0
     a1c: 01 0f                        	addl	%ecx, (%edi)
     a1e: 00 00                        	addb	%al, (%eax)
     a20: d5 0f                        	aad	$15
     a22: 00 00                        	addb	%al, (%eax)
     a24: 01 05 00 00 da 0f            	addl	%eax, 265945088
     a2a: 00 00                        	addb	%al, (%eax)
     a2c: 01 0f                        	addl	%ecx, (%edi)
     a2e: 00 00                        	addb	%al, (%eax)
     a30: e7 0f                        	outl	%eax, $15
     a32: 00 00                        	addb	%al, (%eax)
     a34: 01 68 00                     	addl	%ebp, (%eax)
     a37: 00 ec                        	addb	%ch, %ah
     a39: 0f 00 00                     	sldtw	(%eax)
     a3c: 01 0f                        	addl	%ecx, (%edi)
     a3e: 00 00                        	addb	%al, (%eax)
     a40: f9                           	stc
     a41: 0f 00 00                     	sldtw	(%eax)
     a44: 01 66 00                     	addl	%esp, (%esi)
     a47: 00 fe                        	addb	%bh, %dh
     a49: 0f 00 00                     	sldtw	(%eax)
     a4c: 01 0f                        	addl	%ecx, (%edi)
     a4e: 00 00                        	addb	%al, (%eax)
     a50: 05 10 00 00 01               	addl	$16777232, %eax         # imm = 0x1000010
     a55: 01 00                        	addl	%eax, (%eax)
     a57: 00 40 10                     	addb	%al, 16(%eax)
     a5a: 00 00                        	addb	%al, (%eax)
     a5c: 01 0c 00                     	addl	%ecx, (%eax,%eax)
     a5f: 00 46 10                     	addb	%al, 16(%esi)
     a62: 00 00                        	addb	%al, (%eax)
     a64: 01 0f                        	addl	%ecx, (%edi)
     a66: 00 00                        	addb	%al, (%eax)
     a68: 4b                           	decl	%ebx
     a69: 10 00                        	adcb	%al, (%eax)
     a6b: 00 01                        	addb	%al, (%ecx)
     a6d: 0f 00 00                     	sldtw	(%eax)
     a70: 4f                           	decl	%edi
     a71: 10 00                        	adcb	%al, (%eax)
     a73: 00 01                        	addb	%al, (%ecx)
     a75: 0f 00 00                     	sldtw	(%eax)
     a78: 53                           	pushl	%ebx
     a79: 10 00                        	adcb	%al, (%eax)
     a7b: 00 01                        	addb	%al, (%ecx)
     a7d: 01 00                        	addl	%eax, (%eax)
     a7f: 00 5b 10                     	addb	%bl, 16(%ebx)
     a82: 00 00                        	addb	%al, (%eax)
     a84: 01 0d 00 00 62 10            	addl	%ecx, 274857984
     a8a: 00 00                        	addb	%al, (%eax)
     a8c: 01 0f                        	addl	%ecx, (%edi)
     a8e: 00 00                        	addb	%al, (%eax)
     a90: 69 10 00 00 01 0f            	imull	$251723776, (%eax), %edx # imm = 0xF010000
     a96: 00 00                        	addb	%al, (%eax)
     a98: 70 10                        	jo	0xaaa <.rel.debug_info+0xaaa>
     a9a: 00 00                        	addb	%al, (%eax)
     a9c: 01 0f                        	addl	%ecx, (%edi)
     a9e: 00 00                        	addb	%al, (%eax)
     aa0: 77 10                        	ja	0xab2 <.rel.debug_info+0xab2>
     aa2: 00 00                        	addb	%al, (%eax)
     aa4: 01 0f                        	addl	%ecx, (%edi)
     aa6: 00 00                        	addb	%al, (%eax)
     aa8: 7c 10                        	jl	0xaba <.rel.debug_info+0xaba>
     aaa: 00 00                        	addb	%al, (%eax)
     aac: 01 0f                        	addl	%ecx, (%edi)
     aae: 00 00                        	addb	%al, (%eax)
     ab0: 88 10                        	movb	%dl, (%eax)
     ab2: 00 00                        	addb	%al, (%eax)
     ab4: 01 0f                        	addl	%ecx, (%edi)
     ab6: 00 00                        	addb	%al, (%eax)
     ab8: 93                           	xchgl	%ebx, %eax
     ab9: 10 00                        	adcb	%al, (%eax)
     abb: 00 01                        	addb	%al, (%ecx)
     abd: 01 00                        	addl	%eax, (%eax)
     abf: 00 be 10 00 00 01            	addb	%bh, 16777232(%esi)
     ac5: 0f 00 00                     	sldtw	(%eax)
     ac8: cd 10                        	int	$16
     aca: 00 00                        	addb	%al, (%eax)
     acc: 01 0f                        	addl	%ecx, (%edi)
     ace: 00 00                        	addb	%al, (%eax)
     ad0: dc 10                        	fcoml	(%eax)
     ad2: 00 00                        	addb	%al, (%eax)
     ad4: 01 01                        	addl	%eax, (%ecx)
     ad6: 00 00                        	addb	%al, (%eax)
     ad8: 05 11 00 00 01               	addl	$16777233, %eax         # imm = 0x1000011
     add: 0f 00 00                     	sldtw	(%eax)
     ae0: 10 11                        	adcb	%dl, (%ecx)
     ae2: 00 00                        	addb	%al, (%eax)
     ae4: 01 0c 00                     	addl	%ecx, (%eax,%eax)
     ae7: 00 16                        	addb	%dl, (%esi)
     ae9: 11 00                        	adcl	%eax, (%eax)
     aeb: 00 01                        	addb	%al, (%ecx)
     aed: 0f 00 00                     	sldtw	(%eax)
     af0: 1b 11                        	sbbl	(%ecx), %edx
     af2: 00 00                        	addb	%al, (%eax)
     af4: 01 0f                        	addl	%ecx, (%edi)
     af6: 00 00                        	addb	%al, (%eax)
     af8: 1f                           	popl	%ds
     af9: 11 00                        	adcl	%eax, (%eax)
     afb: 00 01                        	addb	%al, (%ecx)
     afd: 0f 00 00                     	sldtw	(%eax)
     b00: 23 11                        	andl	(%ecx), %edx
     b02: 00 00                        	addb	%al, (%eax)
     b04: 01 01                        	addl	%eax, (%ecx)
     b06: 00 00                        	addb	%al, (%eax)
     b08: 2b 11                        	subl	(%ecx), %edx
     b0a: 00 00                        	addb	%al, (%eax)
     b0c: 01 0d 00 00 32 11            	addl	%ecx, 288489472
     b12: 00 00                        	addb	%al, (%eax)
     b14: 01 0f                        	addl	%ecx, (%edi)
     b16: 00 00                        	addb	%al, (%eax)
     b18: 39 11                        	cmpl	%edx, (%ecx)
     b1a: 00 00                        	addb	%al, (%eax)
     b1c: 01 0f                        	addl	%ecx, (%edi)
     b1e: 00 00                        	addb	%al, (%eax)
     b20: 40                           	incl	%eax
     b21: 11 00                        	adcl	%eax, (%eax)
     b23: 00 01                        	addb	%al, (%ecx)
     b25: 0f 00 00                     	sldtw	(%eax)
     b28: 47                           	incl	%edi
     b29: 11 00                        	adcl	%eax, (%eax)
     b2b: 00 01                        	addb	%al, (%ecx)
     b2d: 0f 00 00                     	sldtw	(%eax)
     b30: 4c                           	decl	%esp
     b31: 11 00                        	adcl	%eax, (%eax)
     b33: 00 01                        	addb	%al, (%ecx)
     b35: 0f 00 00                     	sldtw	(%eax)
     b38: 58                           	popl	%eax
     b39: 11 00                        	adcl	%eax, (%eax)
     b3b: 00 01                        	addb	%al, (%ecx)
     b3d: 0f 00 00                     	sldtw	(%eax)
     b40: 63 11                        	arpl	%dx, (%ecx)
     b42: 00 00                        	addb	%al, (%eax)
     b44: 01 01                        	addl	%eax, (%ecx)
     b46: 00 00                        	addb	%al, (%eax)
     b48: 72 11                        	jb	0xb5b <.rel.debug_info+0xb5b>
     b4a: 00 00                        	addb	%al, (%eax)
     b4c: 01 0f                        	addl	%ecx, (%edi)
     b4e: 00 00                        	addb	%al, (%eax)
     b50: 99                           	cltd
     b51: 11 00                        	adcl	%eax, (%eax)
     b53: 00 01                        	addb	%al, (%ecx)
     b55: 0f 00 00                     	sldtw	(%eax)
     b58: a9 11 00 00 01               	testl	$16777233, %eax         # imm = 0x1000011
     b5d: 0c 00                        	orb	$0, %al
     b5f: 00 af 11 00 00 01            	addb	%ch, 16777233(%edi)
     b65: 0f 00 00                     	sldtw	(%eax)
     b68: b4 11                        	movb	$17, %ah
     b6a: 00 00                        	addb	%al, (%eax)
     b6c: 01 0f                        	addl	%ecx, (%edi)
     b6e: 00 00                        	addb	%al, (%eax)
     b70: b8 11 00 00 01               	movl	$16777233, %eax         # imm = 0x1000011
     b75: 0f 00 00                     	sldtw	(%eax)
     b78: bc 11 00 00 01               	movl	$16777233, %esp         # imm = 0x1000011
     b7d: 01 00                        	addl	%eax, (%eax)
     b7f: 00 c4                        	addb	%al, %ah
     b81: 11 00                        	adcl	%eax, (%eax)
     b83: 00 01                        	addb	%al, (%ecx)
     b85: 0d 00 00 c9 11               	orl	$298385408, %eax        # imm = 0x11C90000
     b8a: 00 00                        	addb	%al, (%eax)
     b8c: 01 0f                        	addl	%ecx, (%edi)
     b8e: 00 00                        	addb	%al, (%eax)
     b90: dc 11                        	fcoml	(%ecx)
     b92: 00 00                        	addb	%al, (%eax)
     b94: 01 0f                        	addl	%ecx, (%edi)
     b96: 00 00                        	addb	%al, (%eax)
     b98: e1 11                        	loope	0xbab <.rel.debug_info+0xbab>
     b9a: 00 00                        	addb	%al, (%eax)
     b9c: 01 0f                        	addl	%ecx, (%edi)
     b9e: 00 00                        	addb	%al, (%eax)
     ba0: ef                           	outl	%eax, %dx
     ba1: 11 00                        	adcl	%eax, (%eax)
     ba3: 00 01                        	addb	%al, (%ecx)
     ba5: 0f 00 00                     	sldtw	(%eax)
     ba8: f6 11                        	notb	(%ecx)
     baa: 00 00                        	addb	%al, (%eax)
     bac: 01 0f                        	addl	%ecx, (%edi)
     bae: 00 00                        	addb	%al, (%eax)
     bb0: fd                           	std
     bb1: 11 00                        	adcl	%eax, (%eax)
     bb3: 00 01                        	addb	%al, (%ecx)
     bb5: 0f 00 00                     	sldtw	(%eax)
     bb8: 02 12                        	addb	(%edx), %dl
     bba: 00 00                        	addb	%al, (%eax)
     bbc: 01 0f                        	addl	%ecx, (%edi)
     bbe: 00 00                        	addb	%al, (%eax)
     bc0: 0e                           	pushl	%cs
     bc1: 12 00                        	adcb	(%eax), %al
     bc3: 00 01                        	addb	%al, (%ecx)
     bc5: 0f 00 00                     	sldtw	(%eax)
     bc8: 1f                           	popl	%ds
     bc9: 12 00                        	adcb	(%eax), %al
     bcb: 00 01                        	addb	%al, (%ecx)
     bcd: 0f 00 00                     	sldtw	(%eax)
     bd0: 2c 12                        	subb	$18, %al
     bd2: 00 00                        	addb	%al, (%eax)
     bd4: 01 0f                        	addl	%ecx, (%edi)
     bd6: 00 00                        	addb	%al, (%eax)
     bd8: 39 12                        	cmpl	%edx, (%edx)
     bda: 00 00                        	addb	%al, (%eax)
     bdc: 01 0f                        	addl	%ecx, (%edi)
     bde: 00 00                        	addb	%al, (%eax)
     be0: 46                           	incl	%esi
     be1: 12 00                        	adcb	(%eax), %al
     be3: 00 01                        	addb	%al, (%ecx)
     be5: 0f 00 00                     	sldtw	(%eax)
     be8: 54                           	pushl	%esp
     be9: 12 00                        	adcb	(%eax), %al
     beb: 00 01                        	addb	%al, (%ecx)
     bed: 0f 00 00                     	sldtw	(%eax)
     bf0: 60                           	pushal
     bf1: 12 00                        	adcb	(%eax), %al
     bf3: 00 01                        	addb	%al, (%ecx)
     bf5: 0f 00 00                     	sldtw	(%eax)
     bf8: 6d                           	insl	%dx, %es:(%edi)
     bf9: 12 00                        	adcb	(%eax), %al
     bfb: 00 01                        	addb	%al, (%ecx)
     bfd: 02 00                        	addb	(%eax), %al
     bff: 00 72 12                     	addb	%dh, 18(%edx)
     c02: 00 00                        	addb	%al, (%eax)
     c04: 01 0f                        	addl	%ecx, (%edi)
     c06: 00 00                        	addb	%al, (%eax)
     c08: 7f 12                        	jg	0xc1c <.rel.debug_info+0xc1c>
     c0a: 00 00                        	addb	%al, (%eax)
     c0c: 01 02                        	addl	%eax, (%edx)
     c0e: 00 00                        	addb	%al, (%eax)
     c10: 84 12                        	testb	%dl, (%edx)
     c12: 00 00                        	addb	%al, (%eax)
     c14: 01 0f                        	addl	%ecx, (%edi)
     c16: 00 00                        	addb	%al, (%eax)
     c18: 91                           	xchgl	%ecx, %eax
     c19: 12 00                        	adcb	(%eax), %al
     c1b: 00 01                        	addb	%al, (%ecx)
     c1d: 02 00                        	addb	(%eax), %al
     c1f: 00 96 12 00 00 01            	addb	%dl, 16777234(%esi)
     c25: 0f 00 00                     	sldtw	(%eax)
     c28: a3 12 00 00 01               	movl	%eax, 16777234
     c2d: 02 00                        	addb	(%eax), %al
     c2f: 00 a8 12 00 00 01            	addb	%ch, 16777234(%eax)
     c35: 0f 00 00                     	sldtw	(%eax)
     c38: b5 12                        	movb	$18, %ch
     c3a: 00 00                        	addb	%al, (%eax)
     c3c: 01 02                        	addl	%eax, (%edx)
     c3e: 00 00                        	addb	%al, (%eax)
     c40: ba 12 00 00 01               	movl	$16777234, %edx         # imm = 0x1000012
     c45: 0f 00 00                     	sldtw	(%eax)
     c48: c7 12                        	<unknown>
     c4a: 00 00                        	addb	%al, (%eax)
     c4c: 01 05 00 00 cc 12            	addl	%eax, 315359232
     c52: 00 00                        	addb	%al, (%eax)
     c54: 01 0f                        	addl	%ecx, (%edi)
     c56: 00 00                        	addb	%al, (%eax)
     c58: d9 12                        	fsts	(%edx)
     c5a: 00 00                        	addb	%al, (%eax)
     c5c: 01 8e 00 00 e4 12            	addl	%ecx, 316932096(%esi)
     c62: 00 00                        	addb	%al, (%eax)
     c64: 01 0f                        	addl	%ecx, (%edi)
     c66: 00 00                        	addb	%al, (%eax)
     c68: eb 12                        	jmp	0xc7c <.rel.debug_info+0xc7c>
     c6a: 00 00                        	addb	%al, (%eax)
     c6c: 01 01                        	addl	%eax, (%ecx)
     c6e: 00 00                        	addb	%al, (%eax)
     c70: fa                           	cli
     c71: 12 00                        	adcb	(%eax), %al
     c73: 00 01                        	addb	%al, (%ecx)
     c75: 0f 00 00                     	sldtw	(%eax)
     c78: 0a 13                        	orb	(%ebx), %dl
     c7a: 00 00                        	addb	%al, (%eax)
     c7c: 01 0f                        	addl	%ecx, (%edi)
     c7e: 00 00                        	addb	%al, (%eax)
     c80: 11 13                        	adcl	%edx, (%ebx)
     c82: 00 00                        	addb	%al, (%eax)
     c84: 01 01                        	addl	%eax, (%ecx)
     c86: 00 00                        	addb	%al, (%eax)
     c88: 36 13 00                     	adcl	%ss:(%eax), %eax
     c8b: 00 01                        	addb	%al, (%ecx)
     c8d: 0f 00 00                     	sldtw	(%eax)
     c90: 40                           	incl	%eax
     c91: 13 00                        	adcl	(%eax), %eax
     c93: 00 01                        	addb	%al, (%ecx)
     c95: 0f 00 00                     	sldtw	(%eax)
     c98: 47                           	incl	%edi
     c99: 13 00                        	adcl	(%eax), %eax
     c9b: 00 01                        	addb	%al, (%ecx)
     c9d: 01 00                        	addl	%eax, (%eax)
     c9f: 00 52 13                     	addb	%dl, 19(%edx)
     ca2: 00 00                        	addb	%al, (%eax)
     ca4: 01 0f                        	addl	%ecx, (%edi)
     ca6: 00 00                        	addb	%al, (%eax)
     ca8: 5d                           	popl	%ebp
     ca9: 13 00                        	adcl	(%eax), %eax
     cab: 00 01                        	addb	%al, (%ecx)
     cad: 01 00                        	addl	%eax, (%eax)
     caf: 00 79 13                     	addb	%bh, 19(%ecx)
     cb2: 00 00                        	addb	%al, (%eax)
     cb4: 01 0f                        	addl	%ecx, (%edi)
     cb6: 00 00                        	addb	%al, (%eax)
     cb8: 89 13                        	movl	%edx, (%ebx)
     cba: 00 00                        	addb	%al, (%eax)
     cbc: 01 0f                        	addl	%ecx, (%edi)
     cbe: 00 00                        	addb	%al, (%eax)
     cc0: 90                           	nop
     cc1: 13 00                        	adcl	(%eax), %eax
     cc3: 00 01                        	addb	%al, (%ecx)
     cc5: 01 00                        	addl	%eax, (%eax)
     cc7: 00 ac 13 00 00 01 0f         	addb	%ch, 251723776(%ebx,%edx)
     cce: 00 00                        	addb	%al, (%eax)
     cd0: c2 13 00                     	retl	$19
     cd3: 00 01                        	addb	%al, (%ecx)
     cd5: 0f 00 00                     	sldtw	(%eax)
     cd8: c9                           	leave
     cd9: 13 00                        	adcl	(%eax), %eax
     cdb: 00 01                        	addb	%al, (%ecx)
     cdd: 01 00                        	addl	%eax, (%eax)
     cdf: 00 f2                        	addb	%dh, %dl
     ce1: 13 00                        	adcl	(%eax), %eax
     ce3: 00 01                        	addb	%al, (%ecx)
     ce5: 01 00                        	addl	%eax, (%eax)
     ce7: 00 0a                        	addb	%cl, (%edx)
     ce9: 14 00                        	adcb	$0, %al
     ceb: 00 01                        	addb	%al, (%ecx)
     ced: 0f 00 00                     	sldtw	(%eax)
     cf0: 11 14 00                     	adcl	%edx, (%eax,%eax)
     cf3: 00 01                        	addb	%al, (%ecx)
     cf5: 01 00                        	addl	%eax, (%eax)
     cf7: 00 55 14                     	addb	%dl, 20(%ebp)
     cfa: 00 00                        	addb	%al, (%eax)
     cfc: 01 0f                        	addl	%ecx, (%edi)
     cfe: 00 00                        	addb	%al, (%eax)
     d00: 5c                           	popl	%esp
     d01: 14 00                        	adcb	$0, %al
     d03: 00 01                        	addb	%al, (%ecx)
     d05: 01 00                        	addl	%eax, (%eax)
     d07: 00 78 14                     	addb	%bh, 20(%eax)
     d0a: 00 00                        	addb	%al, (%eax)
     d0c: 01 01                        	addl	%eax, (%ecx)
     d0e: 00 00                        	addb	%al, (%eax)
     d10: 8e 14 00                     	movw	(%eax,%eax), %ss
     d13: 00 01                        	addb	%al, (%ecx)
     d15: 01 00                        	addl	%eax, (%eax)
     d17: 00 a7 14 00 00 01            	addb	%ah, 16777236(%edi)
     d1d: 0f 00 00                     	sldtw	(%eax)
     d20: ae                           	scasb	%es:(%edi), %al
     d21: 14 00                        	adcb	$0, %al
     d23: 00 01                        	addb	%al, (%ecx)
     d25: 01 00                        	addl	%eax, (%eax)
     d27: 00 cd                        	addb	%cl, %ch
     d29: 14 00                        	adcb	$0, %al
     d2b: 00 01                        	addb	%al, (%ecx)
     d2d: 0c 00                        	orb	$0, %al
     d2f: 00 d3                        	addb	%dl, %bl
     d31: 14 00                        	adcb	$0, %al
     d33: 00 01                        	addb	%al, (%ecx)
     d35: 0f 00 00                     	sldtw	(%eax)
     d38: d8 14 00                     	fcoms	(%eax,%eax)
     d3b: 00 01                        	addb	%al, (%ecx)
     d3d: 0f 00 00                     	sldtw	(%eax)
     d40: dc 14 00                     	fcoml	(%eax,%eax)
     d43: 00 01                        	addb	%al, (%ecx)
     d45: 0f 00 00                     	sldtw	(%eax)
     d48: e0 14                        	loopne	0xd5e <.rel.debug_info+0xd5e>
     d4a: 00 00                        	addb	%al, (%eax)
     d4c: 01 01                        	addl	%eax, (%ecx)
     d4e: 00 00                        	addb	%al, (%eax)
     d50: e8 14 00 00 01               	calll	0x1000d69 <.rel.debug_info+0x1000d69>
     d55: 0d 00 00 ed 14               	orl	$351076352, %eax        # imm = 0x14ED0000
     d5a: 00 00                        	addb	%al, (%eax)
     d5c: 01 0f                        	addl	%ecx, (%edi)
     d5e: 00 00                        	addb	%al, (%eax)
     d60: 00 15 00 00 01 0f            	addb	%dl, 251723776
     d66: 00 00                        	addb	%al, (%eax)
     d68: 07                           	popl	%es
     d69: 15 00 00 01 0f               	adcl	$251723776, %eax        # imm = 0xF010000
     d6e: 00 00                        	addb	%al, (%eax)
     d70: 0c 15                        	orb	$21, %al
     d72: 00 00                        	addb	%al, (%eax)
     d74: 01 0f                        	addl	%ecx, (%edi)
     d76: 00 00                        	addb	%al, (%eax)
     d78: 1a 15 00 00 01 0f            	sbbb	251723776, %dl
     d7e: 00 00                        	addb	%al, (%eax)
     d80: 21 15 00 00 01 0f            	andl	%edx, 251723776
     d86: 00 00                        	addb	%al, (%eax)
     d88: 26 15 00 00 01 0f            	adcl	$251723776, %eax        # imm = 0xF010000
     d8e: 00 00                        	addb	%al, (%eax)
     d90: 32 15 00 00 01 0f            	xorb	251723776, %dl
     d96: 00 00                        	addb	%al, (%eax)
     d98: 43                           	incl	%ebx
     d99: 15 00 00 01 0f               	adcl	$251723776, %eax        # imm = 0xF010000
     d9e: 00 00                        	addb	%al, (%eax)
     da0: 50                           	pushl	%eax
     da1: 15 00 00 01 0f               	adcl	$251723776, %eax        # imm = 0xF010000
     da6: 00 00                        	addb	%al, (%eax)
     da8: 5d                           	popl	%ebp
     da9: 15 00 00 01 0f               	adcl	$251723776, %eax        # imm = 0xF010000
     dae: 00 00                        	addb	%al, (%eax)
     db0: 6a 15                        	pushl	$21
     db2: 00 00                        	addb	%al, (%eax)
     db4: 01 0f                        	addl	%ecx, (%edi)
     db6: 00 00                        	addb	%al, (%eax)
     db8: 78 15                        	js	0xdcf <.rel.debug_info+0xdcf>
     dba: 00 00                        	addb	%al, (%eax)
     dbc: 01 0f                        	addl	%ecx, (%edi)
     dbe: 00 00                        	addb	%al, (%eax)
     dc0: 85 15 00 00 01 02            	testl	%edx, 33619968
     dc6: 00 00                        	addb	%al, (%eax)
     dc8: 8a 15 00 00 01 0f            	movb	251723776, %dl
     dce: 00 00                        	addb	%al, (%eax)
     dd0: 97                           	xchgl	%edi, %eax
     dd1: 15 00 00 01 02               	adcl	$33619968, %eax         # imm = 0x2010000
     dd6: 00 00                        	addb	%al, (%eax)
     dd8: 9c                           	pushfl
     dd9: 15 00 00 01 0f               	adcl	$251723776, %eax        # imm = 0xF010000
     dde: 00 00                        	addb	%al, (%eax)
     de0: a9 15 00 00 01               	testl	$16777237, %eax         # imm = 0x1000015
     de5: 02 00                        	addb	(%eax), %al
     de7: 00 ae 15 00 00 01            	addb	%ch, 16777237(%esi)
     ded: 0f 00 00                     	sldtw	(%eax)
     df0: bb 15 00 00 01               	movl	$16777237, %ebx         # imm = 0x1000015
     df5: 02 00                        	addb	(%eax), %al
     df7: 00 c0                        	addb	%al, %al
     df9: 15 00 00 01 0f               	adcl	$251723776, %eax        # imm = 0xF010000
     dfe: 00 00                        	addb	%al, (%eax)
     e00: cd 15                        	int	$21
     e02: 00 00                        	addb	%al, (%eax)
     e04: 01 02                        	addl	%eax, (%edx)
     e06: 00 00                        	addb	%al, (%eax)
     e08: d2 15 00 00 01 0f            	rclb	%cl, 251723776
     e0e: 00 00                        	addb	%al, (%eax)
     e10: df 15 00 00 01 05            	fists	83951616
     e16: 00 00                        	addb	%al, (%eax)
     e18: e4 15                        	inb	$21, %al
     e1a: 00 00                        	addb	%al, (%eax)
     e1c: 01 0f                        	addl	%ecx, (%edi)
     e1e: 00 00                        	addb	%al, (%eax)
     e20: eb 15                        	jmp	0xe37 <.rel.debug_info+0xe37>
     e22: 00 00                        	addb	%al, (%eax)
     e24: 01 01                        	addl	%eax, (%ecx)
     e26: 00 00                        	addb	%al, (%eax)
     e28: 18 16                        	sbbb	%dl, (%esi)
     e2a: 00 00                        	addb	%al, (%eax)
     e2c: 01 0f                        	addl	%ecx, (%edi)
     e2e: 00 00                        	addb	%al, (%eax)
     e30: 2d 16 00 00 01               	subl	$16777238, %eax         # imm = 0x1000016
     e35: 0f 00 00                     	sldtw	(%eax)
     e38: 34 16                        	xorb	$22, %al
     e3a: 00 00                        	addb	%al, (%eax)
     e3c: 01 01                        	addl	%eax, (%ecx)
     e3e: 00 00                        	addb	%al, (%eax)
     e40: 3f                           	aas
     e41: 16                           	pushl	%ss
     e42: 00 00                        	addb	%al, (%eax)
     e44: 01 0f                        	addl	%ecx, (%edi)
     e46: 00 00                        	addb	%al, (%eax)
     e48: 4a                           	decl	%edx
     e49: 16                           	pushl	%ss
     e4a: 00 00                        	addb	%al, (%eax)
     e4c: 01 01                        	addl	%eax, (%ecx)
     e4e: 00 00                        	addb	%al, (%eax)

Disassembly of section .rela.debug_info:

00000000 <.rela.debug_info>:
       0: 06                           	pushl	%es
       1: 00 00                        	addb	%al, (%eax)
       3: 00 01                        	addb	%al, (%ecx)
       5: 0c 00                        	orb	$0, %al
       7: 00 00                        	addb	%al, (%eax)
       9: 00 00                        	addb	%al, (%eax)
       b: 00 0c 00                     	addb	%cl, (%eax,%eax)
       e: 00 00                        	addb	%al, (%eax)
      10: 01 01                        	addl	%eax, (%ecx)
      12: 00 00                        	addb	%al, (%eax)
      14: 00 00                        	addb	%al, (%eax)
      16: 00 00                        	addb	%al, (%eax)
      18: 10 00                        	adcb	%al, (%eax)
      1a: 00 00                        	addb	%al, (%eax)
      1c: 01 01                        	addl	%eax, (%ecx)
      1e: 00 00                        	addb	%al, (%eax)
      20: 00 00                        	addb	%al, (%eax)
      22: 00 00                        	addb	%al, (%eax)
      24: 14 00                        	adcb	$0, %al
      26: 00 00                        	addb	%al, (%eax)
      28: 01 0d 00 00 00 00            	addl	%ecx, 0
      2e: 00 00                        	addb	%al, (%eax)
      30: 3e 00 00                     	addb	%al, %ds:(%eax)
      33: 00 01                        	addb	%al, (%ecx)
      35: 01 00                        	addl	%eax, (%eax)
      37: 00 00                        	addb	%al, (%eax)
      39: 00 00                        	addb	%al, (%eax)
      3b: 00                           	<unknown>

Disassembly of section .debug_abbrev:

00000000 <.debug_abbrev>:
       0: 01 11                        	addl	%edx, (%ecx)
       2: 01 11                        	addl	%edx, (%ecx)
       4: 01 12                        	addl	%edx, (%edx)
       6: 01 10                        	addl	%edx, (%eax)
       8: 06                           	pushl	%es
       9: 03 08                        	addl	(%eax), %ecx
       b: 25 08 13 05 00               	andl	$332552, %eax           # imm = 0x51308
      10: 00 02                        	addb	%al, (%edx)
      12: 2e 00 11                     	addb	%dl, %cs:(%ecx)
      15: 01 40 06                     	addl	%eax, 6(%eax)
      18: 00 00                        	addb	%al, (%eax)
      1a: 00 01                        	addb	%al, (%ecx)
      1c: 11 01                        	adcl	%eax, (%ecx)
      1e: 25 0e 13 0b 03               	andl	$51057422, %eax         # imm = 0x30B130E
      23: 0e                           	pushl	%cs
      24: 1b 0e                        	sbbl	(%esi), %ecx
      26: 11 01                        	adcl	%eax, (%ecx)
      28: 12 06                        	adcb	(%esi), %al
      2a: 10 17                        	adcb	%dl, (%edi)
      2c: 00 00                        	addb	%al, (%eax)
      2e: 02 16                        	addb	(%esi), %dl
      30: 00 03                        	addb	%al, (%ebx)
      32: 0e                           	pushl	%cs
      33: 3a 0b                        	cmpb	(%ebx), %cl
      35: 3b 0b                        	cmpl	(%ebx), %ecx
      37: 39 0b                        	cmpl	%ecx, (%ebx)
      39: 49                           	decl	%ecx
      3a: 13 00                        	adcl	(%eax), %eax
      3c: 00 03                        	addb	%al, (%ebx)
      3e: 24 00                        	andb	$0, %al
      40: 0b 0b                        	orl	(%ebx), %ecx
      42: 3e 0b 03                     	orl	%ds:(%ebx), %eax
      45: 0e                           	pushl	%cs
      46: 00 00                        	addb	%al, (%eax)
      48: 04 13                        	addb	$19, %al
      4a: 01 03                        	addl	%eax, (%ebx)
      4c: 08 0b                        	orb	%cl, (%ebx)
      4e: 0b 3a                        	orl	(%edx), %edi
      50: 0b 3b                        	orl	(%ebx), %edi
      52: 0b 39                        	orl	(%ecx), %edi
      54: 0b 01                        	orl	(%ecx), %eax
      56: 13 00                        	adcl	(%eax), %eax
      58: 00 05 0d 00 03 08            	addb	%al, 134414349
      5e: 3a 0b                        	cmpb	(%ebx), %cl
      60: 3b 0b                        	cmpl	(%ebx), %ecx
      62: 39 0b                        	cmpl	%ecx, (%ebx)
      64: 49                           	decl	%ecx
      65: 13 38                        	adcl	(%eax), %edi
      67: 0b 00                        	orl	(%eax), %eax
      69: 00 06                        	addb	%al, (%esi)
      6b: 0d 00 03 0e 3a               	orl	$973996800, %eax        # imm = 0x3A0E0300
      70: 0b 3b                        	orl	(%ebx), %edi
      72: 0b 39                        	orl	(%ecx), %edi
      74: 0b 49 13                     	orl	19(%ecx), %ecx
      77: 38 0b                        	cmpb	%cl, (%ebx)
      79: 00 00                        	addb	%al, (%eax)
      7b: 07                           	popl	%es
      7c: 16                           	pushl	%ss
      7d: 00 03                        	addb	%al, (%ebx)
      7f: 08 3a                        	orb	%bh, (%edx)
      81: 0b 3b                        	orl	(%ebx), %edi
      83: 0b 39                        	orl	(%ecx), %edi
      85: 0b 49 13                     	orl	19(%ecx), %ecx
      88: 00 00                        	addb	%al, (%eax)
      8a: 08 26                        	orb	%ah, (%esi)
      8c: 00 49 13                     	addb	%cl, 19(%ecx)
      8f: 00 00                        	addb	%al, (%eax)
      91: 09 34 00                     	orl	%esi, (%eax,%eax)
      94: 03 0e                        	addl	(%esi), %ecx
      96: 3a 0b                        	cmpb	(%ebx), %cl
      98: 3b 0b                        	cmpl	(%ebx), %ecx
      9a: 39 0b                        	cmpl	%ecx, (%ebx)
      9c: 49                           	decl	%ecx
      9d: 13 02                        	adcl	(%edx), %eax
      9f: 18 00                        	sbbb	%al, (%eax)
      a1: 00 0a                        	addb	%cl, (%edx)
      a3: 34 00                        	xorb	$0, %al
      a5: 03 08                        	addl	(%eax), %ecx
      a7: 3a 0b                        	cmpb	(%ebx), %cl
      a9: 3b 0b                        	cmpl	(%ebx), %ecx
      ab: 39 0b                        	cmpl	%ecx, (%ebx)
      ad: 49                           	decl	%ecx
      ae: 13 02                        	adcl	(%edx), %eax
      b0: 18 00                        	sbbb	%al, (%eax)
      b2: 00 0b                        	addb	%cl, (%ebx)
      b4: 2e 00 3f                     	addb	%bh, %cs:(%edi)
      b7: 19 03                        	sbbl	%eax, (%ebx)
      b9: 0e                           	pushl	%cs
      ba: 3a 0b                        	cmpb	(%ebx), %cl
      bc: 3b 0b                        	cmpl	(%ebx), %ecx
      be: 39 0b                        	cmpl	%ecx, (%ebx)
      c0: 11 01                        	adcl	%eax, (%ecx)
      c2: 12 06                        	adcb	(%esi), %al
      c4: 40                           	incl	%eax
      c5: 18 97 42 19 00 00            	sbbb	%dl, 6466(%edi)
      cb: 00 01                        	addb	%al, (%ecx)
      cd: 11 01                        	adcl	%eax, (%ecx)
      cf: 25 0e 13 0b 03               	andl	$51057422, %eax         # imm = 0x30B130E
      d4: 0e                           	pushl	%cs
      d5: 1b 0e                        	sbbl	(%esi), %ecx
      d7: 11 01                        	adcl	%eax, (%ecx)
      d9: 12 06                        	adcb	(%esi), %al
      db: 10 17                        	adcb	%dl, (%edi)
      dd: 00 00                        	addb	%al, (%eax)
      df: 02 16                        	addb	(%esi), %dl
      e1: 00 03                        	addb	%al, (%ebx)
      e3: 0e                           	pushl	%cs
      e4: 3a 0b                        	cmpb	(%ebx), %cl
      e6: 3b 0b                        	cmpl	(%ebx), %ecx
      e8: 39 0b                        	cmpl	%ecx, (%ebx)
      ea: 49                           	decl	%ecx
      eb: 13 00                        	adcl	(%eax), %eax
      ed: 00 03                        	addb	%al, (%ebx)
      ef: 26 00 49 13                  	addb	%cl, %es:19(%ecx)
      f3: 00 00                        	addb	%al, (%eax)
      f5: 04 24                        	addb	$36, %al
      f7: 00 0b                        	addb	%cl, (%ebx)
      f9: 0b 3e                        	orl	(%esi), %edi
      fb: 0b 03                        	orl	(%ebx), %eax
      fd: 0e                           	pushl	%cs
      fe: 00 00                        	addb	%al, (%eax)
     100: 05 13 01 03 08               	addl	$134414611, %eax        # imm = 0x8030113
     105: 0b 0b                        	orl	(%ebx), %ecx
     107: 3a 0b                        	cmpb	(%ebx), %cl
     109: 3b 0b                        	cmpl	(%ebx), %ecx
     10b: 39 0b                        	cmpl	%ecx, (%ebx)
     10d: 01 13                        	addl	%edx, (%ebx)
     10f: 00 00                        	addb	%al, (%eax)
     111: 06                           	pushl	%es
     112: 0d 00 03 08 3a               	orl	$973603584, %eax        # imm = 0x3A080300
     117: 0b 3b                        	orl	(%ebx), %edi
     119: 0b 39                        	orl	(%ecx), %edi
     11b: 0b 49 13                     	orl	19(%ecx), %ecx
     11e: 38 0b                        	cmpb	%cl, (%ebx)
     120: 00 00                        	addb	%al, (%eax)
     122: 07                           	popl	%es
     123: 0d 00 03 0e 3a               	orl	$973996800, %eax        # imm = 0x3A0E0300
     128: 0b 3b                        	orl	(%ebx), %edi
     12a: 0b 39                        	orl	(%ecx), %edi
     12c: 0b 49 13                     	orl	19(%ecx), %ecx
     12f: 38 0b                        	cmpb	%cl, (%ebx)
     131: 00 00                        	addb	%al, (%eax)
     133: 08 16                        	orb	%dl, (%esi)
     135: 00 03                        	addb	%al, (%ebx)
     137: 08 3a                        	orb	%bh, (%edx)
     139: 0b 3b                        	orl	(%ebx), %edi
     13b: 0b 39                        	orl	(%ecx), %edi
     13d: 0b 49 13                     	orl	19(%ecx), %ecx
     140: 00 00                        	addb	%al, (%eax)
     142: 09 34 00                     	orl	%esi, (%eax,%eax)
     145: 03 0e                        	addl	(%esi), %ecx
     147: 3a 0b                        	cmpb	(%ebx), %cl
     149: 3b 0b                        	cmpl	(%ebx), %ecx
     14b: 39 0b                        	cmpl	%ecx, (%ebx)
     14d: 49                           	decl	%ecx
     14e: 13 02                        	adcl	(%edx), %eax
     150: 18 00                        	sbbb	%al, (%eax)
     152: 00 0a                        	addb	%cl, (%edx)
     154: 34 00                        	xorb	$0, %al
     156: 03 08                        	addl	(%eax), %ecx
     158: 3a 0b                        	cmpb	(%ebx), %cl
     15a: 3b 0b                        	cmpl	(%ebx), %ecx
     15c: 39 0b                        	cmpl	%ecx, (%ebx)
     15e: 49                           	decl	%ecx
     15f: 13 02                        	adcl	(%edx), %eax
     161: 18 00                        	sbbb	%al, (%eax)
     163: 00 0b                        	addb	%cl, (%ebx)
     165: 01 01                        	addl	%eax, (%ecx)
     167: 49                           	decl	%ecx
     168: 13 01                        	adcl	(%ecx), %eax
     16a: 13 00                        	adcl	(%eax), %eax
     16c: 00 0c 21                     	addb	%cl, (%ecx,%eiz)
     16f: 00 49 13                     	addb	%cl, 19(%ecx)
     172: 2f                           	das
     173: 0b 00                        	orl	(%eax), %eax
     175: 00 0d 2e 01 3f 19            	addb	%cl, 423559470
     17b: 03 0e                        	addl	(%esi), %ecx
     17d: 3a 0b                        	cmpb	(%ebx), %cl
     17f: 3b 0b                        	cmpl	(%ebx), %ecx
     181: 39 0b                        	cmpl	%ecx, (%ebx)
     183: 27                           	daa
     184: 19 11                        	sbbl	%edx, (%ecx)
     186: 01 12                        	addl	%edx, (%edx)
     188: 06                           	pushl	%es
     189: 40                           	incl	%eax
     18a: 18 96 42 19 01 13            	sbbb	%dl, 318839106(%esi)
     190: 00 00                        	addb	%al, (%eax)
     192: 0e                           	pushl	%cs
     193: 05 00 03 08 3a               	addl	$973603584, %eax        # imm = 0x3A080300
     198: 0b 3b                        	orl	(%ebx), %edi
     19a: 0b 39                        	orl	(%ecx), %edi
     19c: 0b 49 13                     	orl	19(%ecx), %ecx
     19f: 02 18                        	addb	(%eax), %bl
     1a1: 00 00                        	addb	%al, (%eax)
     1a3: 0f 05                        	syscall
     1a5: 00 03                        	addb	%al, (%ebx)
     1a7: 0e                           	pushl	%cs
     1a8: 3a 0b                        	cmpb	(%ebx), %cl
     1aa: 3b 0b                        	cmpl	(%ebx), %ecx
     1ac: 39 0b                        	cmpl	%ecx, (%ebx)
     1ae: 49                           	decl	%ecx
     1af: 13 02                        	adcl	(%edx), %eax
     1b1: 18 00                        	sbbb	%al, (%eax)
     1b3: 00 10                        	addb	%dl, (%eax)
     1b5: 0f 00 0b                     	strw	(%ebx)
     1b8: 0b 49 13                     	orl	19(%ecx), %ecx
     1bb: 00 00                        	addb	%al, (%eax)
     1bd: 11 0b                        	adcl	%ecx, (%ebx)
     1bf: 01 11                        	addl	%edx, (%ecx)
     1c1: 01 12                        	addl	%edx, (%edx)
     1c3: 06                           	pushl	%es
     1c4: 00 00                        	addb	%al, (%eax)
     1c6: 00 01                        	addb	%al, (%ecx)
     1c8: 11 01                        	adcl	%eax, (%ecx)
     1ca: 25 0e 13 0b 03               	andl	$51057422, %eax         # imm = 0x30B130E
     1cf: 0e                           	pushl	%cs
     1d0: 1b 0e                        	sbbl	(%esi), %ecx
     1d2: 11 01                        	adcl	%eax, (%ecx)
     1d4: 12 06                        	adcb	(%esi), %al
     1d6: 10 17                        	adcb	%dl, (%edi)
     1d8: 00 00                        	addb	%al, (%eax)
     1da: 02 16                        	addb	(%esi), %dl
     1dc: 00 03                        	addb	%al, (%ebx)
     1de: 0e                           	pushl	%cs
     1df: 3a 0b                        	cmpb	(%ebx), %cl
     1e1: 3b 0b                        	cmpl	(%ebx), %ecx
     1e3: 39 0b                        	cmpl	%ecx, (%ebx)
     1e5: 49                           	decl	%ecx
     1e6: 13 00                        	adcl	(%eax), %eax
     1e8: 00 03                        	addb	%al, (%ebx)
     1ea: 26 00 49 13                  	addb	%cl, %es:19(%ecx)
     1ee: 00 00                        	addb	%al, (%eax)
     1f0: 04 24                        	addb	$36, %al
     1f2: 00 0b                        	addb	%cl, (%ebx)
     1f4: 0b 3e                        	orl	(%esi), %edi
     1f6: 0b 03                        	orl	(%ebx), %eax
     1f8: 0e                           	pushl	%cs
     1f9: 00 00                        	addb	%al, (%eax)
     1fb: 05 13 01 03 08               	addl	$134414611, %eax        # imm = 0x8030113
     200: 0b 0b                        	orl	(%ebx), %ecx
     202: 3a 0b                        	cmpb	(%ebx), %cl
     204: 3b 0b                        	cmpl	(%ebx), %ecx
     206: 39 0b                        	cmpl	%ecx, (%ebx)
     208: 01 13                        	addl	%edx, (%ebx)
     20a: 00 00                        	addb	%al, (%eax)
     20c: 06                           	pushl	%es
     20d: 0d 00 03 08 3a               	orl	$973603584, %eax        # imm = 0x3A080300
     212: 0b 3b                        	orl	(%ebx), %edi
     214: 0b 39                        	orl	(%ecx), %edi
     216: 0b 49 13                     	orl	19(%ecx), %ecx
     219: 38 0b                        	cmpb	%cl, (%ebx)
     21b: 00 00                        	addb	%al, (%eax)
     21d: 07                           	popl	%es
     21e: 0d 00 03 0e 3a               	orl	$973996800, %eax        # imm = 0x3A0E0300
     223: 0b 3b                        	orl	(%ebx), %edi
     225: 0b 39                        	orl	(%ecx), %edi
     227: 0b 49 13                     	orl	19(%ecx), %ecx
     22a: 38 0b                        	cmpb	%cl, (%ebx)
     22c: 00 00                        	addb	%al, (%eax)
     22e: 08 16                        	orb	%dl, (%esi)
     230: 00 03                        	addb	%al, (%ebx)
     232: 08 3a                        	orb	%bh, (%edx)
     234: 0b 3b                        	orl	(%ebx), %edi
     236: 0b 39                        	orl	(%ecx), %edi
     238: 0b 49 13                     	orl	19(%ecx), %ecx
     23b: 00 00                        	addb	%al, (%eax)
     23d: 09 34 00                     	orl	%esi, (%eax,%eax)
     240: 03 0e                        	addl	(%esi), %ecx
     242: 3a 0b                        	cmpb	(%ebx), %cl
     244: 3b 0b                        	cmpl	(%ebx), %ecx
     246: 39 0b                        	cmpl	%ecx, (%ebx)
     248: 49                           	decl	%ecx
     249: 13 02                        	adcl	(%edx), %eax
     24b: 18 00                        	sbbb	%al, (%eax)
     24d: 00 0a                        	addb	%cl, (%edx)
     24f: 34 00                        	xorb	$0, %al
     251: 03 08                        	addl	(%eax), %ecx
     253: 3a 0b                        	cmpb	(%ebx), %cl
     255: 3b 0b                        	cmpl	(%ebx), %ecx
     257: 39 0b                        	cmpl	%ecx, (%ebx)
     259: 49                           	decl	%ecx
     25a: 13 02                        	adcl	(%edx), %eax
     25c: 18 00                        	sbbb	%al, (%eax)
     25e: 00 0b                        	addb	%cl, (%ebx)
     260: 2e 01 3f                     	addl	%edi, %cs:(%edi)
     263: 19 03                        	sbbl	%eax, (%ebx)
     265: 0e                           	pushl	%cs
     266: 3a 0b                        	cmpb	(%ebx), %cl
     268: 3b 0b                        	cmpl	(%ebx), %ecx
     26a: 39 0b                        	cmpl	%ecx, (%ebx)
     26c: 27                           	daa
     26d: 19 11                        	sbbl	%edx, (%ecx)
     26f: 01 12                        	addl	%edx, (%edx)
     271: 06                           	pushl	%es
     272: 40                           	incl	%eax
     273: 18 97 42 19 01 13            	sbbb	%dl, 318839106(%edi)
     279: 00 00                        	addb	%al, (%eax)
     27b: 0c 05                        	orb	$5, %al
     27d: 00 03                        	addb	%al, (%ebx)
     27f: 08 3a                        	orb	%bh, (%edx)
     281: 0b 3b                        	orl	(%ebx), %edi
     283: 0b 39                        	orl	(%ecx), %edi
     285: 0b 49 13                     	orl	19(%ecx), %ecx
     288: 02 18                        	addb	(%eax), %bl
     28a: 00 00                        	addb	%al, (%eax)
     28c: 0d 0f 00 0b 0b               	orl	$185270287, %eax        # imm = 0xB0B000F
     291: 49                           	decl	%ecx
     292: 13 00                        	adcl	(%eax), %eax
     294: 00 0e                        	addb	%cl, (%esi)
     296: 2e 01 3f                     	addl	%edi, %cs:(%edi)
     299: 19 03                        	sbbl	%eax, (%ebx)
     29b: 0e                           	pushl	%cs
     29c: 3a 0b                        	cmpb	(%ebx), %cl
     29e: 3b 0b                        	cmpl	(%ebx), %ecx
     2a0: 39 0b                        	cmpl	%ecx, (%ebx)
     2a2: 11 01                        	adcl	%eax, (%ecx)
     2a4: 12 06                        	adcb	(%esi), %al
     2a6: 40                           	incl	%eax
     2a7: 18 96 42 19 01 13            	sbbb	%dl, 318839106(%esi)
     2ad: 00 00                        	addb	%al, (%eax)
     2af: 0f 0b                        	ud2
     2b1: 01 11                        	addl	%edx, (%ecx)
     2b3: 01 12                        	addl	%edx, (%edx)
     2b5: 06                           	pushl	%es
     2b6: 00 00                        	addb	%al, (%eax)
     2b8: 10 24 00                     	adcb	%ah, (%eax,%eax)
     2bb: 0b 0b                        	orl	(%ebx), %ecx
     2bd: 3e 0b 03                     	orl	%ds:(%ebx), %eax
     2c0: 08 00                        	orb	%al, (%eax)
     2c2: 00 11                        	addb	%dl, (%ecx)
     2c4: 2e 01 3f                     	addl	%edi, %cs:(%edi)
     2c7: 19 03                        	sbbl	%eax, (%ebx)
     2c9: 0e                           	pushl	%cs
     2ca: 3a 0b                        	cmpb	(%ebx), %cl
     2cc: 3b 0b                        	cmpl	(%ebx), %ecx
     2ce: 39 0b                        	cmpl	%ecx, (%ebx)
     2d0: 27                           	daa
     2d1: 19 11                        	sbbl	%edx, (%ecx)
     2d3: 01 12                        	addl	%edx, (%edx)
     2d5: 06                           	pushl	%es
     2d6: 40                           	incl	%eax
     2d7: 18 96 42 19 01 13            	sbbb	%dl, 318839106(%esi)
     2dd: 00 00                        	addb	%al, (%eax)
     2df: 12 05 00 03 0e 3a            	adcb	973996800, %al
     2e5: 0b 3b                        	orl	(%ebx), %edi
     2e7: 0b 39                        	orl	(%ecx), %edi
     2e9: 0b 49 13                     	orl	19(%ecx), %ecx
     2ec: 02 18                        	addb	(%eax), %bl
     2ee: 00 00                        	addb	%al, (%eax)
     2f0: 00 01                        	addb	%al, (%ecx)
     2f2: 11 01                        	adcl	%eax, (%ecx)
     2f4: 25 0e 13 0b 03               	andl	$51057422, %eax         # imm = 0x30B130E
     2f9: 0e                           	pushl	%cs
     2fa: 1b 0e                        	sbbl	(%esi), %ecx
     2fc: 11 01                        	adcl	%eax, (%ecx)
     2fe: 12 06                        	adcb	(%esi), %al
     300: 10 17                        	adcb	%dl, (%edi)
     302: 00 00                        	addb	%al, (%eax)
     304: 02 16                        	addb	(%esi), %dl
     306: 00 03                        	addb	%al, (%ebx)
     308: 0e                           	pushl	%cs
     309: 3a 0b                        	cmpb	(%ebx), %cl
     30b: 3b 0b                        	cmpl	(%ebx), %ecx
     30d: 39 0b                        	cmpl	%ecx, (%ebx)
     30f: 49                           	decl	%ecx
     310: 13 00                        	adcl	(%eax), %eax
     312: 00 03                        	addb	%al, (%ebx)
     314: 26 00 49 13                  	addb	%cl, %es:19(%ecx)
     318: 00 00                        	addb	%al, (%eax)
     31a: 04 24                        	addb	$36, %al
     31c: 00 0b                        	addb	%cl, (%ebx)
     31e: 0b 3e                        	orl	(%esi), %edi
     320: 0b 03                        	orl	(%ebx), %eax
     322: 0e                           	pushl	%cs
     323: 00 00                        	addb	%al, (%eax)
     325: 05 13 01 03 0e               	addl	$235077907, %eax        # imm = 0xE030113
     32a: 0b 0b                        	orl	(%ebx), %ecx
     32c: 3a 0b                        	cmpb	(%ebx), %cl
     32e: 3b 0b                        	cmpl	(%ebx), %ecx
     330: 39 0b                        	cmpl	%ecx, (%ebx)
     332: 01 13                        	addl	%edx, (%ebx)
     334: 00 00                        	addb	%al, (%eax)
     336: 06                           	pushl	%es
     337: 0d 00 03 0e 3a               	orl	$973996800, %eax        # imm = 0x3A0E0300
     33c: 0b 3b                        	orl	(%ebx), %edi
     33e: 0b 39                        	orl	(%ecx), %edi
     340: 0b 49 13                     	orl	19(%ecx), %ecx
     343: 38 0b                        	cmpb	%cl, (%ebx)
     345: 00 00                        	addb	%al, (%eax)
     347: 07                           	popl	%es
     348: 34 00                        	xorb	$0, %al
     34a: 03 0e                        	addl	(%esi), %ecx
     34c: 3a 0b                        	cmpb	(%ebx), %cl
     34e: 3b 0b                        	cmpl	(%ebx), %ecx
     350: 39 0b                        	cmpl	%ecx, (%ebx)
     352: 49                           	decl	%ecx
     353: 13 02                        	adcl	(%edx), %eax
     355: 18 00                        	sbbb	%al, (%eax)
     357: 00 08                        	addb	%cl, (%eax)
     359: 01 01                        	addl	%eax, (%ecx)
     35b: 49                           	decl	%ecx
     35c: 13 01                        	adcl	(%ecx), %eax
     35e: 13 00                        	adcl	(%eax), %eax
     360: 00 09                        	addb	%cl, (%ecx)
     362: 21 00                        	andl	%eax, (%eax)
     364: 49                           	decl	%ecx
     365: 13 2f                        	adcl	(%edi), %ebp
     367: 0b 00                        	orl	(%eax), %eax
     369: 00 0a                        	addb	%cl, (%edx)
     36b: 34 00                        	xorb	$0, %al
     36d: 03 0e                        	addl	(%esi), %ecx
     36f: 3a 0b                        	cmpb	(%ebx), %cl
     371: 3b 0b                        	cmpl	(%ebx), %ecx
     373: 39 0b                        	cmpl	%ecx, (%ebx)
     375: 49                           	decl	%ecx
     376: 13 3f                        	adcl	(%edi), %edi
     378: 19 02                        	sbbl	%eax, (%edx)
     37a: 18 00                        	sbbb	%al, (%eax)
     37c: 00 0b                        	addb	%cl, (%ebx)
     37e: 2e 01 3f                     	addl	%edi, %cs:(%edi)
     381: 19 03                        	sbbl	%eax, (%ebx)
     383: 0e                           	pushl	%cs
     384: 3a 0b                        	cmpb	(%ebx), %cl
     386: 3b 0b                        	cmpl	(%ebx), %ecx
     388: 39 0b                        	cmpl	%ecx, (%ebx)
     38a: 11 01                        	adcl	%eax, (%ecx)
     38c: 12 06                        	adcb	(%esi), %al
     38e: 40                           	incl	%eax
     38f: 18 96 42 19 01 13            	sbbb	%dl, 318839106(%esi)
     395: 00 00                        	addb	%al, (%eax)
     397: 0c 0b                        	orb	$11, %al
     399: 01 11                        	addl	%edx, (%ecx)
     39b: 01 12                        	addl	%edx, (%edx)
     39d: 06                           	pushl	%es
     39e: 00 00                        	addb	%al, (%eax)
     3a0: 0d 34 00 03 08               	orl	$134414388, %eax        # imm = 0x8030034
     3a5: 3a 0b                        	cmpb	(%ebx), %cl
     3a7: 3b 0b                        	cmpl	(%ebx), %ecx
     3a9: 39 0b                        	cmpl	%ecx, (%ebx)
     3ab: 49                           	decl	%ecx
     3ac: 13 02                        	adcl	(%edx), %eax
     3ae: 18 00                        	sbbb	%al, (%eax)
     3b0: 00 0e                        	addb	%cl, (%esi)
     3b2: 2e 01 3f                     	addl	%edi, %cs:(%edi)
     3b5: 19 03                        	sbbl	%eax, (%ebx)
     3b7: 0e                           	pushl	%cs
     3b8: 3a 0b                        	cmpb	(%ebx), %cl
     3ba: 3b 0b                        	cmpl	(%ebx), %ecx
     3bc: 39 0b                        	cmpl	%ecx, (%ebx)
     3be: 27                           	daa
     3bf: 19 11                        	sbbl	%edx, (%ecx)
     3c1: 01 12                        	addl	%edx, (%edx)
     3c3: 06                           	pushl	%es
     3c4: 40                           	incl	%eax
     3c5: 18 97 42 19 01 13            	sbbb	%dl, 318839106(%edi)
     3cb: 00 00                        	addb	%al, (%eax)
     3cd: 0f 05                        	syscall
     3cf: 00 03                        	addb	%al, (%ebx)
     3d1: 0e                           	pushl	%cs
     3d2: 3a 0b                        	cmpb	(%ebx), %cl
     3d4: 3b 0b                        	cmpl	(%ebx), %ecx
     3d6: 39 0b                        	cmpl	%ecx, (%ebx)
     3d8: 49                           	decl	%ecx
     3d9: 13 02                        	adcl	(%edx), %eax
     3db: 18 00                        	sbbb	%al, (%eax)
     3dd: 00 10                        	addb	%dl, (%eax)
     3df: 24 00                        	andb	$0, %al
     3e1: 0b 0b                        	orl	(%ebx), %ecx
     3e3: 3e 0b 03                     	orl	%ds:(%ebx), %eax
     3e6: 08 00                        	orb	%al, (%eax)
     3e8: 00 11                        	addb	%dl, (%ecx)
     3ea: 0f 00 0b                     	strw	(%ebx)
     3ed: 0b 00                        	orl	(%eax), %eax
     3ef: 00 12                        	addb	%dl, (%edx)
     3f1: 0f 00 0b                     	strw	(%ebx)
     3f4: 0b 49 13                     	orl	19(%ecx), %ecx
     3f7: 00 00                        	addb	%al, (%eax)
     3f9: 13 2e                        	adcl	(%esi), %ebp
     3fb: 00 3f                        	addb	%bh, (%edi)
     3fd: 19 03                        	sbbl	%eax, (%ebx)
     3ff: 0e                           	pushl	%cs
     400: 3a 0b                        	cmpb	(%ebx), %cl
     402: 3b 0b                        	cmpl	(%ebx), %ecx
     404: 39 0b                        	cmpl	%ecx, (%ebx)
     406: 11 01                        	adcl	%eax, (%ecx)
     408: 12 06                        	adcb	(%esi), %al
     40a: 40                           	incl	%eax
     40b: 18 96 42 19 00 00            	sbbb	%dl, 6466(%esi)
     411: 00 01                        	addb	%al, (%ecx)
     413: 11 01                        	adcl	%eax, (%ecx)
     415: 25 0e 13 0b 03               	andl	$51057422, %eax         # imm = 0x30B130E
     41a: 0e                           	pushl	%cs
     41b: 1b 0e                        	sbbl	(%esi), %ecx
     41d: 11 01                        	adcl	%eax, (%ecx)
     41f: 12 06                        	adcb	(%esi), %al
     421: 10 17                        	adcb	%dl, (%edi)
     423: 00 00                        	addb	%al, (%eax)
     425: 02 16                        	addb	(%esi), %dl
     427: 00 03                        	addb	%al, (%ebx)
     429: 0e                           	pushl	%cs
     42a: 3a 0b                        	cmpb	(%ebx), %cl
     42c: 3b 0b                        	cmpl	(%ebx), %ecx
     42e: 39 0b                        	cmpl	%ecx, (%ebx)
     430: 49                           	decl	%ecx
     431: 13 00                        	adcl	(%eax), %eax
     433: 00 03                        	addb	%al, (%ebx)
     435: 24 00                        	andb	$0, %al
     437: 0b 0b                        	orl	(%ebx), %ecx
     439: 3e 0b 03                     	orl	%ds:(%ebx), %eax
     43c: 0e                           	pushl	%cs
     43d: 00 00                        	addb	%al, (%eax)
     43f: 04 2e                        	addb	$46, %al
     441: 00 3f                        	addb	%bh, (%edi)
     443: 19 03                        	sbbl	%eax, (%ebx)
     445: 0e                           	pushl	%cs
     446: 3a 0b                        	cmpb	(%ebx), %cl
     448: 3b 0b                        	cmpl	(%ebx), %ecx
     44a: 39 0b                        	cmpl	%ecx, (%ebx)
     44c: 11 01                        	adcl	%eax, (%ecx)
     44e: 12 06                        	adcb	(%esi), %al
     450: 40                           	incl	%eax
     451: 18 96 42 19 00 00            	sbbb	%dl, 6466(%esi)
     457: 05 2e 01 3f 19               	addl	$423559470, %eax        # imm = 0x193F012E
     45c: 03 0e                        	addl	(%esi), %ecx
     45e: 3a 0b                        	cmpb	(%ebx), %cl
     460: 3b 0b                        	cmpl	(%ebx), %ecx
     462: 39 0b                        	cmpl	%ecx, (%ebx)
     464: 11 01                        	adcl	%eax, (%ecx)
     466: 12 06                        	adcb	(%esi), %al
     468: 40                           	incl	%eax
     469: 18 96 42 19 00 00            	sbbb	%dl, 6466(%esi)
     46f: 06                           	pushl	%es
     470: 34 00                        	xorb	$0, %al
     472: 03 0e                        	addl	(%esi), %ecx
     474: 3a 0b                        	cmpb	(%ebx), %cl
     476: 3b 0b                        	cmpl	(%ebx), %ecx
     478: 39 0b                        	cmpl	%ecx, (%ebx)
     47a: 49                           	decl	%ecx
     47b: 13 02                        	adcl	(%edx), %eax
     47d: 18 00                        	sbbb	%al, (%eax)
     47f: 00 00                        	addb	%al, (%eax)
     481: 01 11                        	addl	%edx, (%ecx)
     483: 01 25 0e 13 0b 03            	addl	%esp, 51057422
     489: 0e                           	pushl	%cs
     48a: 1b 0e                        	sbbl	(%esi), %ecx
     48c: 11 01                        	adcl	%eax, (%ecx)
     48e: 12 06                        	adcb	(%esi), %al
     490: 10 17                        	adcb	%dl, (%edi)
     492: 00 00                        	addb	%al, (%eax)
     494: 02 16                        	addb	(%esi), %dl
     496: 00 03                        	addb	%al, (%ebx)
     498: 0e                           	pushl	%cs
     499: 3a 0b                        	cmpb	(%ebx), %cl
     49b: 3b 0b                        	cmpl	(%ebx), %ecx
     49d: 39 0b                        	cmpl	%ecx, (%ebx)
     49f: 49                           	decl	%ecx
     4a0: 13 00                        	adcl	(%eax), %eax
     4a2: 00 03                        	addb	%al, (%ebx)
     4a4: 26 00 49 13                  	addb	%cl, %es:19(%ecx)
     4a8: 00 00                        	addb	%al, (%eax)
     4aa: 04 24                        	addb	$36, %al
     4ac: 00 0b                        	addb	%cl, (%ebx)
     4ae: 0b 3e                        	orl	(%esi), %edi
     4b0: 0b 03                        	orl	(%ebx), %eax
     4b2: 0e                           	pushl	%cs
     4b3: 00 00                        	addb	%al, (%eax)
     4b5: 05 13 01 03 0e               	addl	$235077907, %eax        # imm = 0xE030113
     4ba: 0b 0b                        	orl	(%ebx), %ecx
     4bc: 3a 0b                        	cmpb	(%ebx), %cl
     4be: 3b 0b                        	cmpl	(%ebx), %ecx
     4c0: 39 0b                        	cmpl	%ecx, (%ebx)
     4c2: 01 13                        	addl	%edx, (%ebx)
     4c4: 00 00                        	addb	%al, (%eax)
     4c6: 06                           	pushl	%es
     4c7: 0d 00 03 0e 3a               	orl	$973996800, %eax        # imm = 0x3A0E0300
     4cc: 0b 3b                        	orl	(%ebx), %edi
     4ce: 0b 39                        	orl	(%ecx), %edi
     4d0: 0b 49 13                     	orl	19(%ecx), %ecx
     4d3: 38 0b                        	cmpb	%cl, (%ebx)
     4d5: 00 00                        	addb	%al, (%eax)
     4d7: 07                           	popl	%es
     4d8: 0f 00 0b                     	strw	(%ebx)
     4db: 0b 49 13                     	orl	19(%ecx), %ecx
     4de: 00 00                        	addb	%al, (%eax)
     4e0: 08 0f                        	orb	%cl, (%edi)
     4e2: 00 0b                        	addb	%cl, (%ebx)
     4e4: 0b 00                        	orl	(%eax), %eax
     4e6: 00 09                        	addb	%cl, (%ecx)
     4e8: 34 00                        	xorb	$0, %al
     4ea: 03 0e                        	addl	(%esi), %ecx
     4ec: 3a 0b                        	cmpb	(%ebx), %cl
     4ee: 3b 0b                        	cmpl	(%ebx), %ecx
     4f0: 39 0b                        	cmpl	%ecx, (%ebx)
     4f2: 49                           	decl	%ecx
     4f3: 13 02                        	adcl	(%edx), %eax
     4f5: 18 00                        	sbbb	%al, (%eax)
     4f7: 00 0a                        	addb	%cl, (%edx)
     4f9: 2e 01 3f                     	addl	%edi, %cs:(%edi)
     4fc: 19 03                        	sbbl	%eax, (%ebx)
     4fe: 0e                           	pushl	%cs
     4ff: 3a 0b                        	cmpb	(%ebx), %cl
     501: 3b 0b                        	cmpl	(%ebx), %ecx
     503: 39 0b                        	cmpl	%ecx, (%ebx)
     505: 27                           	daa
     506: 19 49 13                     	sbbl	%ecx, 19(%ecx)
     509: 11 01                        	adcl	%eax, (%ecx)
     50b: 12 06                        	adcb	(%esi), %al
     50d: 40                           	incl	%eax
     50e: 18 97 42 19 01 13            	sbbb	%dl, 318839106(%edi)
     514: 00 00                        	addb	%al, (%eax)
     516: 0b 05 00 03 0e 3a            	orl	973996800, %eax
     51c: 0b 3b                        	orl	(%ebx), %edi
     51e: 0b 39                        	orl	(%ecx), %edi
     520: 0b 49 13                     	orl	19(%ecx), %ecx
     523: 02 18                        	addb	(%eax), %bl
     525: 00 00                        	addb	%al, (%eax)
     527: 0c 05                        	orb	$5, %al
     529: 00 03                        	addb	%al, (%ebx)
     52b: 08 3a                        	orb	%bh, (%edx)
     52d: 0b 3b                        	orl	(%ebx), %edi
     52f: 0b 39                        	orl	(%ecx), %edi
     531: 0b 49 13                     	orl	19(%ecx), %ecx
     534: 02 18                        	addb	(%eax), %bl
     536: 00 00                        	addb	%al, (%eax)
     538: 0d 2e 01 3f 19               	orl	$423559470, %eax        # imm = 0x193F012E
     53d: 03 0e                        	addl	(%esi), %ecx
     53f: 3a 0b                        	cmpb	(%ebx), %cl
     541: 3b 0b                        	cmpl	(%ebx), %ecx
     543: 39 0b                        	cmpl	%ecx, (%ebx)
     545: 27                           	daa
     546: 19 49 13                     	sbbl	%ecx, 19(%ecx)
     549: 11 01                        	adcl	%eax, (%ecx)
     54b: 12 06                        	adcb	(%esi), %al
     54d: 40                           	incl	%eax
     54e: 18 96 42 19 01 13            	sbbb	%dl, 318839106(%esi)
     554: 00 00                        	addb	%al, (%eax)
     556: 0e                           	pushl	%cs
     557: 0b 01                        	orl	(%ecx), %eax
     559: 11 01                        	adcl	%eax, (%ecx)
     55b: 12 06                        	adcb	(%esi), %al
     55d: 00 00                        	addb	%al, (%eax)
     55f: 0f 34                        	sysenter
     561: 00 03                        	addb	%al, (%ebx)
     563: 08 3a                        	orb	%bh, (%edx)
     565: 0b 3b                        	orl	(%ebx), %edi
     567: 0b 39                        	orl	(%ecx), %edi
     569: 0b 49 13                     	orl	19(%ecx), %ecx
     56c: 02 18                        	addb	(%eax), %bl
     56e: 00 00                        	addb	%al, (%eax)
     570: 10 2e                        	adcb	%ch, (%esi)
     572: 01 03                        	addl	%eax, (%ebx)
     574: 0e                           	pushl	%cs
     575: 3a 0b                        	cmpb	(%ebx), %cl
     577: 3b 0b                        	cmpl	(%ebx), %ecx
     579: 39 0b                        	cmpl	%ecx, (%ebx)
     57b: 27                           	daa
     57c: 19 49 13                     	sbbl	%ecx, 19(%ecx)
     57f: 11 01                        	adcl	%eax, (%ecx)
     581: 12 06                        	adcb	(%esi), %al
     583: 40                           	incl	%eax
     584: 18 96 42 19 01 13            	sbbb	%dl, 318839106(%esi)
     58a: 00 00                        	addb	%al, (%eax)
     58c: 11 2e                        	adcl	%ebp, (%esi)
     58e: 01 03                        	addl	%eax, (%ebx)
     590: 0e                           	pushl	%cs
     591: 3a 0b                        	cmpb	(%ebx), %cl
     593: 3b 0b                        	cmpl	(%ebx), %ecx
     595: 39 0b                        	cmpl	%ecx, (%ebx)
     597: 27                           	daa
     598: 19 49 13                     	sbbl	%ecx, 19(%ecx)
     59b: 11 01                        	adcl	%eax, (%ecx)
     59d: 12 06                        	adcb	(%esi), %al
     59f: 40                           	incl	%eax
     5a0: 18 97 42 19 01 13            	sbbb	%dl, 318839106(%edi)
     5a6: 00 00                        	addb	%al, (%eax)
     5a8: 12 24 00                     	adcb	(%eax,%eax), %ah
     5ab: 0b 0b                        	orl	(%ebx), %ecx
     5ad: 3e 0b 03                     	orl	%ds:(%ebx), %eax
     5b0: 08 00                        	orb	%al, (%eax)
     5b2: 00 13                        	addb	%dl, (%ebx)
     5b4: 2e 01 03                     	addl	%eax, %cs:(%ebx)
     5b7: 0e                           	pushl	%cs
     5b8: 3a 0b                        	cmpb	(%ebx), %cl
     5ba: 3b 0b                        	cmpl	(%ebx), %ecx
     5bc: 39 0b                        	cmpl	%ecx, (%ebx)
     5be: 27                           	daa
     5bf: 19 49 13                     	sbbl	%ecx, 19(%ecx)
     5c2: 11 01                        	adcl	%eax, (%ecx)
     5c4: 12 06                        	adcb	(%esi), %al
     5c6: 40                           	incl	%eax
     5c7: 18 97 42 19 00 00            	sbbb	%dl, 6466(%edi)
     5cd: 00 01                        	addb	%al, (%ecx)
     5cf: 11 01                        	adcl	%eax, (%ecx)
     5d1: 25 0e 13 0b 03               	andl	$51057422, %eax         # imm = 0x30B130E
     5d6: 0e                           	pushl	%cs
     5d7: 1b 0e                        	sbbl	(%esi), %ecx
     5d9: 11 01                        	adcl	%eax, (%ecx)
     5db: 12 06                        	adcb	(%esi), %al
     5dd: 10 17                        	adcb	%dl, (%edi)
     5df: 00 00                        	addb	%al, (%eax)
     5e1: 02 16                        	addb	(%esi), %dl
     5e3: 00 03                        	addb	%al, (%ebx)
     5e5: 0e                           	pushl	%cs
     5e6: 3a 0b                        	cmpb	(%ebx), %cl
     5e8: 3b 0b                        	cmpl	(%ebx), %ecx
     5ea: 39 0b                        	cmpl	%ecx, (%ebx)
     5ec: 49                           	decl	%ecx
     5ed: 13 00                        	adcl	(%eax), %eax
     5ef: 00 03                        	addb	%al, (%ebx)
     5f1: 26 00 49 13                  	addb	%cl, %es:19(%ecx)
     5f5: 00 00                        	addb	%al, (%eax)
     5f7: 04 24                        	addb	$36, %al
     5f9: 00 0b                        	addb	%cl, (%ebx)
     5fb: 0b 3e                        	orl	(%esi), %edi
     5fd: 0b 03                        	orl	(%ebx), %eax
     5ff: 0e                           	pushl	%cs
     600: 00 00                        	addb	%al, (%eax)
     602: 05 13 01 03 0e               	addl	$235077907, %eax        # imm = 0xE030113
     607: 0b 0b                        	orl	(%ebx), %ecx
     609: 3a 0b                        	cmpb	(%ebx), %cl
     60b: 3b 0b                        	cmpl	(%ebx), %ecx
     60d: 39 0b                        	cmpl	%ecx, (%ebx)
     60f: 01 13                        	addl	%edx, (%ebx)
     611: 00 00                        	addb	%al, (%eax)
     613: 06                           	pushl	%es
     614: 0d 00 03 0e 3a               	orl	$973996800, %eax        # imm = 0x3A0E0300
     619: 0b 3b                        	orl	(%ebx), %edi
     61b: 0b 39                        	orl	(%ecx), %edi
     61d: 0b 49 13                     	orl	19(%ecx), %ecx
     620: 38 0b                        	cmpb	%cl, (%ebx)
     622: 00 00                        	addb	%al, (%eax)
     624: 07                           	popl	%es
     625: 0f 00 0b                     	strw	(%ebx)
     628: 0b 49 13                     	orl	19(%ecx), %ecx
     62b: 00 00                        	addb	%al, (%eax)
     62d: 08 0f                        	orb	%cl, (%edi)
     62f: 00 0b                        	addb	%cl, (%ebx)
     631: 0b 00                        	orl	(%eax), %eax
     633: 00 09                        	addb	%cl, (%ecx)
     635: 34 00                        	xorb	$0, %al
     637: 03 0e                        	addl	(%esi), %ecx
     639: 3a 0b                        	cmpb	(%ebx), %cl
     63b: 3b 0b                        	cmpl	(%ebx), %ecx
     63d: 39 0b                        	cmpl	%ecx, (%ebx)
     63f: 49                           	decl	%ecx
     640: 13 02                        	adcl	(%edx), %eax
     642: 18 00                        	sbbb	%al, (%eax)
     644: 00 0a                        	addb	%cl, (%edx)
     646: 34 00                        	xorb	$0, %al
     648: 03 0e                        	addl	(%esi), %ecx
     64a: 3a 0b                        	cmpb	(%ebx), %cl
     64c: 3b 0b                        	cmpl	(%ebx), %ecx
     64e: 39 0b                        	cmpl	%ecx, (%ebx)
     650: 49                           	decl	%ecx
     651: 13 3f                        	adcl	(%edi), %edi
     653: 19 02                        	sbbl	%eax, (%edx)
     655: 18 00                        	sbbb	%al, (%eax)
     657: 00 0b                        	addb	%cl, (%ebx)
     659: 2e 01 3f                     	addl	%edi, %cs:(%edi)
     65c: 19 03                        	sbbl	%eax, (%ebx)
     65e: 0e                           	pushl	%cs
     65f: 3a 0b                        	cmpb	(%ebx), %cl
     661: 3b 0b                        	cmpl	(%ebx), %ecx
     663: 39 0b                        	cmpl	%ecx, (%ebx)
     665: 11 01                        	adcl	%eax, (%ecx)
     667: 12 06                        	adcb	(%esi), %al
     669: 40                           	incl	%eax
     66a: 18 96 42 19 01 13            	sbbb	%dl, 318839106(%esi)
     670: 00 00                        	addb	%al, (%eax)
     672: 0c 34                        	orb	$52, %al
     674: 00 03                        	addb	%al, (%ebx)
     676: 08 3a                        	orb	%bh, (%edx)
     678: 0b 3b                        	orl	(%ebx), %edi
     67a: 0b 39                        	orl	(%ecx), %edi
     67c: 0b 49 13                     	orl	19(%ecx), %ecx
     67f: 02 18                        	addb	(%eax), %bl
     681: 00 00                        	addb	%al, (%eax)
     683: 0d 24 00 0b 0b               	orl	$185270308, %eax        # imm = 0xB0B0024
     688: 3e 0b 03                     	orl	%ds:(%ebx), %eax
     68b: 08 00                        	orb	%al, (%eax)
     68d: 00 00                        	addb	%al, (%eax)
     68f: 01 11                        	addl	%edx, (%ecx)
     691: 01 25 0e 13 0b 03            	addl	%esp, 51057422
     697: 0e                           	pushl	%cs
     698: 1b 0e                        	sbbl	(%esi), %ecx
     69a: 11 01                        	adcl	%eax, (%ecx)
     69c: 12 06                        	adcb	(%esi), %al
     69e: 10 17                        	adcb	%dl, (%edi)
     6a0: 00 00                        	addb	%al, (%eax)
     6a2: 02 24 00                     	addb	(%eax,%eax), %ah
     6a5: 0b 0b                        	orl	(%ebx), %ecx
     6a7: 3e 0b 03                     	orl	%ds:(%ebx), %eax
     6aa: 0e                           	pushl	%cs
     6ab: 00 00                        	addb	%al, (%eax)
     6ad: 03 16                        	addl	(%esi), %edx
     6af: 00 03                        	addb	%al, (%ebx)
     6b1: 0e                           	pushl	%cs
     6b2: 3a 0b                        	cmpb	(%ebx), %cl
     6b4: 3b 0b                        	cmpl	(%ebx), %ecx
     6b6: 39 0b                        	cmpl	%ecx, (%ebx)
     6b8: 49                           	decl	%ecx
     6b9: 13 00                        	adcl	(%eax), %eax
     6bb: 00 04 2e                     	addb	%al, (%esi,%ebp)
     6be: 01 3f                        	addl	%edi, (%edi)
     6c0: 19 03                        	sbbl	%eax, (%ebx)
     6c2: 0e                           	pushl	%cs
     6c3: 3a 0b                        	cmpb	(%ebx), %cl
     6c5: 3b 0b                        	cmpl	(%ebx), %ecx
     6c7: 39 0b                        	cmpl	%ecx, (%ebx)
     6c9: 27                           	daa
     6ca: 19 49 13                     	sbbl	%ecx, 19(%ecx)
     6cd: 11 01                        	adcl	%eax, (%ecx)
     6cf: 12 06                        	adcb	(%esi), %al
     6d1: 40                           	incl	%eax
     6d2: 18 97 42 19 01 13            	sbbb	%dl, 318839106(%edi)
     6d8: 00 00                        	addb	%al, (%eax)
     6da: 05 05 00 03 08               	addl	$134414341, %eax        # imm = 0x8030005
     6df: 3a 0b                        	cmpb	(%ebx), %cl
     6e1: 3b 0b                        	cmpl	(%ebx), %ecx
     6e3: 39 0b                        	cmpl	%ecx, (%ebx)
     6e5: 49                           	decl	%ecx
     6e6: 13 02                        	adcl	(%edx), %eax
     6e8: 18 00                        	sbbb	%al, (%eax)
     6ea: 00 06                        	addb	%al, (%esi)
     6ec: 05 00 03 0e 3a               	addl	$973996800, %eax        # imm = 0x3A0E0300
     6f1: 0b 3b                        	orl	(%ebx), %edi
     6f3: 0b 39                        	orl	(%ecx), %edi
     6f5: 0b 49 13                     	orl	19(%ecx), %ecx
     6f8: 02 18                        	addb	(%eax), %bl
     6fa: 00 00                        	addb	%al, (%eax)
     6fc: 07                           	popl	%es
     6fd: 34 00                        	xorb	$0, %al
     6ff: 03 0e                        	addl	(%esi), %ecx
     701: 3a 0b                        	cmpb	(%ebx), %cl
     703: 3b 0b                        	cmpl	(%ebx), %ecx
     705: 39 0b                        	cmpl	%ecx, (%ebx)
     707: 49                           	decl	%ecx
     708: 13 02                        	adcl	(%edx), %eax
     70a: 18 00                        	sbbb	%al, (%eax)
     70c: 00 08                        	addb	%cl, (%eax)
     70e: 0b 01                        	orl	(%ecx), %eax
     710: 11 01                        	adcl	%eax, (%ecx)
     712: 12 06                        	adcb	(%esi), %al
     714: 00 00                        	addb	%al, (%eax)
     716: 09 34 00                     	orl	%esi, (%eax,%eax)
     719: 03 08                        	addl	(%eax), %ecx
     71b: 3a 0b                        	cmpb	(%ebx), %cl
     71d: 3b 0b                        	cmpl	(%ebx), %ecx
     71f: 39 0b                        	cmpl	%ecx, (%ebx)
     721: 49                           	decl	%ecx
     722: 13 02                        	adcl	(%edx), %eax
     724: 18 00                        	sbbb	%al, (%eax)
     726: 00 0a                        	addb	%cl, (%edx)
     728: 0f 00 0b                     	strw	(%ebx)
     72b: 0b 00                        	orl	(%eax), %eax
     72d: 00 0b                        	addb	%cl, (%ebx)
     72f: 24 00                        	andb	$0, %al
     731: 0b 0b                        	orl	(%ebx), %ecx
     733: 3e 0b 03                     	orl	%ds:(%ebx), %eax
     736: 08 00                        	orb	%al, (%eax)
     738: 00 0c 0f                     	addb	%cl, (%edi,%ecx)
     73b: 00 0b                        	addb	%cl, (%ebx)
     73d: 0b 49 13                     	orl	19(%ecx), %ecx
     740: 00 00                        	addb	%al, (%eax)
     742: 00 01                        	addb	%al, (%ecx)
     744: 11 01                        	adcl	%eax, (%ecx)
     746: 25 0e 13 0b 03               	andl	$51057422, %eax         # imm = 0x30B130E
     74b: 0e                           	pushl	%cs
     74c: 1b 0e                        	sbbl	(%esi), %ecx
     74e: 11 01                        	adcl	%eax, (%ecx)
     750: 12 06                        	adcb	(%esi), %al
     752: 10 17                        	adcb	%dl, (%edi)
     754: 00 00                        	addb	%al, (%eax)
     756: 02 24 00                     	addb	(%eax,%eax), %ah
     759: 0b 0b                        	orl	(%ebx), %ecx
     75b: 3e 0b 03                     	orl	%ds:(%ebx), %eax
     75e: 0e                           	pushl	%cs
     75f: 00 00                        	addb	%al, (%eax)
     761: 03 16                        	addl	(%esi), %edx
     763: 00 03                        	addb	%al, (%ebx)
     765: 0e                           	pushl	%cs
     766: 3a 0b                        	cmpb	(%ebx), %cl
     768: 3b 0b                        	cmpl	(%ebx), %ecx
     76a: 39 0b                        	cmpl	%ecx, (%ebx)
     76c: 49                           	decl	%ecx
     76d: 13 00                        	adcl	(%eax), %eax
     76f: 00 04 2e                     	addb	%al, (%esi,%ebp)
     772: 01 3f                        	addl	%edi, (%edi)
     774: 19 03                        	sbbl	%eax, (%ebx)
     776: 0e                           	pushl	%cs
     777: 3a 0b                        	cmpb	(%ebx), %cl
     779: 3b 0b                        	cmpl	(%ebx), %ecx
     77b: 39 0b                        	cmpl	%ecx, (%ebx)
     77d: 27                           	daa
     77e: 19 49 13                     	sbbl	%ecx, 19(%ecx)
     781: 11 01                        	adcl	%eax, (%ecx)
     783: 12 06                        	adcb	(%esi), %al
     785: 40                           	incl	%eax
     786: 18 97 42 19 01 13            	sbbb	%dl, 318839106(%edi)
     78c: 00 00                        	addb	%al, (%eax)
     78e: 05 05 00 03 0e               	addl	$235077637, %eax        # imm = 0xE030005
     793: 3a 0b                        	cmpb	(%ebx), %cl
     795: 3b 0b                        	cmpl	(%ebx), %ecx
     797: 39 0b                        	cmpl	%ecx, (%ebx)
     799: 49                           	decl	%ecx
     79a: 13 02                        	adcl	(%edx), %eax
     79c: 18 00                        	sbbb	%al, (%eax)
     79e: 00 06                        	addb	%al, (%esi)
     7a0: 34 00                        	xorb	$0, %al
     7a2: 03 08                        	addl	(%eax), %ecx
     7a4: 3a 0b                        	cmpb	(%ebx), %cl
     7a6: 3b 0b                        	cmpl	(%ebx), %ecx
     7a8: 39 0b                        	cmpl	%ecx, (%ebx)
     7aa: 49                           	decl	%ecx
     7ab: 13 02                        	adcl	(%edx), %eax
     7ad: 18 00                        	sbbb	%al, (%eax)
     7af: 00 07                        	addb	%al, (%edi)
     7b1: 0f 00 0b                     	strw	(%ebx)
     7b4: 0b 49 13                     	orl	19(%ecx), %ecx
     7b7: 00 00                        	addb	%al, (%eax)
     7b9: 08 26                        	orb	%ah, (%esi)
     7bb: 00 49 13                     	addb	%cl, 19(%ecx)
     7be: 00 00                        	addb	%al, (%eax)
     7c0: 00 01                        	addb	%al, (%ecx)
     7c2: 11 01                        	adcl	%eax, (%ecx)
     7c4: 25 0e 13 0b 03               	andl	$51057422, %eax         # imm = 0x30B130E
     7c9: 0e                           	pushl	%cs
     7ca: 1b 0e                        	sbbl	(%esi), %ecx
     7cc: 11 01                        	adcl	%eax, (%ecx)
     7ce: 12 06                        	adcb	(%esi), %al
     7d0: 10 17                        	adcb	%dl, (%edi)
     7d2: 00 00                        	addb	%al, (%eax)
     7d4: 02 16                        	addb	(%esi), %dl
     7d6: 00 03                        	addb	%al, (%ebx)
     7d8: 0e                           	pushl	%cs
     7d9: 3a 0b                        	cmpb	(%ebx), %cl
     7db: 3b 0b                        	cmpl	(%ebx), %ecx
     7dd: 39 0b                        	cmpl	%ecx, (%ebx)
     7df: 49                           	decl	%ecx
     7e0: 13 00                        	adcl	(%eax), %eax
     7e2: 00 03                        	addb	%al, (%ebx)
     7e4: 26 00 49 13                  	addb	%cl, %es:19(%ecx)
     7e8: 00 00                        	addb	%al, (%eax)
     7ea: 04 24                        	addb	$36, %al
     7ec: 00 0b                        	addb	%cl, (%ebx)
     7ee: 0b 3e                        	orl	(%esi), %edi
     7f0: 0b 03                        	orl	(%ebx), %eax
     7f2: 0e                           	pushl	%cs
     7f3: 00 00                        	addb	%al, (%eax)
     7f5: 05 13 01 03 0e               	addl	$235077907, %eax        # imm = 0xE030113
     7fa: 0b 0b                        	orl	(%ebx), %ecx
     7fc: 3a 0b                        	cmpb	(%ebx), %cl
     7fe: 3b 0b                        	cmpl	(%ebx), %ecx
     800: 39 0b                        	cmpl	%ecx, (%ebx)
     802: 01 13                        	addl	%edx, (%ebx)
     804: 00 00                        	addb	%al, (%eax)
     806: 06                           	pushl	%es
     807: 0d 00 03 0e 3a               	orl	$973996800, %eax        # imm = 0x3A0E0300
     80c: 0b 3b                        	orl	(%ebx), %edi
     80e: 0b 39                        	orl	(%ecx), %edi
     810: 0b 49 13                     	orl	19(%ecx), %ecx
     813: 38 0b                        	cmpb	%cl, (%ebx)
     815: 00 00                        	addb	%al, (%eax)
     817: 07                           	popl	%es
     818: 34 00                        	xorb	$0, %al
     81a: 03 0e                        	addl	(%esi), %ecx
     81c: 3a 0b                        	cmpb	(%ebx), %cl
     81e: 3b 0b                        	cmpl	(%ebx), %ecx
     820: 39 0b                        	cmpl	%ecx, (%ebx)
     822: 49                           	decl	%ecx
     823: 13 02                        	adcl	(%edx), %eax
     825: 18 00                        	sbbb	%al, (%eax)
     827: 00 08                        	addb	%cl, (%eax)
     829: 34 00                        	xorb	$0, %al
     82b: 03 0e                        	addl	(%esi), %ecx
     82d: 3a 0b                        	cmpb	(%ebx), %cl
     82f: 3b 0b                        	cmpl	(%ebx), %ecx
     831: 39 0b                        	cmpl	%ecx, (%ebx)
     833: 49                           	decl	%ecx
     834: 13 3f                        	adcl	(%edi), %edi
     836: 19 02                        	sbbl	%eax, (%edx)
     838: 18 00                        	sbbb	%al, (%eax)
     83a: 00 09                        	addb	%cl, (%ecx)
     83c: 0f 00 0b                     	strw	(%ebx)
     83f: 0b 49 13                     	orl	19(%ecx), %ecx
     842: 00 00                        	addb	%al, (%eax)
     844: 0a 2e                        	orb	(%esi), %ch
     846: 01 3f                        	addl	%edi, (%edi)
     848: 19 03                        	sbbl	%eax, (%ebx)
     84a: 0e                           	pushl	%cs
     84b: 3a 0b                        	cmpb	(%ebx), %cl
     84d: 3b 0b                        	cmpl	(%ebx), %ecx
     84f: 39 0b                        	cmpl	%ecx, (%ebx)
     851: 27                           	daa
     852: 19 11                        	sbbl	%edx, (%ecx)
     854: 01 12                        	addl	%edx, (%edx)
     856: 06                           	pushl	%es
     857: 40                           	incl	%eax
     858: 18 96 42 19 01 13            	sbbb	%dl, 318839106(%esi)
     85e: 00 00                        	addb	%al, (%eax)
     860: 0b 05 00 03 0e 3a            	orl	973996800, %eax
     866: 0b 3b                        	orl	(%ebx), %edi
     868: 0b 39                        	orl	(%ecx), %edi
     86a: 0b 49 13                     	orl	19(%ecx), %ecx
     86d: 02 18                        	addb	(%eax), %bl
     86f: 00 00                        	addb	%al, (%eax)
     871: 0c 05                        	orb	$5, %al
     873: 00 03                        	addb	%al, (%ebx)
     875: 08 3a                        	orb	%bh, (%edx)
     877: 0b 3b                        	orl	(%ebx), %edi
     879: 0b 39                        	orl	(%ecx), %edi
     87b: 0b 49 13                     	orl	19(%ecx), %ecx
     87e: 02 18                        	addb	(%eax), %bl
     880: 00 00                        	addb	%al, (%eax)
     882: 0d 2e 00 3f 19               	orl	$423559214, %eax        # imm = 0x193F002E
     887: 03 0e                        	addl	(%esi), %ecx
     889: 3a 0b                        	cmpb	(%ebx), %cl
     88b: 3b 0b                        	cmpl	(%ebx), %ecx
     88d: 39 0b                        	cmpl	%ecx, (%ebx)
     88f: 11 01                        	adcl	%eax, (%ecx)
     891: 12 06                        	adcb	(%esi), %al
     893: 40                           	incl	%eax
     894: 18 96 42 19 00 00            	sbbb	%dl, 6466(%esi)
     89a: 0e                           	pushl	%cs
     89b: 2e 01 3f                     	addl	%edi, %cs:(%edi)
     89e: 19 03                        	sbbl	%eax, (%ebx)
     8a0: 0e                           	pushl	%cs
     8a1: 3a 0b                        	cmpb	(%ebx), %cl
     8a3: 3b 0b                        	cmpl	(%ebx), %ecx
     8a5: 39 0b                        	cmpl	%ecx, (%ebx)
     8a7: 27                           	daa
     8a8: 19 49 13                     	sbbl	%ecx, 19(%ecx)
     8ab: 11 01                        	adcl	%eax, (%ecx)
     8ad: 12 06                        	adcb	(%esi), %al
     8af: 40                           	incl	%eax
     8b0: 18 97 42 19 01 13            	sbbb	%dl, 318839106(%edi)
     8b6: 00 00                        	addb	%al, (%eax)
     8b8: 0f 2e 01                     	ucomiss	(%ecx), %xmm0
     8bb: 3f                           	aas
     8bc: 19 03                        	sbbl	%eax, (%ebx)
     8be: 0e                           	pushl	%cs
     8bf: 3a 0b                        	cmpb	(%ebx), %cl
     8c1: 3b 0b                        	cmpl	(%ebx), %ecx
     8c3: 39 0b                        	cmpl	%ecx, (%ebx)
     8c5: 27                           	daa
     8c6: 19 11                        	sbbl	%edx, (%ecx)
     8c8: 01 12                        	addl	%edx, (%edx)
     8ca: 06                           	pushl	%es
     8cb: 40                           	incl	%eax
     8cc: 18 97 42 19 01 13            	sbbb	%dl, 318839106(%edi)
     8d2: 00 00                        	addb	%al, (%eax)
     8d4: 10 0b                        	adcb	%cl, (%ebx)
     8d6: 01 11                        	addl	%edx, (%ecx)
     8d8: 01 12                        	addl	%edx, (%edx)
     8da: 06                           	pushl	%es
     8db: 00 00                        	addb	%al, (%eax)
     8dd: 11 34 00                     	adcl	%esi, (%eax,%eax)
     8e0: 03 08                        	addl	(%eax), %ecx
     8e2: 3a 0b                        	cmpb	(%ebx), %cl
     8e4: 3b 0b                        	cmpl	(%ebx), %ecx
     8e6: 39 0b                        	cmpl	%ecx, (%ebx)
     8e8: 49                           	decl	%ecx
     8e9: 13 02                        	adcl	(%edx), %eax
     8eb: 18 00                        	sbbb	%al, (%eax)
     8ed: 00 12                        	addb	%dl, (%edx)
     8ef: 2e 01 3f                     	addl	%edi, %cs:(%edi)
     8f2: 19 03                        	sbbl	%eax, (%ebx)
     8f4: 0e                           	pushl	%cs
     8f5: 3a 0b                        	cmpb	(%ebx), %cl
     8f7: 3b 0b                        	cmpl	(%ebx), %ecx
     8f9: 39 0b                        	cmpl	%ecx, (%ebx)
     8fb: 27                           	daa
     8fc: 19 11                        	sbbl	%edx, (%ecx)
     8fe: 01 12                        	addl	%edx, (%edx)
     900: 06                           	pushl	%es
     901: 40                           	incl	%eax
     902: 18 96 42 19 00 00            	sbbb	%dl, 6466(%esi)
     908: 00 01                        	addb	%al, (%ecx)
     90a: 11 01                        	adcl	%eax, (%ecx)
     90c: 25 0e 13 0b 03               	andl	$51057422, %eax         # imm = 0x30B130E
     911: 0e                           	pushl	%cs
     912: 1b 0e                        	sbbl	(%esi), %ecx
     914: 11 01                        	adcl	%eax, (%ecx)
     916: 12 06                        	adcb	(%esi), %al
     918: 10 17                        	adcb	%dl, (%edi)
     91a: 00 00                        	addb	%al, (%eax)
     91c: 02 16                        	addb	(%esi), %dl
     91e: 00 03                        	addb	%al, (%ebx)
     920: 0e                           	pushl	%cs
     921: 3a 0b                        	cmpb	(%ebx), %cl
     923: 3b 0b                        	cmpl	(%ebx), %ecx
     925: 39 0b                        	cmpl	%ecx, (%ebx)
     927: 49                           	decl	%ecx
     928: 13 00                        	adcl	(%eax), %eax
     92a: 00 03                        	addb	%al, (%ebx)
     92c: 26 00 49 13                  	addb	%cl, %es:19(%ecx)
     930: 00 00                        	addb	%al, (%eax)
     932: 04 24                        	addb	$36, %al
     934: 00 0b                        	addb	%cl, (%ebx)
     936: 0b 3e                        	orl	(%esi), %edi
     938: 0b 03                        	orl	(%ebx), %eax
     93a: 0e                           	pushl	%cs
     93b: 00 00                        	addb	%al, (%eax)
     93d: 05 13 01 03 0e               	addl	$235077907, %eax        # imm = 0xE030113
     942: 0b 0b                        	orl	(%ebx), %ecx
     944: 3a 0b                        	cmpb	(%ebx), %cl
     946: 3b 0b                        	cmpl	(%ebx), %ecx
     948: 39 0b                        	cmpl	%ecx, (%ebx)
     94a: 01 13                        	addl	%edx, (%ebx)
     94c: 00 00                        	addb	%al, (%eax)
     94e: 06                           	pushl	%es
     94f: 0d 00 03 0e 3a               	orl	$973996800, %eax        # imm = 0x3A0E0300
     954: 0b 3b                        	orl	(%ebx), %edi
     956: 0b 39                        	orl	(%ecx), %edi
     958: 0b 49 13                     	orl	19(%ecx), %ecx
     95b: 38 0b                        	cmpb	%cl, (%ebx)
     95d: 00 00                        	addb	%al, (%eax)
     95f: 07                           	popl	%es
     960: 34 00                        	xorb	$0, %al
     962: 03 0e                        	addl	(%esi), %ecx
     964: 3a 0b                        	cmpb	(%ebx), %cl
     966: 3b 0b                        	cmpl	(%ebx), %ecx
     968: 39 0b                        	cmpl	%ecx, (%ebx)
     96a: 49                           	decl	%ecx
     96b: 13 02                        	adcl	(%edx), %eax
     96d: 18 00                        	sbbb	%al, (%eax)
     96f: 00 08                        	addb	%cl, (%eax)
     971: 2e 01 3f                     	addl	%edi, %cs:(%edi)
     974: 19 03                        	sbbl	%eax, (%ebx)
     976: 0e                           	pushl	%cs
     977: 3a 0b                        	cmpb	(%ebx), %cl
     979: 3b 0b                        	cmpl	(%ebx), %ecx
     97b: 39 0b                        	cmpl	%ecx, (%ebx)
     97d: 11 01                        	adcl	%eax, (%ecx)
     97f: 12 06                        	adcb	(%esi), %al
     981: 40                           	incl	%eax
     982: 18 96 42 19 01 13            	sbbb	%dl, 318839106(%esi)
     988: 00 00                        	addb	%al, (%eax)
     98a: 09 34 00                     	orl	%esi, (%eax,%eax)
     98d: 03 08                        	addl	(%eax), %ecx
     98f: 3a 0b                        	cmpb	(%ebx), %cl
     991: 3b 0b                        	cmpl	(%ebx), %ecx
     993: 39 0b                        	cmpl	%ecx, (%ebx)
     995: 49                           	decl	%ecx
     996: 13 02                        	adcl	(%edx), %eax
     998: 18 00                        	sbbb	%al, (%eax)
     99a: 00 0a                        	addb	%cl, (%edx)
     99c: 01 01                        	addl	%eax, (%ecx)
     99e: 49                           	decl	%ecx
     99f: 13 01                        	adcl	(%ecx), %eax
     9a1: 13 00                        	adcl	(%eax), %eax
     9a3: 00 0b                        	addb	%cl, (%ebx)
     9a5: 21 00                        	andl	%eax, (%eax)
     9a7: 49                           	decl	%ecx
     9a8: 13 2f                        	adcl	(%edi), %ebp
     9aa: 0b 00                        	orl	(%eax), %eax
     9ac: 00 0c 2e                     	addb	%cl, (%esi,%ebp)
     9af: 00 03                        	addb	%al, (%ebx)
     9b1: 0e                           	pushl	%cs
     9b2: 3a 0b                        	cmpb	(%ebx), %cl
     9b4: 3b 0b                        	cmpl	(%ebx), %ecx
     9b6: 39 0b                        	cmpl	%ecx, (%ebx)
     9b8: 11 01                        	adcl	%eax, (%ecx)
     9ba: 12 06                        	adcb	(%esi), %al
     9bc: 40                           	incl	%eax
     9bd: 18 97 42 19 00 00            	sbbb	%dl, 6466(%edi)
     9c3: 0d 2e 01 03 0e               	orl	$235077934, %eax        # imm = 0xE03012E
     9c8: 3a 0b                        	cmpb	(%ebx), %cl
     9ca: 3b 0b                        	cmpl	(%ebx), %ecx
     9cc: 39 0b                        	cmpl	%ecx, (%ebx)
     9ce: 27                           	daa
     9cf: 19 49 13                     	sbbl	%ecx, 19(%ecx)
     9d2: 11 01                        	adcl	%eax, (%ecx)
     9d4: 12 06                        	adcb	(%esi), %al
     9d6: 40                           	incl	%eax
     9d7: 18 97 42 19 01 13            	sbbb	%dl, 318839106(%edi)
     9dd: 00 00                        	addb	%al, (%eax)
     9df: 0e                           	pushl	%cs
     9e0: 05 00 03 08 3a               	addl	$973603584, %eax        # imm = 0x3A080300
     9e5: 0b 3b                        	orl	(%ebx), %edi
     9e7: 0b 39                        	orl	(%ecx), %edi
     9e9: 0b 49 13                     	orl	19(%ecx), %ecx
     9ec: 02 18                        	addb	(%eax), %bl
     9ee: 00 00                        	addb	%al, (%eax)
     9f0: 0f 0f 00 0b                  	<unknown>
     9f4: 0b 49 13                     	orl	19(%ecx), %ecx
     9f7: 00 00                        	addb	%al, (%eax)
     9f9: 10 24 00                     	adcb	%ah, (%eax,%eax)
     9fc: 0b 0b                        	orl	(%ebx), %ecx
     9fe: 3e 0b 03                     	orl	%ds:(%ebx), %eax
     a01: 08 00                        	orb	%al, (%eax)
     a03: 00 00                        	addb	%al, (%eax)

Disassembly of section .debug_line:

00000000 <.debug_line>:
       0: 4f                           	decl	%edi
       1: 00 00                        	addb	%al, (%eax)
       3: 00 02                        	addb	%al, (%edx)
       5: 00 2c 00                     	addb	%ch, (%eax,%eax)
       8: 00 00                        	addb	%al, (%eax)
       a: 01 01                        	addl	%eax, (%ecx)
       c: fb                           	sti
       d: 0e                           	pushl	%cs
       e: 0d 00 01 01 01               	orl	$16843008, %eax         # imm = 0x1010100
      13: 01 00                        	addl	%eax, (%eax)
      15: 00 00                        	addb	%al, (%eax)
      17: 01 00                        	addl	%eax, (%eax)
      19: 00 01                        	addb	%al, (%ecx)
      1b: 00 73 72                     	addb	%dh, 114(%ebx)
      1e: 63 2f                        	arpl	%bp, (%edi)
      20: 6b 65 72 6e                  	imull	$110, 114(%ebp), %esp
      24: 65 6c                        	insb	%dx, %es:(%edi)
      26: 2f                           	das
      27: 6b 65 72 6e                  	imull	$110, 114(%ebp), %esp
      2b: 65 6c                        	insb	%dx, %es:(%edi)
      2d: 2e 61                        	popal
      2f: 73 6d                        	jae	0x9e <.debug_line+0x9e>
      31: 00 00                        	addb	%al, (%eax)
      33: 00 00                        	addb	%al, (%eax)
      35: 00 00                        	addb	%al, (%eax)
      37: 05 02 00 00 00               	addl	$2, %eax
      3c: 00 1a                        	addb	%bl, (%edx)
      3e: 4b                           	decl	%ebx
      3f: 2f                           	das
      40: 2f                           	das
      41: 2f                           	das
      42: 2f                           	das
      43: 30 5c 5b 32                  	xorb	%bl, 50(%ebx,%ebx,2)
      47: 2f                           	das
      48: 30 2f                        	xorb	%ch, (%edi)
      4a: 30 2f                        	xorb	%ch, (%edi)
      4c: 2f                           	das
      4d: 25 02 d9 00 01               	andl	$16832770, %eax         # imm = 0x100D902
      52: 01 77 00                     	addl	%esi, (%edi)
      55: 00 00                        	addb	%al, (%eax)
      57: 03 00                        	addl	(%eax), %eax
      59: 5d                           	popl	%ebp
      5a: 00 00                        	addb	%al, (%eax)
      5c: 00 01                        	addb	%al, (%ecx)
      5e: 01 fb                        	addl	%edi, %ebx
      60: 0e                           	pushl	%cs
      61: 0d 00 01 01 01               	orl	$16843008, %eax         # imm = 0x1010100
      66: 01 00                        	addl	%eax, (%eax)
      68: 00 00                        	addb	%al, (%eax)
      6a: 01 00                        	addl	%eax, (%eax)
      6c: 00 01                        	addb	%al, (%ecx)
      6e: 73 72                        	jae	0xe2 <.debug_line+0xe2>
      70: 63 2f                        	arpl	%bp, (%edi)
      72: 6b 65 72 6e                  	imull	$110, 114(%ebp), %esp
      76: 65 6c                        	insb	%dx, %es:(%edi)
      78: 2f                           	das
      79: 67 72 61                     	jb	0xdd <.debug_line+0xdd>
      7c: 70 68                        	jo	0xe6 <.debug_line+0xe6>
      7e: 69 63 73 00 73 72 63         	imull	$1668444928, 115(%ebx), %esp # imm = 0x63727300
      85: 2f                           	das
      86: 6b 65 72 6e                  	imull	$110, 114(%ebp), %esp
      8a: 65 6c                        	insb	%dx, %es:(%edi)
      8c: 2f                           	das
      8d: 74 79                        	je	0x108 <.debug_line+0x108>
      8f: 70 65                        	jo	0xf6 <.debug_line+0xf6>
      91: 73 00                        	jae	0x93 <.debug_line+0x93>
      93: 00 63 6f                     	addb	%ah, 111(%ebx)
      96: 6c                           	insb	%dx, %es:(%edi)
      97: 6f                           	outsl	(%esi), %dx
      98: 75 72                        	jne	0x10c <.debug_line+0x10c>
      9a: 73 2e                        	jae	0xca <.debug_line+0xca>
      9c: 63 00                        	arpl	%ax, (%eax)
      9e: 01 00                        	addl	%eax, (%eax)
      a0: 00 63 6f                     	addb	%ah, 111(%ebx)
      a3: 6c                           	insb	%dx, %es:(%edi)
      a4: 6f                           	outsl	(%esi), %dx
      a5: 75 72                        	jne	0x119 <.debug_line+0x119>
      a7: 73 2e                        	jae	0xd7 <.debug_line+0xd7>
      a9: 68 00 01 00 00               	pushl	$256                    # imm = 0x100
      ae: 74 79                        	je	0x129 <.debug_line+0x129>
      b0: 70 65                        	jo	0x117 <.debug_line+0x117>
      b2: 73 2e                        	jae	0xe2 <.debug_line+0xe2>
      b4: 68 00 02 00 00               	pushl	$512                    # imm = 0x200
      b9: 00 05 15 00 05 02            	addb	%al, 33882133
      bf: 00 02                        	addb	%al, (%edx)
      c1: 00 00                        	addb	%al, (%eax)
      c3: 14 05                        	adcb	$5, %al
      c5: 01 03                        	addl	%eax, (%ebx)
      c7: 14 01                        	adcb	$1, %al
      c9: 02 02                        	addb	(%edx), %al
      cb: 00 01                        	addb	%al, (%ecx)
      cd: 01 e1                        	addl	%esp, %ecx
      cf: 00 00                        	addb	%al, (%eax)
      d1: 00 03                        	addb	%al, (%ebx)
      d3: 00 66 00                     	addb	%ah, (%esi)
      d6: 00 00                        	addb	%al, (%eax)
      d8: 01 01                        	addl	%eax, (%ecx)
      da: fb                           	sti
      db: 0e                           	pushl	%cs
      dc: 0d 00 01 01 01               	orl	$16843008, %eax         # imm = 0x1010100
      e1: 01 00                        	addl	%eax, (%eax)
      e3: 00 00                        	addb	%al, (%eax)
      e5: 01 00                        	addl	%eax, (%eax)
      e7: 00 01                        	addb	%al, (%ecx)
      e9: 73 72                        	jae	0x15d <.debug_line+0x15d>
      eb: 63 2f                        	arpl	%bp, (%edi)
      ed: 6b 65 72 6e                  	imull	$110, 114(%ebp), %esp
      f1: 65 6c                        	insb	%dx, %es:(%edi)
      f3: 2f                           	das
      f4: 67 72 61                     	jb	0x158 <.debug_line+0x158>
      f7: 70 68                        	jo	0x161 <.debug_line+0x161>
      f9: 69 63 73 00 73 72 63         	imull	$1668444928, 115(%ebx), %esp # imm = 0x63727300
     100: 2f                           	das
     101: 6b 65 72 6e                  	imull	$110, 114(%ebp), %esp
     105: 65 6c                        	insb	%dx, %es:(%edi)
     107: 2f                           	das
     108: 74 79                        	je	0x183 <.debug_line+0x183>
     10a: 70 65                        	jo	0x171 <.debug_line+0x171>
     10c: 73 00                        	jae	0x10e <.debug_line+0x10e>
     10e: 00 66 6f                     	addb	%ah, 111(%esi)
     111: 6e                           	outsb	(%esi), %dx
     112: 74 2e                        	je	0x142 <.debug_line+0x142>
     114: 63 00                        	arpl	%ax, (%eax)
     116: 01 00                        	addl	%eax, (%eax)
     118: 00 74 79 70                  	addb	%dh, 112(%ecx,%edi,2)
     11c: 65 73 2e                     	jae	0x14d <.debug_line+0x14d>
     11f: 68 00 02 00 00               	pushl	$512                    # imm = 0x200
     124: 63 6f 6c                     	arpl	%bp, 108(%edi)
     127: 6f                           	outsl	(%esi), %dx
     128: 75 72                        	jne	0x19c <.debug_line+0x19c>
     12a: 73 2e                        	jae	0x15a <.debug_line+0x15a>
     12c: 68 00 01 00 00               	pushl	$256                    # imm = 0x100
     131: 73 63                        	jae	0x196 <.debug_line+0x196>
     133: 72 65                        	jb	0x19a <.debug_line+0x19a>
     135: 65 6e                        	outsb	%gs:(%esi), %dx
     137: 2e 68 00 01 00 00            	pushl	$256                    # imm = 0x100
     13d: 00 05 39 00 05 02            	addb	%al, 33882169
     143: 10 02                        	adcb	%al, (%edx)
     145: 00 00                        	addb	%al, (%eax)
     147: 03 a3 01 01 05 1d            	addl	486867201(%ebx), %esp
     14d: 03 0c 08                     	addl	(%eax,%ecx), %ecx
     150: 2e 05 10 82 05 0f            	addl	$252019216, %eax        # imm = 0xF058210
     156: bc 05 03 82 05               	movl	$92406533, %esp         # imm = 0x5820305
     15b: 11 2f                        	adcl	%ebp, (%edi)
     15d: 05 05 82 05 10               	addl	$268796421, %eax        # imm = 0x10058205
     162: 2f                           	das
     163: 05 0b f2 05 0a               	addl	$168161803, %eax        # imm = 0xA05F20B
     168: c8 05 25 4b                  	enter	$9477, $75              # imm = 0x2505
     16c: 05 09 ba 05 1d               	addl	$486914569, %eax        # imm = 0x1D05BA09
     171: 3c 05                        	cmpb	$5, %al
     173: 09 ba 05 24 00 02            	orl	%edi, 33563653(%edx)
     179: 04 02                        	addb	$2, %al
     17b: 08 80 05 05 00 02            	orb	%al, 33555717(%eax)
     181: 04 01                        	addb	$1, %al
     183: 58                           	popl	%eax
     184: 05 22 00 02 04               	addl	$67239970, %eax         # imm = 0x4020022
     189: 02 73 05                     	addb	5(%ebx), %dh
     18c: 03 00                        	addl	(%eax), %eax
     18e: 02 04 01                     	addb	(%ecx,%eax), %al
     191: 58                           	popl	%eax
     192: 05 01 7b 05 3f               	addl	$1057323777, %eax       # imm = 0x3F057B01
     197: 84 05 09 af 05 05            	testb	%al, 84258569
     19d: 2f                           	das
     19e: 05 07 08 ad 05               	addl	$95225863, %eax         # imm = 0x5AD0807
     1a3: 11 56 05                     	adcl	%edx, 5(%esi)
     1a6: 0d ac 05 09 74               	orl	$1946748332, %eax       # imm = 0x740905AC
     1ab: 05 01 78 02 06               	addl	$100825089, %eax        # imm = 0x6027801
     1b0: 00 01                        	addb	%al, (%ecx)
     1b2: 01 5b 01                     	addl	%ebx, 1(%ebx)
     1b5: 00 00                        	addb	%al, (%eax)
     1b7: 03 00                        	addl	(%eax), %eax
     1b9: 68 00 00 00 01               	pushl	$16777216               # imm = 0x1000000
     1be: 01 fb                        	addl	%edi, %ebx
     1c0: 0e                           	pushl	%cs
     1c1: 0d 00 01 01 01               	orl	$16843008, %eax         # imm = 0x1010100
     1c6: 01 00                        	addl	%eax, (%eax)
     1c8: 00 00                        	addb	%al, (%eax)
     1ca: 01 00                        	addl	%eax, (%eax)
     1cc: 00 01                        	addb	%al, (%ecx)
     1ce: 73 72                        	jae	0x242 <.debug_line+0x242>
     1d0: 63 2f                        	arpl	%bp, (%edi)
     1d2: 6b 65 72 6e                  	imull	$110, 114(%ebp), %esp
     1d6: 65 6c                        	insb	%dx, %es:(%edi)
     1d8: 2f                           	das
     1d9: 67 72 61                     	jb	0x23d <.debug_line+0x23d>
     1dc: 70 68                        	jo	0x246 <.debug_line+0x246>
     1de: 69 63 73 00 73 72 63         	imull	$1668444928, 115(%ebx), %esp # imm = 0x63727300
     1e5: 2f                           	das
     1e6: 6b 65 72 6e                  	imull	$110, 114(%ebp), %esp
     1ea: 65 6c                        	insb	%dx, %es:(%edi)
     1ec: 2f                           	das
     1ed: 74 79                        	je	0x268 <.debug_line+0x268>
     1ef: 70 65                        	jo	0x256 <.debug_line+0x256>
     1f1: 73 00                        	jae	0x1f3 <.debug_line+0x1f3>
     1f3: 00 73 63                     	addb	%dh, 99(%ebx)
     1f6: 72 65                        	jb	0x25d <.debug_line+0x25d>
     1f8: 65 6e                        	outsb	%gs:(%esi), %dx
     1fa: 2e 63 00                     	arpl	%ax, %cs:(%eax)
     1fd: 01 00                        	addl	%eax, (%eax)
     1ff: 00 74 79 70                  	addb	%dh, 112(%ecx,%edi,2)
     203: 65 73 2e                     	jae	0x234 <.debug_line+0x234>
     206: 68 00 02 00 00               	pushl	$512                    # imm = 0x200
     20b: 63 6f 6c                     	arpl	%bp, 108(%edi)
     20e: 6f                           	outsl	(%esi), %dx
     20f: 75 72                        	jne	0x283 <.debug_line+0x283>
     211: 73 2e                        	jae	0x241 <.debug_line+0x241>
     213: 68 00 01 00 00               	pushl	$256                    # imm = 0x100
     218: 73 63                        	jae	0x27d <.debug_line+0x27d>
     21a: 72 65                        	jb	0x281 <.debug_line+0x281>
     21c: 65 6e                        	outsb	%gs:(%esi), %dx
     21e: 2e 68 00 01 00 00            	pushl	$256                    # imm = 0x100
     224: 00 05 36 00 05 02            	addb	%al, 33882166
     22a: 10 03                        	adcb	%al, (%ebx)
     22c: 00 00                        	addb	%al, (%eax)
     22e: 15 05 01 03 0a               	adcl	$167969029, %eax        # imm = 0xA030105
     233: 9e                           	sahf
     234: 05 1d 68 05 03               	addl	$50685981, %eax         # imm = 0x305681D
     239: 3e 08 4d 05                  	orb	%cl, %ds:5(%ebp)
     23d: 0e                           	pushl	%cs
     23e: 02 31                        	addb	(%ecx), %dh
     240: 13 05 03 58 05 10            	adcl	268785667, %eax
     246: 00 02                        	addb	%al, (%edx)
     248: 04 03                        	addb	$3, %al
     24a: 2f                           	das
     24b: 05 12 00 02 04               	addl	$67239954, %eax         # imm = 0x4020012
     250: 03 e5                        	addl	%ebp, %esp
     252: 05 11 00 02 04               	addl	$67239953, %eax         # imm = 0x4020011
     257: 03 08                        	addl	(%eax), %ecx
     259: 21 05 05 00 02 04            	andl	%eax, 67239941
     25f: 03 e5                        	addl	%ebp, %esp
     261: 05 1f 00 02 04               	addl	$67239967, %eax         # imm = 0x402001F
     266: 03 02                        	addl	(%edx), %eax
     268: 26 0e                        	pushl	%cs
     26a: 05 03 00 02 04               	addl	$67239939, %eax         # imm = 0x4020003
     26f: 01 ba 7a 05 01 02            	addl	%edi, 33621370(%edx)
     275: 34 13                        	xorb	$19, %al
     277: 05 32 08 30 05               	addl	$87033906, %eax         # imm = 0x5300832
     27c: 03 ae 05 25 08 59            	addl	1493705989(%esi), %ebp
     282: 05 03 58 05 25               	addl	$621107203, %eax        # imm = 0x25055803
     287: 08 3d 05 03 58 05            	orb	%bh, 89654021
     28d: 25 08 3d 05 03               	andl	$50674952, %eax         # imm = 0x3053D08
     292: 58                           	popl	%eax
     293: 05 01 08 3e 05               	addl	$87951361, %eax         # imm = 0x53E0801
     298: 14 08                        	adcb	$8, %al
     29a: 3e 05 03 3e 05 0a            	addl	$168115715, %eax        # imm = 0xA053E03
     2a0: 5a                           	popl	%edx
     2a1: 05 0c 84 05 03               	addl	$50693132, %eax         # imm = 0x305840C
     2a6: 82 05 0e 2f 05 05 82         	addb	$-126, 84225806
     2ad: 05 1d 00 02 04               	addl	$67239965, %eax         # imm = 0x402001D
     2b2: 03 30                        	addl	(%eax), %esi
     2b4: 05 0e 00 02 04               	addl	$67239950, %eax         # imm = 0x402000E
     2b9: 03 08                        	addl	(%eax), %ecx
     2bb: 58                           	popl	%eax
     2bc: 05 23 00 02 04               	addl	$67239971, %eax         # imm = 0x4020023
     2c1: 03 75 05                     	addl	5(%ebp), %esi
     2c4: 11 00                        	adcl	%eax, (%eax)
     2c6: 02 04 03                     	addb	(%ebx,%eax), %al
     2c9: 66 05 23 00                  	addw	$35, %ax
     2cd: 02 04 03                     	addb	(%ebx,%eax), %al
     2d0: ac                           	lodsb	(%esi), %al
     2d1: 05 1a 00 02 04               	addl	$67239962, %eax         # imm = 0x402001A
     2d6: 03 3c 05 38 00 02 04         	addl	67239992(,%eax), %edi
     2dd: 03 2b                        	addl	(%ebx), %ebp
     2df: 05 05 00 02 04               	addl	$67239941, %eax         # imm = 0x4020005
     2e4: 01 58 05                     	addl	%ebx, 5(%eax)
     2e7: 32 00                        	xorb	(%eax), %al
     2e9: 02 04 02                     	addb	(%edx,%eax), %al
     2ec: 9d                           	popfl
     2ed: 05 03 00 02 04               	addl	$67239939, %eax         # imm = 0x4020003
     2f2: 01 58 05                     	addl	%ebx, 5(%eax)
     2f5: 01 a5 05 2d ad 05            	addl	%esp, 95235333(%ebp)
     2fb: 0a 08                        	orb	(%eax), %cl
     2fd: ad                           	lodsl	(%esi), %eax
     2fe: 05 11 84 05 21               	addl	$554009617, %eax        # imm = 0x21058411
     303: f2 05 0d 90 05 26            	repne		addl	$637898765, %eax # imm = 0x2605900D
     309: 66 05 01 75                  	addw	$29953, %ax             # imm = 0x7501
     30d: 02 05 00 01 01 e8            	addb	-402587392, %al
     313: 00 00                        	addb	%al, (%eax)
     315: 00 03                        	addb	%al, (%ebx)
     317: 00 68 00                     	addb	%ch, (%eax)
     31a: 00 00                        	addb	%al, (%eax)
     31c: 01 01                        	addl	%eax, (%ecx)
     31e: fb                           	sti
     31f: 0e                           	pushl	%cs
     320: 0d 00 01 01 01               	orl	$16843008, %eax         # imm = 0x1010100
     325: 01 00                        	addl	%eax, (%eax)
     327: 00 00                        	addb	%al, (%eax)
     329: 01 00                        	addl	%eax, (%eax)
     32b: 00 01                        	addb	%al, (%ecx)
     32d: 73 72                        	jae	0x3a1 <.debug_line+0x3a1>
     32f: 63 2f                        	arpl	%bp, (%edi)
     331: 6b 65 72 6e                  	imull	$110, 114(%ebp), %esp
     335: 65 6c                        	insb	%dx, %es:(%edi)
     337: 2f                           	das
     338: 69 64 74 00 73 72 63 2f      	imull	$795046515, (%esp,%esi,2), %esp # imm = 0x2F637273
     340: 6b 65 72 6e                  	imull	$110, 114(%ebp), %esp
     344: 65 6c                        	insb	%dx, %es:(%edi)
     346: 2f                           	das
     347: 74 79                        	je	0x3c2 <.debug_line+0x3c2>
     349: 70 65                        	jo	0x3b0 <.debug_line+0x3b0>
     34b: 73 00                        	jae	0x34d <.debug_line+0x34d>
     34d: 73 72                        	jae	0x3c1 <.debug_line+0x3c1>
     34f: 63 2f                        	arpl	%bp, (%edi)
     351: 6b 65 72 6e                  	imull	$110, 114(%ebp), %esp
     355: 65 6c                        	insb	%dx, %es:(%edi)
     357: 2f                           	das
     358: 74 74                        	je	0x3ce <.debug_line+0x3ce>
     35a: 79 00                        	jns	0x35c <.debug_line+0x35c>
     35c: 00 69 64                     	addb	%ch, 100(%ecx)
     35f: 74 2e                        	je	0x38f <.debug_line+0x38f>
     361: 63 00                        	arpl	%ax, (%eax)
     363: 01 00                        	addl	%eax, (%eax)
     365: 00 74 79 70                  	addb	%dh, 112(%ecx,%edi,2)
     369: 65 73 2e                     	jae	0x39a <.debug_line+0x39a>
     36c: 68 00 02 00 00               	pushl	$512                    # imm = 0x200
     371: 69 64 74 2e 68 00 01 00      	imull	$65640, 46(%esp,%esi,2), %esp # imm = 0x10068
     379: 00 74 74 79                  	addb	%dh, 121(%esp,%esi,2)
     37d: 2e 68 00 03 00 00            	pushl	$768                    # imm = 0x300
     383: 00 05 11 00 05 02            	addb	%al, 33882129
     389: 70 05                        	jo	0x390 <.debug_line+0x390>
     38b: 00 00                        	addb	%al, (%eax)
     38d: 03 13                        	addl	(%ebx), %edx
     38f: 01 05 13 3c 05 45            	addl	%eax, 1157970963
     395: 08 4a 05                     	orb	%cl, 5(%edx)
     398: 17                           	popl	%ss
     399: 85 05 03 3d 08 4b            	testl	%eax, 1258831107
     39f: 05 01 e5 05 1d               	addl	$486925569, %eax        # imm = 0x1D05E501
     3a4: 92                           	xchgl	%edx, %eax
     3a5: 05 1f 3c 05 34               	addl	$872758303, %eax        # imm = 0x34053C1F
     3aa: e4 05                        	inb	$5, %al
     3ac: 2f                           	das
     3ad: d8 05 14 3d f3 05            	fadds	99826964
     3b3: 12 c9                        	adcb	%cl, %cl
     3b5: 05 0e 9f 05 13               	addl	$319135502, %eax        # imm = 0x13059F0E
     3ba: 83 05 17 83 05 29 4a         	addl	$74, 688227095
     3c1: 05 15 3c 05 01               	addl	$17120277, %eax         # imm = 0x1053C15
     3c6: 9f                           	lahf
     3c7: 05 11 5a 05 03               	addl	$50682385, %eax         # imm = 0x3055A11
     3cc: 3e 05 19 08 67 05            	addl	$90638361, %eax         # imm = 0x5670819
     3d2: 1a 91 05 18 58 05            	sbbb	89659397(%ecx), %dl
     3d8: 0f 5a 05 03 74 05 05         	cvtps2pd	84243459, %xmm0
     3df: 00 02                        	addb	%al, (%edx)
     3e1: 04 03                        	addb	$3, %al
     3e3: 2f                           	das
     3e4: 05 2d 00 02 04               	addl	$67239981, %eax         # imm = 0x402002D
     3e9: 03 08                        	addl	(%eax), %ecx
     3eb: 57                           	pushl	%edi
     3ec: 05 03 00 02 04               	addl	$67239939, %eax         # imm = 0x4020003
     3f1: 01 c8                        	addl	%ecx, %eax
     3f3: 93                           	xchgl	%ebx, %eax
     3f4: 08 23                        	orb	%ah, (%ebx)
     3f6: 05 01 f3 02 05               	addl	$84079361, %eax         # imm = 0x502F301
     3fb: 00 01                        	addb	%al, (%ecx)
     3fd: 01 7e 00                     	addl	%edi, (%esi)
     400: 00 00                        	addb	%al, (%eax)
     402: 03 00                        	addl	(%eax), %eax
     404: 47                           	incl	%edi
     405: 00 00                        	addb	%al, (%eax)
     407: 00 01                        	addb	%al, (%ecx)
     409: 01 fb                        	addl	%edi, %ebx
     40b: 0e                           	pushl	%cs
     40c: 0d 00 01 01 01               	orl	$16843008, %eax         # imm = 0x1010100
     411: 01 00                        	addl	%eax, (%eax)
     413: 00 00                        	addb	%al, (%eax)
     415: 01 00                        	addl	%eax, (%eax)
     417: 00 01                        	addb	%al, (%ecx)
     419: 73 72                        	jae	0x48d <.debug_line+0x48d>
     41b: 63 2f                        	arpl	%bp, (%edi)
     41d: 6b 65 72 6e                  	imull	$110, 114(%ebp), %esp
     421: 65 6c                        	insb	%dx, %es:(%edi)
     423: 2f                           	das
     424: 69 72 71 00 73 72 63         	imull	$1668444928, 113(%edx), %esi # imm = 0x63727300
     42b: 2f                           	das
     42c: 6b 65 72 6e                  	imull	$110, 114(%ebp), %esp
     430: 65 6c                        	insb	%dx, %es:(%edi)
     432: 2f                           	das
     433: 74 79                        	je	0x4ae <.debug_line+0x4ae>
     435: 70 65                        	jo	0x49c <.debug_line+0x49c>
     437: 73 00                        	jae	0x439 <.debug_line+0x439>
     439: 00 69 72                     	addb	%ch, 114(%ecx)
     43c: 71 2e                        	jno	0x46c <.debug_line+0x46c>
     43e: 63 00                        	arpl	%ax, (%eax)
     440: 01 00                        	addl	%eax, (%eax)
     442: 00 74 79 70                  	addb	%dh, 112(%ecx,%edi,2)
     446: 65 73 2e                     	jae	0x477 <.debug_line+0x477>
     449: 68 00 02 00 00               	pushl	$512                    # imm = 0x200
     44e: 00 05 12 00 05 02            	addb	%al, 33882130
     454: c0 06 00                     	rolb	$0, (%esi)
     457: 00 16                        	addb	%dl, (%esi)
     459: 3e 08 13                     	orb	%dl, %ds:(%ebx)
     45c: 05 03 08 3e e7               	addl	$3879602179, %eax       # imm = 0xE73E0803
     461: 08 21                        	orb	%ah, (%ecx)
     463: e5 08                        	inl	$8, %eax
     465: 21 e7                        	andl	%esp, %edi
     467: 08 22                        	orb	%ah, (%edx)
     469: e5 08                        	inl	$8, %eax
     46b: 22 08                        	andb	(%eax), %cl
     46d: 2f                           	das
     46e: 05 01 08 59 05               	addl	$89720833, %eax         # imm = 0x5590801
     473: 11 ae 05 13 3c 05            	adcl	%ebp, 87823109(%esi)
     479: 20 58 02                     	andb	%bl, 2(%eax)
     47c: 05 00 01 01 f4               	addl	$4093706496, %eax       # imm = 0xF4010100
     481: 01 00                        	addl	%eax, (%eax)
     483: 00 03                        	addb	%al, (%ebx)
     485: 00 6d 00                     	addb	%ch, (%ebp)
     488: 00 00                        	addb	%al, (%eax)
     48a: 01 01                        	addl	%eax, (%ecx)
     48c: fb                           	sti
     48d: 0e                           	pushl	%cs
     48e: 0d 00 01 01 01               	orl	$16843008, %eax         # imm = 0x1010100
     493: 01 00                        	addl	%eax, (%eax)
     495: 00 00                        	addb	%al, (%eax)
     497: 01 00                        	addl	%eax, (%eax)
     499: 00 01                        	addb	%al, (%ecx)
     49b: 73 72                        	jae	0x50f <.debug_line+0x50f>
     49d: 63 2f                        	arpl	%bp, (%edi)
     49f: 6b 65 72 6e                  	imull	$110, 114(%ebp), %esp
     4a3: 65 6c                        	insb	%dx, %es:(%edi)
     4a5: 2f                           	das
     4a6: 6d                           	insl	%dx, %es:(%edi)
     4a7: 65 6d                        	insl	%dx, %es:(%edi)
     4a9: 6f                           	outsl	(%esi), %dx
     4aa: 72 79                        	jb	0x525 <.debug_line+0x525>
     4ac: 00 73 72                     	addb	%dh, 114(%ebx)
     4af: 63 2f                        	arpl	%bp, (%edi)
     4b1: 6b 65 72 6e                  	imull	$110, 114(%ebp), %esp
     4b5: 65 6c                        	insb	%dx, %es:(%edi)
     4b7: 2f                           	das
     4b8: 74 79                        	je	0x533 <.debug_line+0x533>
     4ba: 70 65                        	jo	0x521 <.debug_line+0x521>
     4bc: 73 00                        	jae	0x4be <.debug_line+0x4be>
     4be: 73 72                        	jae	0x532 <.debug_line+0x532>
     4c0: 63 2f                        	arpl	%bp, (%edi)
     4c2: 6b 65 72 6e                  	imull	$110, 114(%ebp), %esp
     4c6: 65 6c                        	insb	%dx, %es:(%edi)
     4c8: 2f                           	das
     4c9: 74 74                        	je	0x53f <.debug_line+0x53f>
     4cb: 79 00                        	jns	0x4cd <.debug_line+0x4cd>
     4cd: 00 68 65                     	addb	%ch, 101(%eax)
     4d0: 61                           	popal
     4d1: 70 2e                        	jo	0x501 <.debug_line+0x501>
     4d3: 63 00                        	arpl	%ax, (%eax)
     4d5: 01 00                        	addl	%eax, (%eax)
     4d7: 00 74 79 70                  	addb	%dh, 112(%ecx,%edi,2)
     4db: 65 73 2e                     	jae	0x50c <.debug_line+0x50c>
     4de: 68 00 02 00 00               	pushl	$512                    # imm = 0x200
     4e3: 68 65 61 70 2e               	pushl	$779116901              # imm = 0x2E706165
     4e8: 68 00 01 00 00               	pushl	$256                    # imm = 0x100
     4ed: 74 74                        	je	0x563 <.debug_line+0x563>
     4ef: 79 2e                        	jns	0x51f <.debug_line+0x51f>
     4f1: 68 00 03 00 00               	pushl	$768                    # imm = 0x300
     4f6: 00 05 3f 00 05 02            	addb	%al, 33882175
     4fc: b0 07                        	movb	$7, %al
     4fe: 00 00                        	addb	%al, (%eax)
     500: 18 05 07 3d 05 24            	sbbb	%al, 604323079
     506: 84 05 0a 82 4b 05            	testb	%al, 88834570
     50c: 1c ad                        	sbbb	$-83, %al
     50e: 05 06 74 05 0c               	addl	$201683974, %eax        # imm = 0xC057406
     513: 67 05 0a 76 05 01            	addl	$17135114, %eax         # imm = 0x105760A
     519: 4b                           	decl	%ebx
     51a: 05 2f 68 05 0b               	addl	$184903727, %eax        # imm = 0xB05682F
     51f: 13 05 1d 4a 05 37            	adcl	923093533, %eax
     525: 58                           	popl	%eax
     526: 05 01 83 05 2b               	addl	$721781505, %eax        # imm = 0x2B058301
     52b: e7 05                        	outl	%eax, $5
     52d: 07                           	popl	%es
     52e: 3e 05 08 83 05 06            	addl	$101024520, %eax        # imm = 0x6058308
     534: ba 05 2b 00 02               	movl	$33565445, %edx         # imm = 0x2002B05
     539: 04 01                        	addb	$1, %al
     53b: 4a                           	decl	%edx
     53c: 05 27 00 02 04               	addl	$67239975, %eax         # imm = 0x4020027
     541: 01 ba 05 0c 4b 05            	addl	%edi, 88804357(%edx)
     547: 03 77 05                     	addl	5(%edi), %esi
     54a: 17                           	popl	%ss
     54b: 08 2f                        	orb	%ch, (%edi)
     54d: 05 0f ad 05 09               	addl	$151366927, %eax        # imm = 0x905AD0F
     552: a0 05 06 08 a0               	movb	2684880389, %al
     557: 05 0c 75 05 0a               	addl	$168129804, %eax        # imm = 0xA05750C
     55c: 69 05 0f ae 05 03 66 05 0a 08	imull	$134874470, 50703887, %eax # imm = 0x80A0566
     566: 21 05 01 59 05 3c            	andl	%eax, 1006983425
     56c: 68 05 13 13 05               	pushl	$85136133               # imm = 0x5131305
     571: 06                           	pushl	%es
     572: 90                           	nop
     573: 05 0c 4b 05 15               	addl	$352668428, %eax        # imm = 0x15054B0C
     578: 5a                           	popl	%edx
     579: 05 3d 90 05 01               	addl	$17141821, %eax         # imm = 0x105903D
     57e: 5a                           	popl	%edx
     57f: 05 40 f4 05 10               	addl	$268825664, %eax        # imm = 0x1005F440
     584: 9f                           	lahf
     585: 05 01 75 05 4c               	addl	$1275426049, %eax       # imm = 0x4C057501
     58a: e6 05                        	outb	%al, $5
     58c: 0a 3d 83 05 16 84            	orb	-2078931581, %bh
     592: 05 0f 91 05 03               	addl	$50696463, %eax         # imm = 0x305910F
     597: 82 05 22 2f 05 2b 58         	addb	$88, 721760034
     59e: 05 09 90 05 08               	addl	$134582281, %eax        # imm = 0x8059009
     5a3: ba 05 19 4b 05               	movl	$88807685, %edx         # imm = 0x54B1905
     5a8: 07                           	popl	%es
     5a9: 83 05 16 31 05 08 59         	addl	$89, 134557974
     5b0: 05 13 75 05 08               	addl	$134575379, %eax        # imm = 0x8057513
     5b5: 84 05 31 00 02 04            	testb	%al, 67239985
     5bb: 02 03                        	addb	(%ebx), %al
     5bd: 76 9e                        	jbe	0x55d <.debug_line+0x55d>
     5bf: 05 1f 00 02 04               	addl	$67239967, %eax         # imm = 0x402001F
     5c4: 01 58 05                     	addl	%ebx, 5(%eax)
     5c7: 03 00                        	addl	(%eax), %eax
     5c9: 02 04 01                     	addb	(%ecx,%eax), %al
     5cc: 66 05 07 03                  	addw	$775, %ax               # imm = 0x307
     5d0: 0b 82 05 06 24 05            	orl	86246917(%edx), %eax
     5d6: 0c 75                        	orb	$117, %al
     5d8: 05 0a 76 05 01               	addl	$17135114, %eax         # imm = 0x105760A
     5dd: 4b                           	decl	%ebx
     5de: 05 3b d8 05 18               	addl	$403036219, %eax        # imm = 0x1805D83B
     5e3: 4b                           	decl	%ebx
     5e4: 05 07 08 41 05               	addl	$88147975, %eax         # imm = 0x5410807
     5e9: 0e                           	pushl	%cs
     5ea: 66 05 25 2e                  	addw	$11813, %ax             # imm = 0x2E25
     5ee: 05 07 90 05 0e               	addl	$235245575, %eax        # imm = 0xE059007
     5f3: 66 05 25 2e                  	addw	$11813, %ax             # imm = 0x2E25
     5f7: 05 0f ae 05 03               	addl	$50703887, %eax         # imm = 0x305AE0F
     5fc: ac                           	lodsb	(%esi), %al
     5fd: 05 09 00 02 04               	addl	$67239945, %eax         # imm = 0x4020009
     602: 03 2f                        	addl	(%edi), %ebp
     604: 05 10 00 02 04               	addl	$67239952, %eax         # imm = 0x4020010
     609: 03 66 05                     	addl	5(%esi), %esp
     60c: 1d 00 02 04 03               	sbbl	$50594304, %eax         # imm = 0x3040200
     611: 2e 05 09 00 02 04            	addl	$67239945, %eax         # imm = 0x4020009
     617: 03 90 05 10 00 02            	addl	33558533(%eax), %edx
     61d: 04 03                        	addb	$3, %al
     61f: 66 05 1d 00                  	addw	$29, %ax
     623: 02 04 03                     	addb	(%ebx,%eax), %al
     626: 2e 05 43 00 02 04            	addl	$67240003, %eax         # imm = 0x4020043
     62c: 03 ab 05 34 00 02            	addl	33567749(%ebx), %ebp
     632: 04 01                        	addb	$1, %al
     634: 58                           	popl	%eax
     635: 05 3d 00 02 04               	addl	$67239997, %eax         # imm = 0x402003D
     63a: 01 9e 05 03 00 02            	addl	%ebx, 33555205(%esi)
     640: 04 01                        	addb	$1, %al
     642: 3c 05                        	cmpb	$5, %al
     644: 07                           	popl	%es
     645: 6a 05                        	pushl	$5
     647: 0e                           	pushl	%cs
     648: 66 05 2e 2e                  	addw	$11822, %ax             # imm = 0x2E2E
     64c: 05 07 e4 05 0e               	addl	$235267079, %eax        # imm = 0xE05E407
     651: 66 05 2e 2e                  	addw	$11822, %ax             # imm = 0x2E2E
     655: 05 27 08 14 05               	addl	$85198887, %eax         # imm = 0x5140827
     65a: 01 bb 05 33 e6 05            	addl	%edi, 98972421(%ebx)
     660: 19 3e                        	sbbl	%edi, (%esi)
     662: 05 0a f3 ae 05               	addl	$95351562, %eax         # imm = 0x5AEF30A
     667: 01 f3                        	addl	%esi, %ebx
     669: 05 2f 08 22 05               	addl	$86116399, %eax         # imm = 0x522082F
     66e: 38 01                        	cmpb	%al, (%ecx)
     670: 05 3b 58 02 01               	addl	$16930875, %eax         # imm = 0x102583B
     675: 00 01                        	addb	%al, (%ecx)
     677: 01 9f 00 00 00 03            	addl	%ebx, 50331648(%edi)
     67d: 00 6e 00                     	addb	%ch, (%esi)
     680: 00 00                        	addb	%al, (%eax)
     682: 01 01                        	addl	%eax, (%ecx)
     684: fb                           	sti
     685: 0e                           	pushl	%cs
     686: 0d 00 01 01 01               	orl	$16843008, %eax         # imm = 0x1010100
     68b: 01 00                        	addl	%eax, (%eax)
     68d: 00 00                        	addb	%al, (%eax)
     68f: 01 00                        	addl	%eax, (%eax)
     691: 00 01                        	addb	%al, (%ecx)
     693: 73 72                        	jae	0x707 <.debug_line+0x707>
     695: 63 2f                        	arpl	%bp, (%edi)
     697: 6b 65 72 6e                  	imull	$110, 114(%ebp), %esp
     69b: 65 6c                        	insb	%dx, %es:(%edi)
     69d: 2f                           	das
     69e: 6d                           	insl	%dx, %es:(%edi)
     69f: 65 6d                        	insl	%dx, %es:(%edi)
     6a1: 6f                           	outsl	(%esi), %dx
     6a2: 72 79                        	jb	0x71d <.debug_line+0x71d>
     6a4: 00 73 72                     	addb	%dh, 114(%ebx)
     6a7: 63 2f                        	arpl	%bp, (%edi)
     6a9: 6b 65 72 6e                  	imull	$110, 114(%ebp), %esp
     6ad: 65 6c                        	insb	%dx, %es:(%edi)
     6af: 2f                           	das
     6b0: 74 79                        	je	0x72b <.debug_line+0x72b>
     6b2: 70 65                        	jo	0x719 <.debug_line+0x719>
     6b4: 73 00                        	jae	0x6b6 <.debug_line+0x6b6>
     6b6: 73 72                        	jae	0x72a <.debug_line+0x72a>
     6b8: 63 2f                        	arpl	%bp, (%edi)
     6ba: 6b 65 72 6e                  	imull	$110, 114(%ebp), %esp
     6be: 65 6c                        	insb	%dx, %es:(%edi)
     6c0: 2f                           	das
     6c1: 74 74                        	je	0x737 <.debug_line+0x737>
     6c3: 79 00                        	jns	0x6c5 <.debug_line+0x6c5>
     6c5: 00 6b 68                     	addb	%ch, 104(%ebx)
     6c8: 65 61                        	popal
     6ca: 70 2e                        	jo	0x6fa <.debug_line+0x6fa>
     6cc: 63 00                        	arpl	%ax, (%eax)
     6ce: 01 00                        	addl	%eax, (%eax)
     6d0: 00 74 79 70                  	addb	%dh, 112(%ecx,%edi,2)
     6d4: 65 73 2e                     	jae	0x705 <.debug_line+0x705>
     6d7: 68 00 02 00 00               	pushl	$512                    # imm = 0x200
     6dc: 68 65 61 70 2e               	pushl	$779116901              # imm = 0x2E706165
     6e1: 68 00 01 00 00               	pushl	$256                    # imm = 0x100
     6e6: 74 74                        	je	0x75c <.debug_line+0x75c>
     6e8: 79 2e                        	jns	0x718 <.debug_line+0x718>
     6ea: 68 00 03 00 00               	pushl	$768                    # imm = 0x300
     6ef: 00 05 13 00 05 02            	addb	%al, 33882131
     6f5: d0 0a                        	rorb	(%edx)
     6f7: 00 00                        	addb	%al, (%eax)
     6f9: 19 05 1d 3e 05 23            	sbbl	%eax, 587546141
     6ff: a0 05 09 a0 05               	movb	94374149, %al
     704: 0d 84 05 06 08               	orl	$134612356, %eax        # imm = 0x8060584
     709: d9 05 05 75 05 01            	flds	17134853
     70f: f6 05 05 2c 05 01 f4         	testb	$-12, 17116165
     716: 02 05 00 01 01 8d            	addb	-1929314048, %al
     71c: 00 00                        	addb	%al, (%eax)
     71e: 00 03                        	addb	%al, (%ebx)
     720: 00 4d 00                     	addb	%cl, (%ebp)
     723: 00 00                        	addb	%al, (%eax)
     725: 01 01                        	addl	%eax, (%ecx)
     727: fb                           	sti
     728: 0e                           	pushl	%cs
     729: 0d 00 01 01 01               	orl	$16843008, %eax         # imm = 0x1010100
     72e: 01 00                        	addl	%eax, (%eax)
     730: 00 00                        	addb	%al, (%eax)
     732: 01 00                        	addl	%eax, (%eax)
     734: 00 01                        	addb	%al, (%ecx)
     736: 73 72                        	jae	0x7aa <.debug_line+0x7aa>
     738: 63 2f                        	arpl	%bp, (%edi)
     73a: 6b 65 72 6e                  	imull	$110, 114(%ebp), %esp
     73e: 65 6c                        	insb	%dx, %es:(%edi)
     740: 2f                           	das
     741: 6d                           	insl	%dx, %es:(%edi)
     742: 65 6d                        	insl	%dx, %es:(%edi)
     744: 6f                           	outsl	(%esi), %dx
     745: 72 79                        	jb	0x7c0 <.debug_line+0x7c0>
     747: 00 73 72                     	addb	%dh, 114(%ebx)
     74a: 63 2f                        	arpl	%bp, (%edi)
     74c: 6b 65 72 6e                  	imull	$110, 114(%ebp), %esp
     750: 65 6c                        	insb	%dx, %es:(%edi)
     752: 2f                           	das
     753: 74 79                        	je	0x7ce <.debug_line+0x7ce>
     755: 70 65                        	jo	0x7bc <.debug_line+0x7bc>
     757: 73 00                        	jae	0x759 <.debug_line+0x759>
     759: 00 6d 65                     	addb	%ch, 101(%ebp)
     75c: 6d                           	insl	%dx, %es:(%edi)
     75d: 6f                           	outsl	(%esi), %dx
     75e: 72 79                        	jb	0x7d9 <.debug_line+0x7d9>
     760: 2e 63 00                     	arpl	%ax, %cs:(%eax)
     763: 01 00                        	addl	%eax, (%eax)
     765: 00 74 79 70                  	addb	%dh, 112(%ecx,%edi,2)
     769: 65 73 2e                     	jae	0x79a <.debug_line+0x79a>
     76c: 68 00 02 00 00               	pushl	$512                    # imm = 0x200
     771: 00 05 2d 00 05 02            	addb	%al, 33882157
     777: 40                           	incl	%eax
     778: 0b 00                        	orl	(%eax), %eax
     77a: 00 16                        	addb	%dl, (%esi)
     77c: 05 09 3e 05 0f               	addl	$252001801, %eax        # imm = 0xF053E09
     781: 83 05 03 82 05 0a 00         	addl	$0, 168133123
     788: 02 04 03                     	addb	(%ebx,%eax), %al
     78b: 2f                           	das
     78c: 05 0e 00 02 04               	addl	$67239950, %eax         # imm = 0x402000E
     791: 03 9e 05 21 00 02            	addl	33562885(%esi), %ebx
     797: 04 03                        	addb	$3, %al
     799: 65 05 03 00 02 04            	addl	$67239939, %eax         # imm = 0x4020003
     79f: 01 58 05                     	addl	%ebx, 5(%eax)
     7a2: 0a a1 05 01 4b 02            	orb	38469893(%ecx), %ah
     7a8: 04 00                        	addb	$0, %al
     7aa: 01 01                        	addl	%eax, (%ecx)
     7ac: 77 00                        	ja	0x7ae <.debug_line+0x7ae>
     7ae: 00 00                        	addb	%al, (%eax)
     7b0: 03 00                        	addl	(%eax), %eax
     7b2: 4d                           	decl	%ebp
     7b3: 00 00                        	addb	%al, (%eax)
     7b5: 00 01                        	addb	%al, (%ecx)
     7b7: 01 fb                        	addl	%edi, %ebx
     7b9: 0e                           	pushl	%cs
     7ba: 0d 00 01 01 01               	orl	$16843008, %eax         # imm = 0x1010100
     7bf: 01 00                        	addl	%eax, (%eax)
     7c1: 00 00                        	addb	%al, (%eax)
     7c3: 01 00                        	addl	%eax, (%eax)
     7c5: 00 01                        	addb	%al, (%ecx)
     7c7: 73 72                        	jae	0x83b <.debug_line+0x83b>
     7c9: 63 2f                        	arpl	%bp, (%edi)
     7cb: 6b 65 72 6e                  	imull	$110, 114(%ebp), %esp
     7cf: 65 6c                        	insb	%dx, %es:(%edi)
     7d1: 2f                           	das
     7d2: 73 74                        	jae	0x848 <.debug_line+0x848>
     7d4: 72 69                        	jb	0x83f <.debug_line+0x83f>
     7d6: 6e                           	outsb	(%esi), %dx
     7d7: 67 00 73 72                  	addb	%dh, 114(%bp,%di)
     7db: 63 2f                        	arpl	%bp, (%edi)
     7dd: 6b 65 72 6e                  	imull	$110, 114(%ebp), %esp
     7e1: 65 6c                        	insb	%dx, %es:(%edi)
     7e3: 2f                           	das
     7e4: 74 79                        	je	0x85f <.debug_line+0x85f>
     7e6: 70 65                        	jo	0x84d <.debug_line+0x84d>
     7e8: 73 00                        	jae	0x7ea <.debug_line+0x7ea>
     7ea: 00 73 74                     	addb	%dh, 116(%ebx)
     7ed: 72 69                        	jb	0x858 <.debug_line+0x858>
     7ef: 6e                           	outsb	(%esi), %dx
     7f0: 67 2e 63 00                  	arpl	%ax, %cs:(%bx,%si)
     7f4: 01 00                        	addl	%eax, (%eax)
     7f6: 00 74 79 70                  	addb	%dh, 112(%ecx,%edi,2)
     7fa: 65 73 2e                     	jae	0x82b <.debug_line+0x82b>
     7fd: 68 00 02 00 00               	pushl	$512                    # imm = 0x200
     802: 00 05 23 00 05 02            	addb	%al, 33882147
     808: 80 0b 00                     	orb	$0, (%ebx)
     80b: 00 14 05 0a 3e 05 09         	addb	%dl, 151338506(,%eax)
     812: 83 05 08 2f 05 10 57         	addl	$87, 268775176
     819: 05 09 c8 05 0a               	addl	$168151049, %eax        # imm = 0xA05C809
     81e: 4d                           	decl	%ebp
     81f: 05 01 4b 02 04               	addl	$67259137, %eax         # imm = 0x4024B01
     824: 00 01                        	addb	%al, (%ecx)
     826: 01 77 01                     	addl	%esi, 1(%edi)
     829: 00 00                        	addb	%al, (%eax)
     82b: 03 00                        	addl	(%eax), %eax
     82d: 50                           	pushl	%eax
     82e: 00 00                        	addb	%al, (%eax)
     830: 00 01                        	addb	%al, (%ecx)
     832: 01 fb                        	addl	%edi, %ebx
     834: 0e                           	pushl	%cs
     835: 0d 00 01 01 01               	orl	$16843008, %eax         # imm = 0x1010100
     83a: 01 00                        	addl	%eax, (%eax)
     83c: 00 00                        	addb	%al, (%eax)
     83e: 01 00                        	addl	%eax, (%eax)
     840: 00 01                        	addb	%al, (%ecx)
     842: 73 72                        	jae	0x8b6 <.debug_line+0x8b6>
     844: 63 2f                        	arpl	%bp, (%edi)
     846: 6b 65 72 6e                  	imull	$110, 114(%ebp), %esp
     84a: 65 6c                        	insb	%dx, %es:(%edi)
     84c: 2f                           	das
     84d: 74 74                        	je	0x8c3 <.debug_line+0x8c3>
     84f: 79 00                        	jns	0x851 <.debug_line+0x851>
     851: 73 72                        	jae	0x8c5 <.debug_line+0x8c5>
     853: 63 2f                        	arpl	%bp, (%edi)
     855: 6b 65 72 6e                  	imull	$110, 114(%ebp), %esp
     859: 65 6c                        	insb	%dx, %es:(%edi)
     85b: 2f                           	das
     85c: 74 79                        	je	0x8d7 <.debug_line+0x8d7>
     85e: 70 65                        	jo	0x8c5 <.debug_line+0x8c5>
     860: 73 00                        	jae	0x862 <.debug_line+0x862>
     862: 00 74 74 79                  	addb	%dh, 121(%esp,%esi,2)
     866: 2e 63 00                     	arpl	%ax, %cs:(%eax)
     869: 01 00                        	addl	%eax, (%eax)
     86b: 00 74 79 70                  	addb	%dh, 112(%ecx,%edi,2)
     86f: 65 73 2e                     	jae	0x8a0 <.debug_line+0x8a0>
     872: 68 00 02 00 00               	pushl	$512                    # imm = 0x200
     877: 74 74                        	je	0x8ed <.debug_line+0x8ed>
     879: 79 2e                        	jns	0x8a9 <.debug_line+0x8a9>
     87b: 68 00 01 00 00               	pushl	$256                    # imm = 0x100
     880: 00 05 22 00 05 02            	addb	%al, 33882146
     886: b0 0b                        	movb	$11, %al
     888: 00 00                        	addb	%al, (%eax)
     88a: 17                           	popl	%ss
     88b: 05 10 3d 05 03               	addl	$50674960, %eax         # imm = 0x3053D10
     890: 9f                           	lahf
     891: 05 11 e5 05 01               	addl	$17163537, %eax         # imm = 0x105E511
     896: ad                           	lodsl	(%esi), %eax
     897: 05 1d 92 05 0e               	addl	$235246109, %eax        # imm = 0xE05921D
     89c: 3d 05 03 58 05               	cmpl	$89654021, %eax         # imm = 0x5580305
     8a1: 10 2f                        	adcb	%ch, (%edi)
     8a3: 05 05 58 05 07               	addl	$117790725, %eax        # imm = 0x7055805
     8a8: 00 02                        	addb	%al, (%edx)
     8aa: 04 03                        	addb	$3, %al
     8ac: 2f                           	das
     8ad: 05 27 00 02 04               	addl	$67239975, %eax         # imm = 0x4020027
     8b2: 03 08                        	addl	(%eax), %ecx
     8b4: 8f 05 05 00 02 04            	popl	67239941
     8ba: 01 ba 05 25 00 02            	addl	%edi, 33563909(%edx)
     8c0: 04 02                        	addb	$2, %al
     8c2: 73 05                        	jae	0x8c9 <.debug_line+0x8c9>
     8c4: 03 00                        	addl	(%eax), %eax
     8c6: 02 04 01                     	addb	(%ecx,%eax), %al
     8c9: ba 05 13 79 83               	movl	$2205750021, %edx       # imm = 0x83791305
     8ce: 05 01 83 05 3a               	addl	$973439745, %eax        # imm = 0x3A058301
     8d3: e6 05                        	outb	%al, $5
     8d5: 06                           	pushl	%es
     8d6: 08 bb 05 15 75 05            	orb	%bh, 91559173(%ebx)
     8dc: 06                           	pushl	%es
     8dd: 83 05 14 82 05 05 9f         	addl	$-97, 84247060
     8e4: 05 43 31 05 27               	addl	$654651715, %eax        # imm = 0x27053143
     8e9: 74 05                        	je	0x8f0 <.debug_line+0x8f0>
     8eb: 0f ac 05 13 66 05 20 08      	shrdl	$8, %eax, 537224723
     8f3: 12 05 0f 74 05 27            	adcb	654668815, %al
     8f9: 58                           	popl	%eax
     8fa: 05 25 c8 05 04               	addl	$67487781, %eax         # imm = 0x405C825
     8ff: 3d 05 12 82 05               	cmpl	$92410373, %eax         # imm = 0x5821205
     904: 08 9f 05 06 82 05            	orb	%bl, 92407301(%edi)
     90a: 15 4b 05 06 83               	adcl	$2198209867, %eax       # imm = 0x8306054B
     90f: 05 14 82 05 01               	addl	$17138196, %eax         # imm = 0x1058214
     914: a0 05 2c 08 30               	movb	805841925, %al
     919: 05 0f 4b 05 03               	addl	$50678543, %eax         # imm = 0x3054B0F
     91e: 82 05 2d 00 02 04 03         	addb	$3, 67239981
     925: 2f                           	das
     926: 05 05 00 02 04               	addl	$67239941, %eax         # imm = 0x4020005
     92b: 03 82 05 1c 00 02            	addl	33561605(%edx), %eax
     931: 04 03                        	addb	$3, %al
     933: 3c 05                        	cmpb	$5, %al
     935: 05 00 02 04 03               	addl	$50594304, %eax         # imm = 0x3040200
     93a: 82 05 16 00 02 04 03         	addb	$3, 67239958
     941: 3c 05                        	cmpb	$5, %al
     943: 05 00 02 04 03               	addl	$50594304, %eax         # imm = 0x3040200
     948: c8 05 26 00                  	enter	$9733, $0               # imm = 0x2605
     94c: 02 04 03                     	addb	(%ebx,%eax), %al
     94f: 08 1f                        	orb	%bl, (%edi)
     951: 05 1a 00 02 04               	addl	$67239962, %eax         # imm = 0x402001A
     956: 01 58 05                     	addl	%ebx, 5(%eax)
     959: 03 00                        	addl	(%eax), %eax
     95b: 02 04 01                     	addb	(%ecx,%eax), %al
     95e: e4 05                        	inb	$5, %al
     960: 01 69 05                     	addl	%ebp, 5(%ecx)
     963: 3c 08                        	cmpb	$8, %al
     965: 30 05 11 9f 05 01            	xorb	%al, 17145617
     96b: 9f                           	lahf
     96c: 05 3b bc 05 16               	addl	$369474619, %eax        # imm = 0x1605BC3B
     971: 08 21                        	orb	%ah, (%ecx)
     973: 05 1c 74 05 01               	addl	$17134620, %eax         # imm = 0x105741C
     978: 91                           	xchgl	%ecx, %eax
     979: 05 11 d8 05 13               	addl	$319150097, %eax        # imm = 0x1305D811
     97e: 3c 05                        	cmpb	$5, %al
     980: 30 f2                        	xorb	%dh, %dl
     982: 05 27 ca 05 29               	addl	$688245287, %eax        # imm = 0x2905CA27
     987: 3c 05                        	cmpb	$5, %al
     989: 44                           	incl	%esp
     98a: 08 3c 05 28 93 05 19         	orb	%bh, 419795752(,%eax)
     991: ad                           	lodsl	(%esi), %eax
     992: 05 03 75 f3 05               	addl	$99841283, %eax         # imm = 0x5F37503
     997: 09 00                        	orl	%eax, (%eax)
     999: 02 04 01                     	addb	(%ecx,%eax), %al
     99c: f3 02 02                     	rep		addb	(%edx), %al
     99f: 00 01                        	addb	%al, (%ecx)
     9a1: 01 60 01                     	addl	%esp, 1(%eax)
     9a4: 00 00                        	addb	%al, (%eax)
     9a6: 03 00                        	addl	(%eax), %eax
     9a8: 74 00                        	je	0x9aa <.debug_line+0x9aa>
     9aa: 00 00                        	addb	%al, (%eax)
     9ac: 01 01                        	addl	%eax, (%ecx)
     9ae: fb                           	sti
     9af: 0e                           	pushl	%cs
     9b0: 0d 00 01 01 01               	orl	$16843008, %eax         # imm = 0x1010100
     9b5: 01 00                        	addl	%eax, (%eax)
     9b7: 00 00                        	addb	%al, (%eax)
     9b9: 01 00                        	addl	%eax, (%eax)
     9bb: 00 01                        	addb	%al, (%ecx)
     9bd: 73 72                        	jae	0xa31 <.debug_line+0xa31>
     9bf: 63 2f                        	arpl	%bp, (%edi)
     9c1: 6b 65 72 6e                  	imull	$110, 114(%ebp), %esp
     9c5: 65 6c                        	insb	%dx, %es:(%edi)
     9c7: 2f                           	das
     9c8: 74 79                        	je	0xa43 <.debug_line+0xa43>
     9ca: 70 65                        	jo	0xa31 <.debug_line+0xa31>
     9cc: 73 00                        	jae	0x9ce <.debug_line+0x9ce>
     9ce: 73 72                        	jae	0xa42 <.debug_line+0xa42>
     9d0: 63 2f                        	arpl	%bp, (%edi)
     9d2: 6b 65 72 6e                  	imull	$110, 114(%ebp), %esp
     9d6: 65 6c                        	insb	%dx, %es:(%edi)
     9d8: 2f                           	das
     9d9: 69 6f 00 73 72 63 2f         	imull	$795046515, (%edi), %ebp # imm = 0x2F637273
     9e0: 6b 65 72 6e                  	imull	$110, 114(%ebp), %esp
     9e4: 65 6c                        	insb	%dx, %es:(%edi)
     9e6: 00 73 72                     	addb	%dh, 114(%ebx)
     9e9: 63 2f                        	arpl	%bp, (%edi)
     9eb: 6b 65 72 6e                  	imull	$110, 114(%ebp), %esp
     9ef: 65 6c                        	insb	%dx, %es:(%edi)
     9f1: 2f                           	das
     9f2: 74 74                        	je	0xa68 <.debug_line+0xa68>
     9f4: 79 00                        	jns	0x9f6 <.debug_line+0x9f6>
     9f6: 00 74 79 70                  	addb	%dh, 112(%ecx,%edi,2)
     9fa: 65 73 2e                     	jae	0xa2b <.debug_line+0xa2b>
     9fd: 68 00 01 00 00               	pushl	$256                    # imm = 0x100
     a02: 69 6f 2e 68 00 02 00         	imull	$131176, 46(%edi), %ebp # imm = 0x20068
     a09: 00 6b 65                     	addb	%ch, 101(%ebx)
     a0c: 72 6e                        	jb	0xa7c <.debug_line+0xa7c>
     a0e: 65 6c                        	insb	%dx, %es:(%edi)
     a10: 2e 63 00                     	arpl	%ax, %cs:(%eax)
     a13: 03 00                        	addl	(%eax), %eax
     a15: 00 74 74 79                  	addb	%dh, 121(%esp,%esi,2)
     a19: 2e 68 00 04 00 00            	pushl	$1024                   # imm = 0x400
     a1f: 00 05 38 00 05 02            	addb	%al, 33882168
     a25: 60                           	pushal
     a26: 0e                           	pushl	%cs
     a27: 00 00                        	addb	%al, (%eax)
     a29: 03 0c 01                     	addl	(%ecx,%eax), %ecx
     a2c: 05 07 41 05 05               	addl	$84230407, %eax         # imm = 0x5054107
     a31: 83 05 09 85 05 0c 08         	addl	$8, 201688329
     a38: f3 05 20 00 02 04            	rep		addl	$67239968, %eax # imm = 0x4020020
     a3e: 01 74 05 0c                  	addl	%esi, 12(%ebp,%eax)
     a42: 00 02                        	addb	%al, (%edx)
     a44: 04 01                        	addb	$1, %al
     a46: 74 05                        	je	0xa4d <.debug_line+0xa4d>
     a48: 34 00                        	xorb	$0, %al
     a4a: 02 04 02                     	addb	(%edx,%eax), %al
     a4d: 4a                           	decl	%edx
     a4e: 05 0c 00 02 04               	addl	$67239948, %eax         # imm = 0x402000C
     a53: 02 74 05 08                  	addb	8(%ebp,%eax), %dh
     a57: 00 02                        	addb	%al, (%edx)
     a59: 04 04                        	addb	$4, %al
     a5b: 2e 05 06 00 02 04            	addl	$67239942, %eax         # imm = 0x4020006
     a61: 04 c8                        	addb	$-56, %al
     a63: 05 0c 00 02 04               	addl	$67239948, %eax         # imm = 0x402000C
     a68: 04 66                        	addb	$102, %al
     a6a: 05 0e 00 02 04               	addl	$67239950, %eax         # imm = 0x402000E
     a6f: 04 2f                        	addb	$47, %al
     a71: 05 03 00 02 04               	addl	$67239939, %eax         # imm = 0x4020003
     a76: 04 08                        	addb	$8, %al
     a78: 3c 05                        	cmpb	$5, %al
     a7a: 06                           	pushl	%es
     a7b: 75 05                        	jne	0xa82 <.debug_line+0xa82>
     a7d: 04 c8                        	addb	$-56, %al
     a7f: 05 0a 66 3e 05               	addl	$87975434, %eax         # imm = 0x53E660A
     a84: 03 82 05 0c 00 02            	addl	33557509(%edx), %eax
     a8a: 04 03                        	addb	$3, %al
     a8c: 2f                           	das
     a8d: 05 09 00 02 04               	addl	$67239945, %eax         # imm = 0x4020009
     a92: 03 c8                        	addl	%eax, %ecx
     a94: 05 0d 00 02 04               	addl	$67239949, %eax         # imm = 0x402000D
     a99: 03 75 05                     	addl	5(%ebp), %esi
     a9c: 06                           	pushl	%es
     a9d: 00 02                        	addb	%al, (%edx)
     a9f: 04 03                        	addb	$3, %al
     aa1: 9e                           	sahf
     aa2: 05 0d 00 02 04               	addl	$67239949, %eax         # imm = 0x402000D
     aa7: 03 9e 05 0a 00 02            	addl	33556997(%esi), %ebx
     aad: 04 03                        	addb	$3, %al
     aaf: 3c 05                        	cmpb	$5, %al
     ab1: 06                           	pushl	%es
     ab2: 00 02                        	addb	%al, (%edx)
     ab4: 04 03                        	addb	$3, %al
     ab6: 2f                           	das
     ab7: 05 0a 00 02 04               	addl	$67239946, %eax         # imm = 0x402000A
     abc: 03 9e 05 17 00 02            	addl	33560325(%esi), %ebx
     ac2: 04 03                        	addb	$3, %al
     ac4: 63 05 1c 00 02 04            	arpl	%ax, 67239964
     aca: 03 58 05                     	addl	5(%eax), %ebx
     acd: 03 00                        	addl	(%eax), %eax
     acf: 02 04 01                     	addb	(%ecx,%eax), %al
     ad2: 58                           	popl	%eax
     ad3: 05 0a a4 05 01               	addl	$17146890, %eax         # imm = 0x105A40A
     ad8: 4b                           	decl	%ebx
     ad9: 04 02                        	addb	$2, %al
     adb: 05 28 03 6e ba               	addl	$3127771944, %eax       # imm = 0xBA6E0328
     ae0: 05 2a 01 05 31               	addl	$822411562, %eax        # imm = 0x3105012A
     ae5: 20 04 03                     	andb	%al, (%ebx,%eax)
     ae8: 05 15 03 ca 00               	addl	$13239061, %eax         # imm = 0xCA0315
     aed: e4 05                        	inb	$5, %al
     aef: 05 69 59 59 59               	addl	$1499027817, %eax       # imm = 0x59595969
     af4: 05 17 59 05 05               	addl	$84236567, %eax         # imm = 0x5055917
     af9: 08 66 bb                     	orb	%ah, -69(%esi)
     afc: 05 01 03 09 58               	addl	$1476985601, %eax       # imm = 0x58090301
     b01: 02 08                        	addb	(%eax), %cl
     b03: 00 01                        	addb	%al, (%ecx)
     b05: 01                           	<unknown>

Disassembly of section .rel.debug_line:

00000000 <.rel.debug_line>:
       0: bf 00 00 00 01               	movl	$16777216, %edi         # imm = 0x1000000
       5: 01 00                        	addl	%eax, (%eax)
       7: 00 43 01                     	addb	%al, 1(%ebx)
       a: 00 00                        	addb	%al, (%eax)
       c: 01 01                        	addl	%eax, (%ecx)
       e: 00 00                        	addb	%al, (%eax)
      10: 2a 02                        	subb	(%edx), %al
      12: 00 00                        	addb	%al, (%eax)
      14: 01 01                        	addl	%eax, (%ecx)
      16: 00 00                        	addb	%al, (%eax)
      18: 89 03                        	movl	%eax, (%ebx)
      1a: 00 00                        	addb	%al, (%eax)
      1c: 01 01                        	addl	%eax, (%ecx)
      1e: 00 00                        	addb	%al, (%eax)
      20: 54                           	pushl	%esp
      21: 04 00                        	addb	$0, %al
      23: 00 01                        	addb	%al, (%ecx)
      25: 01 00                        	addl	%eax, (%eax)
      27: 00 fc                        	addb	%bh, %ah
      29: 04 00                        	addb	$0, %al
      2b: 00 01                        	addb	%al, (%ecx)
      2d: 01 00                        	addl	%eax, (%eax)
      2f: 00 f5                        	addb	%dh, %ch
      31: 06                           	pushl	%es
      32: 00 00                        	addb	%al, (%eax)
      34: 01 01                        	addl	%eax, (%ecx)
      36: 00 00                        	addb	%al, (%eax)
      38: 77 07                        	ja	0x41 <.rel.debug_line+0x41>
      3a: 00 00                        	addb	%al, (%eax)
      3c: 01 01                        	addl	%eax, (%ecx)
      3e: 00 00                        	addb	%al, (%eax)
      40: 08 08                        	orb	%cl, (%eax)
      42: 00 00                        	addb	%al, (%eax)
      44: 01 01                        	addl	%eax, (%ecx)
      46: 00 00                        	addb	%al, (%eax)
      48: 86 08                        	xchgb	%cl, (%eax)
      4a: 00 00                        	addb	%al, (%eax)
      4c: 01 01                        	addl	%eax, (%ecx)
      4e: 00 00                        	addb	%al, (%eax)
      50: 25 0a 00 00 01               	andl	$16777226, %eax         # imm = 0x100000A
      55: 01 00                        	addl	%eax, (%eax)
      57: 00                           	<unknown>

Disassembly of section .rela.debug_line:

00000000 <.rela.debug_line>:
       0: 39 00                        	cmpl	%eax, (%eax)
       2: 00 00                        	addb	%al, (%eax)
       4: 01 01                        	addl	%eax, (%ecx)
       6: 00 00                        	addb	%al, (%eax)
       8: 00 00                        	addb	%al, (%eax)
       a: 00 00                        	addb	%al, (%eax)

Disassembly of section .debug_str:

00000000 <.debug_str>:
       0: 2f                           	das
       1: 55                           	pushl	%ebp
       2: 73 65                        	jae	0x69 <.debug_str+0x69>
       4: 72 73                        	jb	0x79 <.debug_str+0x79>
       6: 2f                           	das
       7: 6d                           	insl	%dx, %es:(%edi)
       8: 61                           	popal
       9: 72 74                        	jb	0x7f <.debug_str+0x7f>
       b: 69 6e 73 69 6d 61 6e         	imull	$1851878761, 115(%esi), %ebp # imm = 0x6E616D69
      12: 67 6f                        	outsl	(%si), %dx
      14: 2f                           	das
      15: 70 72                        	jo	0x89 <.debug_str+0x89>
      17: 6f                           	outsl	(%esi), %dx
      18: 6a 65                        	pushl	$101
      1a: 63 74 73 2f                  	arpl	%si, 47(%ebx,%esi,2)
      1e: 6d                           	insl	%dx, %es:(%edi)
      1f: 6f                           	outsl	(%esi), %dx
      20: 72 61                        	jb	0x83 <.debug_str+0x83>
      22: 62 61 72                     	bound	%esp, 114(%ecx)
      25: 61                           	popal
      26: 62 61 4f                     	bound	%esp, 79(%ecx)
      29: 53                           	pushl	%ebx
      2a: 00 75 6e                     	addb	%dh, 110(%ebp)
      2d: 73 69                        	jae	0x98 <.debug_str+0x98>
      2f: 67 6e                        	outsb	(%si), %dx
      31: 65 64 20 69 6e               	andb	%ch, %fs:110(%ecx)
      36: 74 00                        	je	0x38 <.debug_str+0x38>
      38: 62 6c 75 65                  	bound	%ebp, 101(%ebp,%esi,2)
      3c: 00 50 55                     	addb	%dl, 85(%eax)
      3f: 52                           	pushl	%edx
      40: 50                           	pushl	%eax
      41: 4c                           	decl	%esp
      42: 45                           	incl	%ebp
      43: 00 57 48                     	addb	%dl, 72(%edi)
      46: 49                           	decl	%ecx
      47: 54                           	pushl	%esp
      48: 45                           	incl	%ebp
      49: 00 75 69                     	addb	%dh, 105(%ebp)
      4c: 6e                           	outsb	(%esi), %dx
      4d: 74 38                        	je	0x87 <.debug_str+0x87>
      4f: 00 6c 6f 6e                  	addb	%ch, 110(%edi,%ebp,2)
      53: 67 20 6c 6f                  	andb	%ch, 111(%si)
      57: 6e                           	outsb	(%esi), %dx
      58: 67 20 75 6e                  	andb	%dh, 110(%di)
      5c: 73 69                        	jae	0xc7 <.debug_str+0xc7>
      5e: 67 6e                        	outsb	(%si), %dx
      60: 65 64 20 69 6e               	andb	%ch, %fs:110(%ecx)
      65: 74 00                        	je	0x67 <.debug_str+0x67>
      67: 67 72 65                     	jb	0xcf <.debug_str+0xcf>
      6a: 65 6e                        	outsb	%gs:(%esi), %dx
      6c: 00 4c 49 47                  	addb	%cl, 71(%ecx,%ecx,2)
      70: 48                           	decl	%eax
      71: 54                           	pushl	%esp
      72: 5f                           	popl	%edi
      73: 42                           	incl	%edx
      74: 4c                           	decl	%esp
      75: 55                           	pushl	%ebp
      76: 45                           	incl	%ebp
      77: 00 50 49                     	addb	%dl, 73(%eax)
      7a: 4e                           	decl	%esi
      7b: 4b                           	decl	%ebx
      7c: 00 75 6e                     	addb	%dh, 110(%ebp)
      7f: 73 69                        	jae	0xea <.debug_str+0xea>
      81: 67 6e                        	outsb	(%si), %dx
      83: 65 64 20 63 68               	andb	%ah, %fs:104(%ebx)
      88: 61                           	popal
      89: 72 00                        	jb	0x8b <.debug_str+0x8b>
      8b: 42                           	incl	%edx
      8c: 4c                           	decl	%esp
      8d: 55                           	pushl	%ebp
      8e: 45                           	incl	%ebp
      8f: 00 73 72                     	addb	%dh, 114(%ebx)
      92: 63 2f                        	arpl	%bp, (%edi)
      94: 6b 65 72 6e                  	imull	$110, 114(%ebp), %esp
      98: 65 6c                        	insb	%dx, %es:(%edi)
      9a: 2f                           	das
      9b: 67 72 61                     	jb	0xff <.debug_str+0xff>
      9e: 70 68                        	jo	0x108 <.debug_str+0x108>
      a0: 69 63 73 2f 63 6f 6c         	imull	$1819239215, 115(%ebx), %esp # imm = 0x6C6F632F
      a7: 6f                           	outsl	(%esi), %dx
      a8: 75 72                        	jne	0x11c <.debug_str+0x11c>
      aa: 73 2e                        	jae	0xda <.debug_str+0xda>
      ac: 63 00                        	arpl	%ax, (%eax)
      ae: 59                           	popl	%ecx
      af: 45                           	incl	%ebp
      b0: 4c                           	decl	%esp
      b1: 4c                           	decl	%esp
      b2: 4f                           	decl	%edi
      b3: 57                           	pushl	%edi
      b4: 00 73 68                     	addb	%dh, 104(%ebx)
      b7: 6f                           	outsl	(%esi), %dx
      b8: 72 74                        	jb	0x12e <.debug_str+0x12e>
      ba: 20 75 6e                     	andb	%dh, 110(%ebp)
      bd: 73 69                        	jae	0x128 <.debug_str+0x128>
      bf: 67 6e                        	outsb	(%si), %dx
      c1: 65 64 20 69 6e               	andb	%ch, %fs:110(%ecx)
      c6: 74 00                        	je	0xc8 <.debug_str+0xc8>
      c8: 47                           	incl	%edi
      c9: 4e                           	decl	%esi
      ca: 55                           	pushl	%ebp
      cb: 20 43 39                     	andb	%al, 57(%ebx)
      ce: 39 20                        	cmpl	%esp, (%eax)
      d0: 31 30                        	xorl	%esi, (%eax)
      d2: 2e 33 2e                     	xorl	%cs:(%esi), %ebp
      d5: 30 20                        	xorb	%ah, (%eax)
      d7: 2d 6d 74 75 6e               	subl	$1853191277, %eax       # imm = 0x6E75746D
      dc: 65 3d 67 65 6e 65            	cmpl	$1701733735, %eax       # imm = 0x656E6567
      e2: 72 69                        	jb	0x14d <.debug_str+0x14d>
      e4: 63 20                        	arpl	%sp, (%eax)
      e6: 2d 6d 61 72 63               	subl	$1668440429, %eax       # imm = 0x6372616D
      eb: 68 3d 69 36 38               	pushl	$943089981              # imm = 0x3836693D
      f0: 36 20 2d 67 20 2d 4f         	andb	%ch, %ss:1328357479
      f7: 30 20                        	xorb	%ah, (%eax)
      f9: 2d 73 74 64 3d               	subl	$1029993587, %eax       # imm = 0x3D647473
      fe: 67 6e                        	outsb	(%si), %dx
     100: 75 39                        	jne	0x13b <.debug_str+0x13b>
     102: 39 20                        	cmpl	%esp, (%eax)
     104: 2d 66 66 72 65               	subl	$1701996134, %eax       # imm = 0x65726666
     109: 65 73 74                     	jae	0x180 <.debug_str+0x180>
     10c: 61                           	popal
     10d: 6e                           	outsb	(%esi), %dx
     10e: 64 69 6e 67 20 2d 66 61      	imull	$1634086176, %fs:103(%esi), %ebp # imm = 0x61662D20
     116: 6c                           	insb	%dx, %es:(%edi)
     117: 69 67 6e 2d 6a 75 6d         	imull	$1836411437, 110(%edi), %esp # imm = 0x6D756A2D
     11e: 70 73                        	jo	0x193 <.debug_str+0x193>
     120: 20 2d 66 61 6c 69            	andb	%ch, 1768710502
     126: 67 6e                        	outsb	(%si), %dx
     128: 2d 66 75 6e 63               	subl	$1668183398, %eax       # imm = 0x636E7566
     12d: 74 69                        	je	0x198 <.debug_str+0x198>
     12f: 6f                           	outsl	(%esi), %dx
     130: 6e                           	outsb	(%esi), %dx
     131: 73 20                        	jae	0x153 <.debug_str+0x153>
     133: 2d 66 61 6c 69               	subl	$1768710502, %eax       # imm = 0x696C6166
     138: 67 6e                        	outsb	(%si), %dx
     13a: 2d 6c 61 62 65               	subl	$1700946284, %eax       # imm = 0x6562616C
     13f: 6c                           	insb	%dx, %es:(%edi)
     140: 73 20                        	jae	0x162 <.debug_str+0x162>
     142: 2d 66 61 6c 69               	subl	$1768710502, %eax       # imm = 0x696C6166
     147: 67 6e                        	outsb	(%si), %dx
     149: 2d 6c 6f 6f 70               	subl	$1886351212, %eax       # imm = 0x706F6F6C
     14e: 73 20                        	jae	0x170 <.debug_str+0x170>
     150: 2d 66 6f 6d 69               	subl	$1768779622, %eax       # imm = 0x696D6F66
     155: 74 2d                        	je	0x184 <.debug_str+0x184>
     157: 66 72 61                     	jb	0x1bb <.debug_str+0x1bb>
     15a: 6d                           	insl	%dx, %es:(%edi)
     15b: 65 2d 70 6f 69 6e            	subl	$1852403568, %eax       # imm = 0x6E696F70
     161: 74 65                        	je	0x1c8 <.debug_str+0x1c8>
     163: 72 20                        	jb	0x185 <.debug_str+0x185>
     165: 2d 66 69 6e 6c               	subl	$1819175270, %eax       # imm = 0x6C6E6966
     16a: 69 6e 65 2d 66 75 6e         	imull	$1853187629, 101(%esi), %ebp # imm = 0x6E75662D
     171: 63 74 69 6f                  	arpl	%si, 111(%ecx,%ebp,2)
     175: 6e                           	outsb	(%esi), %dx
     176: 73 20                        	jae	0x198 <.debug_str+0x198>
     178: 2d 66 6e 6f 2d               	subl	$762277478, %eax        # imm = 0x2D6F6E66
     17d: 62 75 69                     	bound	%esi, 105(%ebp)
     180: 6c                           	insb	%dx, %es:(%edi)
     181: 74 69                        	je	0x1ec <.debug_str+0x1ec>
     183: 6e                           	outsb	(%esi), %dx
     184: 00 42 4c                     	addb	%al, 76(%edx)
     187: 41                           	incl	%ecx
     188: 43                           	incl	%ebx
     189: 4b                           	decl	%ebx
     18a: 00 69 6e                     	addb	%ch, 110(%ecx)
     18d: 69 74 5f 63 6f 6c 6f 75      	imull	$1970236527, 99(%edi,%ebx,2), %esi # imm = 0x756F6C6F
     195: 72 73                        	jb	0x20a <.debug_str+0x20a>
     197: 00 47 52                     	addb	%al, 82(%edi)
     19a: 45                           	incl	%ebp
     19b: 45                           	incl	%ebp
     19c: 4e                           	decl	%esi
     19d: 00 2f                        	addb	%ch, (%edi)
     19f: 55                           	pushl	%ebp
     1a0: 73 65                        	jae	0x207 <.debug_str+0x207>
     1a2: 72 73                        	jb	0x217 <.debug_str+0x217>
     1a4: 2f                           	das
     1a5: 6d                           	insl	%dx, %es:(%edi)
     1a6: 61                           	popal
     1a7: 72 74                        	jb	0x21d <.debug_str+0x21d>
     1a9: 69 6e 73 69 6d 61 6e         	imull	$1851878761, 115(%esi), %ebp # imm = 0x6E616D69
     1b0: 67 6f                        	outsl	(%si), %dx
     1b2: 2f                           	das
     1b3: 70 72                        	jo	0x227 <.debug_str+0x227>
     1b5: 6f                           	outsl	(%esi), %dx
     1b6: 6a 65                        	pushl	$101
     1b8: 63 74 73 2f                  	arpl	%si, 47(%ebx,%esi,2)
     1bc: 6d                           	insl	%dx, %es:(%edi)
     1bd: 6f                           	outsl	(%esi), %dx
     1be: 72 61                        	jb	0x221 <.debug_str+0x221>
     1c0: 62 61 72                     	bound	%esp, 114(%ecx)
     1c3: 61                           	popal
     1c4: 62 61 4f                     	bound	%esp, 79(%ecx)
     1c7: 53                           	pushl	%ebx
     1c8: 00 73 68                     	addb	%dh, 104(%ebx)
     1cb: 6f                           	outsl	(%esi), %dx
     1cc: 72 74                        	jb	0x242 <.debug_str+0x242>
     1ce: 20 75 6e                     	andb	%dh, 110(%ebp)
     1d1: 73 69                        	jae	0x23c <.debug_str+0x23c>
     1d3: 67 6e                        	outsb	(%si), %dx
     1d5: 65 64 20 69 6e               	andb	%ch, %fs:110(%ecx)
     1da: 74 00                        	je	0x1dc <.debug_str+0x1dc>
     1dc: 75 6e                        	jne	0x24c <.debug_str+0x24c>
     1de: 73 69                        	jae	0x249 <.debug_str+0x249>
     1e0: 67 6e                        	outsb	(%si), %dx
     1e2: 65 64 20 69 6e               	andb	%ch, %fs:110(%ecx)
     1e7: 74 00                        	je	0x1e9 <.debug_str+0x1e9>
     1e9: 62 6c 75 65                  	bound	%ebp, 101(%ebp,%esi,2)
     1ed: 00 50 55                     	addb	%dl, 85(%eax)
     1f0: 52                           	pushl	%edx
     1f1: 50                           	pushl	%eax
     1f2: 4c                           	decl	%esp
     1f3: 45                           	incl	%ebp
     1f4: 00 73 69                     	addb	%dh, 105(%ebx)
     1f7: 7a 65                        	jp	0x25e <.debug_str+0x25e>
     1f9: 5f                           	popl	%edi
     1fa: 74 00                        	je	0x1fc <.debug_str+0x1fc>
     1fc: 57                           	pushl	%edi
     1fd: 48                           	decl	%eax
     1fe: 49                           	decl	%ecx
     1ff: 54                           	pushl	%esp
     200: 45                           	incl	%ebp
     201: 00 73 72                     	addb	%dh, 114(%ebx)
     204: 63 2f                        	arpl	%bp, (%edi)
     206: 6b 65 72 6e                  	imull	$110, 114(%ebp), %esp
     20a: 65 6c                        	insb	%dx, %es:(%edi)
     20c: 2f                           	das
     20d: 67 72 61                     	jb	0x271 <.debug_str+0x271>
     210: 70 68                        	jo	0x27a <.debug_str+0x27a>
     212: 69 63 73 2f 66 6f 6e         	imull	$1852794415, 115(%ebx), %esp # imm = 0x6E6F662F
     219: 74 2e                        	je	0x249 <.debug_str+0x249>
     21b: 63 00                        	arpl	%ax, (%eax)
     21d: 53                           	pushl	%ebx
     21e: 43                           	incl	%ebx
     21f: 52                           	pushl	%edx
     220: 45                           	incl	%ebp
     221: 45                           	incl	%ebp
     222: 4e                           	decl	%esi
     223: 5f                           	popl	%edi
     224: 50                           	pushl	%eax
     225: 41                           	incl	%ecx
     226: 4c                           	decl	%esp
     227: 45                           	incl	%ebp
     228: 54                           	pushl	%esp
     229: 54                           	pushl	%esp
     22a: 45                           	incl	%ebp
     22b: 5f                           	popl	%edi
     22c: 53                           	pushl	%ebx
     22d: 49                           	decl	%ecx
     22e: 5a                           	popl	%edx
     22f: 45                           	incl	%ebp
     230: 00 63 6f                     	addb	%ah, 111(%ebx)
     233: 6c                           	insb	%dx, %es:(%edi)
     234: 6f                           	outsl	(%esi), %dx
     235: 72 00                        	jb	0x237 <.debug_str+0x237>
     237: 6c                           	insb	%dx, %es:(%edi)
     238: 6f                           	outsl	(%esi), %dx
     239: 6e                           	outsb	(%esi), %dx
     23a: 67 20 6c 6f                  	andb	%ch, 111(%si)
     23e: 6e                           	outsb	(%esi), %dx
     23f: 67 20 75 6e                  	andb	%dh, 110(%di)
     243: 73 69                        	jae	0x2ae <.debug_str+0x2ae>
     245: 67 6e                        	outsb	(%si), %dx
     247: 65 64 20 69 6e               	andb	%ch, %fs:110(%ecx)
     24c: 74 00                        	je	0x24e <.debug_str+0x24e>
     24e: 67 72 65                     	jb	0x2b6 <.debug_str+0x2b6>
     251: 65 6e                        	outsb	%gs:(%esi), %dx
     253: 00 4c 49 47                  	addb	%cl, 71(%ecx,%ecx,2)
     257: 48                           	decl	%eax
     258: 54                           	pushl	%esp
     259: 5f                           	popl	%edi
     25a: 42                           	incl	%edx
     25b: 4c                           	decl	%esp
     25c: 55                           	pushl	%ebp
     25d: 45                           	incl	%ebp
     25e: 00 50 49                     	addb	%dl, 73(%eax)
     261: 4e                           	decl	%esi
     262: 4b                           	decl	%ebx
     263: 00 75 6e                     	addb	%dh, 110(%ebp)
     266: 73 69                        	jae	0x2d1 <.debug_str+0x2d1>
     268: 67 6e                        	outsb	(%si), %dx
     26a: 65 64 20 63 68               	andb	%ah, %fs:104(%ebx)
     26f: 61                           	popal
     270: 72 00                        	jb	0x272 <.debug_str+0x272>
     272: 63 68 61                     	arpl	%bp, 97(%eax)
     275: 72 00                        	jb	0x277 <.debug_str+0x277>
     277: 66 6f                        	outsw	(%esi), %dx
     279: 6e                           	outsb	(%esi), %dx
     27a: 74 5f                        	je	0x2db <.debug_str+0x2db>
     27c: 63 68 61                     	arpl	%bp, 97(%eax)
     27f: 72 00                        	jb	0x281 <.debug_str+0x281>
     281: 42                           	incl	%edx
     282: 4c                           	decl	%esp
     283: 55                           	pushl	%ebp
     284: 45                           	incl	%ebp
     285: 00 66 6f                     	addb	%ah, 111(%esi)
     288: 6e                           	outsb	(%esi), %dx
     289: 74 5f                        	je	0x2ea <.debug_str+0x2ea>
     28b: 73 74                        	jae	0x301 <.debug_str+0x301>
     28d: 72 00                        	jb	0x28f <.debug_str+0x28f>
     28f: 59                           	popl	%ecx
     290: 45                           	incl	%ebp
     291: 4c                           	decl	%esp
     292: 4c                           	decl	%esp
     293: 4f                           	decl	%edi
     294: 57                           	pushl	%edi
     295: 00 46 4f                     	addb	%al, 79(%esi)
     298: 4e                           	decl	%esi
     299: 54                           	pushl	%esp
     29a: 00 75 69                     	addb	%dh, 105(%ebp)
     29d: 6e                           	outsb	(%esi), %dx
     29e: 74 38                        	je	0x2d8 <.debug_str+0x2d8>
     2a0: 00 47 4e                     	addb	%al, 78(%edi)
     2a3: 55                           	pushl	%ebp
     2a4: 20 43 39                     	andb	%al, 57(%ebx)
     2a7: 39 20                        	cmpl	%esp, (%eax)
     2a9: 31 30                        	xorl	%esi, (%eax)
     2ab: 2e 33 2e                     	xorl	%cs:(%esi), %ebp
     2ae: 30 20                        	xorb	%ah, (%eax)
     2b0: 2d 6d 74 75 6e               	subl	$1853191277, %eax       # imm = 0x6E75746D
     2b5: 65 3d 67 65 6e 65            	cmpl	$1701733735, %eax       # imm = 0x656E6567
     2bb: 72 69                        	jb	0x326 <.debug_str+0x326>
     2bd: 63 20                        	arpl	%sp, (%eax)
     2bf: 2d 6d 61 72 63               	subl	$1668440429, %eax       # imm = 0x6372616D
     2c4: 68 3d 69 36 38               	pushl	$943089981              # imm = 0x3836693D
     2c9: 36 20 2d 67 20 2d 4f         	andb	%ch, %ss:1328357479
     2d0: 30 20                        	xorb	%ah, (%eax)
     2d2: 2d 73 74 64 3d               	subl	$1029993587, %eax       # imm = 0x3D647473
     2d7: 67 6e                        	outsb	(%si), %dx
     2d9: 75 39                        	jne	0x314 <.debug_str+0x314>
     2db: 39 20                        	cmpl	%esp, (%eax)
     2dd: 2d 66 66 72 65               	subl	$1701996134, %eax       # imm = 0x65726666
     2e2: 65 73 74                     	jae	0x359 <.debug_str+0x359>
     2e5: 61                           	popal
     2e6: 6e                           	outsb	(%esi), %dx
     2e7: 64 69 6e 67 20 2d 66 61      	imull	$1634086176, %fs:103(%esi), %ebp # imm = 0x61662D20
     2ef: 6c                           	insb	%dx, %es:(%edi)
     2f0: 69 67 6e 2d 6a 75 6d         	imull	$1836411437, 110(%edi), %esp # imm = 0x6D756A2D
     2f7: 70 73                        	jo	0x36c <.debug_str+0x36c>
     2f9: 20 2d 66 61 6c 69            	andb	%ch, 1768710502
     2ff: 67 6e                        	outsb	(%si), %dx
     301: 2d 66 75 6e 63               	subl	$1668183398, %eax       # imm = 0x636E7566
     306: 74 69                        	je	0x371 <.debug_str+0x371>
     308: 6f                           	outsl	(%esi), %dx
     309: 6e                           	outsb	(%esi), %dx
     30a: 73 20                        	jae	0x32c <.debug_str+0x32c>
     30c: 2d 66 61 6c 69               	subl	$1768710502, %eax       # imm = 0x696C6166
     311: 67 6e                        	outsb	(%si), %dx
     313: 2d 6c 61 62 65               	subl	$1700946284, %eax       # imm = 0x6562616C
     318: 6c                           	insb	%dx, %es:(%edi)
     319: 73 20                        	jae	0x33b <.debug_str+0x33b>
     31b: 2d 66 61 6c 69               	subl	$1768710502, %eax       # imm = 0x696C6166
     320: 67 6e                        	outsb	(%si), %dx
     322: 2d 6c 6f 6f 70               	subl	$1886351212, %eax       # imm = 0x706F6F6C
     327: 73 20                        	jae	0x349 <.debug_str+0x349>
     329: 2d 66 6f 6d 69               	subl	$1768779622, %eax       # imm = 0x696D6F66
     32e: 74 2d                        	je	0x35d <.debug_str+0x35d>
     330: 66 72 61                     	jb	0x394 <.debug_str+0x394>
     333: 6d                           	insl	%dx, %es:(%edi)
     334: 65 2d 70 6f 69 6e            	subl	$1852403568, %eax       # imm = 0x6E696F70
     33a: 74 65                        	je	0x3a1 <.debug_str+0x3a1>
     33c: 72 20                        	jb	0x35e <.debug_str+0x35e>
     33e: 2d 66 69 6e 6c               	subl	$1819175270, %eax       # imm = 0x6C6E6966
     343: 69 6e 65 2d 66 75 6e         	imull	$1853187629, 101(%esi), %ebp # imm = 0x6E75662D
     34a: 63 74 69 6f                  	arpl	%si, 111(%ecx,%ebp,2)
     34e: 6e                           	outsb	(%esi), %dx
     34f: 73 20                        	jae	0x371 <.debug_str+0x371>
     351: 2d 66 6e 6f 2d               	subl	$762277478, %eax        # imm = 0x2D6F6E66
     356: 62 75 69                     	bound	%esi, 105(%ebp)
     359: 6c                           	insb	%dx, %es:(%edi)
     35a: 74 69                        	je	0x3c5 <.debug_str+0x3c5>
     35c: 6e                           	outsb	(%esi), %dx
     35d: 00 67 6c                     	addb	%ah, 108(%edi)
     360: 79 70                        	jns	0x3d2 <.debug_str+0x3d2>
     362: 68 00 42 4c 41               	pushl	$1095516672             # imm = 0x414C4200
     367: 43                           	incl	%ebx
     368: 4b                           	decl	%ebx
     369: 00 47 52                     	addb	%al, 82(%edi)
     36c: 45                           	incl	%ebp
     36d: 45                           	incl	%ebp
     36e: 4e                           	decl	%esi
     36f: 00 2f                        	addb	%ch, (%edi)
     371: 55                           	pushl	%ebp
     372: 73 65                        	jae	0x3d9 <.debug_str+0x3d9>
     374: 72 73                        	jb	0x3e9 <.debug_str+0x3e9>
     376: 2f                           	das
     377: 6d                           	insl	%dx, %es:(%edi)
     378: 61                           	popal
     379: 72 74                        	jb	0x3ef <.debug_str+0x3ef>
     37b: 69 6e 73 69 6d 61 6e         	imull	$1851878761, 115(%esi), %ebp # imm = 0x6E616D69
     382: 67 6f                        	outsl	(%si), %dx
     384: 2f                           	das
     385: 70 72                        	jo	0x3f9 <.debug_str+0x3f9>
     387: 6f                           	outsl	(%esi), %dx
     388: 6a 65                        	pushl	$101
     38a: 63 74 73 2f                  	arpl	%si, 47(%ebx,%esi,2)
     38e: 6d                           	insl	%dx, %es:(%edi)
     38f: 6f                           	outsl	(%esi), %dx
     390: 72 61                        	jb	0x3f3 <.debug_str+0x3f3>
     392: 62 61 72                     	bound	%esp, 114(%ecx)
     395: 61                           	popal
     396: 62 61 4f                     	bound	%esp, 79(%ecx)
     399: 53                           	pushl	%ebx
     39a: 00 70 61                     	addb	%dh, 97(%eax)
     39d: 6c                           	insb	%dx, %es:(%edi)
     39e: 6c                           	insb	%dx, %es:(%edi)
     39f: 65 74 74                     	je	0x416 <.debug_str+0x416>
     3a2: 65 5f                        	popl	%edi
     3a4: 73 69                        	jae	0x40f <.debug_str+0x40f>
     3a6: 7a 65                        	jp	0x40d <.debug_str+0x40d>
     3a8: 00 75 6e                     	addb	%dh, 110(%ebp)
     3ab: 73 69                        	jae	0x416 <.debug_str+0x416>
     3ad: 67 6e                        	outsb	(%si), %dx
     3af: 65 64 20 69 6e               	andb	%ch, %fs:110(%ecx)
     3b4: 74 00                        	je	0x3b6 <.debug_str+0x3b6>
     3b6: 62 6c 75 65                  	bound	%ebp, 101(%ebp,%esi,2)
     3ba: 00 63 6f                     	addb	%ah, 111(%ebx)
     3bd: 6c                           	insb	%dx, %es:(%edi)
     3be: 6f                           	outsl	(%esi), %dx
     3bf: 75 72                        	jne	0x433 <.debug_str+0x433>
     3c1: 00 50 55                     	addb	%dl, 85(%eax)
     3c4: 52                           	pushl	%edx
     3c5: 50                           	pushl	%eax
     3c6: 4c                           	decl	%esp
     3c7: 45                           	incl	%ebp
     3c8: 00 57 48                     	addb	%dl, 72(%edi)
     3cb: 49                           	decl	%ecx
     3cc: 54                           	pushl	%esp
     3cd: 45                           	incl	%ebp
     3ce: 00 56 47                     	addb	%dl, 71(%esi)
     3d1: 41                           	incl	%ecx
     3d2: 5f                           	popl	%edi
     3d3: 4d                           	decl	%ebp
     3d4: 45                           	incl	%ebp
     3d5: 4d                           	decl	%ebp
     3d6: 4f                           	decl	%edi
     3d7: 52                           	pushl	%edx
     3d8: 59                           	popl	%ecx
     3d9: 00 75 69                     	addb	%dh, 105(%ebp)
     3dc: 6e                           	outsb	(%esi), %dx
     3dd: 74 38                        	je	0x417 <.debug_str+0x417>
     3df: 00 53 43                     	addb	%dl, 67(%ebx)
     3e2: 52                           	pushl	%edx
     3e3: 45                           	incl	%ebp
     3e4: 45                           	incl	%ebp
     3e5: 4e                           	decl	%esi
     3e6: 5f                           	popl	%edi
     3e7: 50                           	pushl	%eax
     3e8: 41                           	incl	%ecx
     3e9: 4c                           	decl	%esp
     3ea: 45                           	incl	%ebp
     3eb: 54                           	pushl	%esp
     3ec: 54                           	pushl	%esp
     3ed: 45                           	incl	%ebp
     3ee: 5f                           	popl	%edi
     3ef: 53                           	pushl	%ebx
     3f0: 49                           	decl	%ecx
     3f1: 5a                           	popl	%edx
     3f2: 45                           	incl	%ebp
     3f3: 00 69 6e                     	addb	%ch, 110(%ecx)
     3f6: 69 74 5f 70 61 6c 6c 65      	imull	$1701604449, 112(%edi,%ebx,2), %esi # imm = 0x656C6C61
     3fe: 74 65                        	je	0x465 <.debug_str+0x465>
     400: 00 6c 6f 6e                  	addb	%ch, 110(%edi,%ebp,2)
     404: 67 20 6c 6f                  	andb	%ch, 111(%si)
     408: 6e                           	outsb	(%esi), %dx
     409: 67 20 75 6e                  	andb	%dh, 110(%di)
     40d: 73 69                        	jae	0x478 <.debug_str+0x478>
     40f: 67 6e                        	outsb	(%si), %dx
     411: 65 64 20 69 6e               	andb	%ch, %fs:110(%ecx)
     416: 74 00                        	je	0x418 <.debug_str+0x418>
     418: 67 72 65                     	jb	0x480 <.debug_str+0x480>
     41b: 65 6e                        	outsb	%gs:(%esi), %dx
     41d: 00 69 6e                     	addb	%ch, 110(%ecx)
     420: 69 74 5f 73 63 72 65 65      	imull	$1701147235, 115(%edi,%ebx,2), %esi # imm = 0x65657263
     428: 6e                           	outsb	(%esi), %dx
     429: 00 4c 49 47                  	addb	%cl, 71(%ecx,%ecx,2)
     42d: 48                           	decl	%eax
     42e: 54                           	pushl	%esp
     42f: 5f                           	popl	%edi
     430: 42                           	incl	%edx
     431: 4c                           	decl	%esp
     432: 55                           	pushl	%ebp
     433: 45                           	incl	%ebp
     434: 00 50 49                     	addb	%dl, 73(%eax)
     437: 4e                           	decl	%esi
     438: 4b                           	decl	%ebx
     439: 00 69 6e                     	addb	%ch, 110(%ecx)
     43c: 64 65 78 00                  	js	0x440 <.debug_str+0x440>
     440: 75 6e                        	jne	0x4b0 <.debug_str+0x4b0>
     442: 73 69                        	jae	0x4ad <.debug_str+0x4ad>
     444: 67 6e                        	outsb	(%si), %dx
     446: 65 64 20 63 68               	andb	%ah, %fs:104(%ebx)
     44b: 61                           	popal
     44c: 72 00                        	jb	0x44e <.debug_str+0x44e>
     44e: 63 68 61                     	arpl	%bp, 97(%eax)
     451: 72 00                        	jb	0x453 <.debug_str+0x453>
     453: 68 65 69 67 68               	pushl	$1751607653             # imm = 0x68676965
     458: 74 00                        	je	0x45a <.debug_str+0x45a>
     45a: 42                           	incl	%edx
     45b: 4c                           	decl	%esp
     45c: 55                           	pushl	%ebp
     45d: 45                           	incl	%ebp
     45e: 00 69 6e                     	addb	%ch, 110(%ecx)
     461: 69 74 5f 64 65 66 61 75      	imull	$1969317477, 100(%edi,%ebx,2), %esi # imm = 0x75616665
     469: 6c                           	insb	%dx, %es:(%edi)
     46a: 74 5f                        	je	0x4cb <.debug_str+0x4cb>
     46c: 70 61                        	jo	0x4cf <.debug_str+0x4cf>
     46e: 6c                           	insb	%dx, %es:(%edi)
     46f: 6c                           	insb	%dx, %es:(%edi)
     470: 65 74 65                     	je	0x4d8 <.debug_str+0x4d8>
     473: 00 59 45                     	addb	%bl, 69(%ecx)
     476: 4c                           	decl	%esp
     477: 4c                           	decl	%esp
     478: 4f                           	decl	%edi
     479: 57                           	pushl	%edi
     47a: 00 73 63                     	addb	%dh, 99(%ebx)
     47d: 72 65                        	jb	0x4e4 <.debug_str+0x4e4>
     47f: 65 6e                        	outsb	%gs:(%esi), %dx
     481: 5f                           	popl	%edi
     482: 73 65                        	jae	0x4e9 <.debug_str+0x4e9>
     484: 74 00                        	je	0x486 <.debug_str+0x486>
     486: 73 68                        	jae	0x4f0 <.debug_str+0x4f0>
     488: 6f                           	outsl	(%esi), %dx
     489: 72 74                        	jb	0x4ff <.debug_str+0x4ff>
     48b: 20 75 6e                     	andb	%dh, 110(%ebp)
     48e: 73 69                        	jae	0x4f9 <.debug_str+0x4f9>
     490: 67 6e                        	outsb	(%si), %dx
     492: 65 64 20 69 6e               	andb	%ch, %fs:110(%ecx)
     497: 74 00                        	je	0x499 <.debug_str+0x499>
     499: 42                           	incl	%edx
     49a: 4c                           	decl	%esp
     49b: 41                           	incl	%ecx
     49c: 43                           	incl	%ebx
     49d: 4b                           	decl	%ebx
     49e: 00 73 72                     	addb	%dh, 114(%ebx)
     4a1: 63 2f                        	arpl	%bp, (%edi)
     4a3: 6b 65 72 6e                  	imull	$110, 114(%ebp), %esp
     4a7: 65 6c                        	insb	%dx, %es:(%edi)
     4a9: 2f                           	das
     4aa: 67 72 61                     	jb	0x50e <.debug_str+0x50e>
     4ad: 70 68                        	jo	0x517 <.debug_str+0x517>
     4af: 69 63 73 2f 73 63 72         	imull	$1919120175, 115(%ebx), %esp # imm = 0x7263732F
     4b6: 65 65 6e                     	outsb	%gs:(%esi), %dx
     4b9: 2e 63 00                     	arpl	%ax, %cs:(%eax)
     4bc: 70 61                        	jo	0x51f <.debug_str+0x51f>
     4be: 6c                           	insb	%dx, %es:(%edi)
     4bf: 6c                           	insb	%dx, %es:(%edi)
     4c0: 65 74 65                     	je	0x528 <.debug_str+0x528>
     4c3: 5f                           	popl	%edi
     4c4: 73 65                        	jae	0x52b <.debug_str+0x52b>
     4c6: 74 00                        	je	0x4c8 <.debug_str+0x4c8>
     4c8: 47                           	incl	%edi
     4c9: 4e                           	decl	%esi
     4ca: 55                           	pushl	%ebp
     4cb: 20 43 39                     	andb	%al, 57(%ebx)
     4ce: 39 20                        	cmpl	%esp, (%eax)
     4d0: 31 30                        	xorl	%esi, (%eax)
     4d2: 2e 33 2e                     	xorl	%cs:(%esi), %ebp
     4d5: 30 20                        	xorb	%ah, (%eax)
     4d7: 2d 6d 74 75 6e               	subl	$1853191277, %eax       # imm = 0x6E75746D
     4dc: 65 3d 67 65 6e 65            	cmpl	$1701733735, %eax       # imm = 0x656E6567
     4e2: 72 69                        	jb	0x54d <.debug_str+0x54d>
     4e4: 63 20                        	arpl	%sp, (%eax)
     4e6: 2d 6d 61 72 63               	subl	$1668440429, %eax       # imm = 0x6372616D
     4eb: 68 3d 69 36 38               	pushl	$943089981              # imm = 0x3836693D
     4f0: 36 20 2d 67 20 2d 4f         	andb	%ch, %ss:1328357479
     4f7: 30 20                        	xorb	%ah, (%eax)
     4f9: 2d 73 74 64 3d               	subl	$1029993587, %eax       # imm = 0x3D647473
     4fe: 67 6e                        	outsb	(%si), %dx
     500: 75 39                        	jne	0x53b <.debug_str+0x53b>
     502: 39 20                        	cmpl	%esp, (%eax)
     504: 2d 66 66 72 65               	subl	$1701996134, %eax       # imm = 0x65726666
     509: 65 73 74                     	jae	0x580 <.debug_str+0x580>
     50c: 61                           	popal
     50d: 6e                           	outsb	(%esi), %dx
     50e: 64 69 6e 67 20 2d 66 61      	imull	$1634086176, %fs:103(%esi), %ebp # imm = 0x61662D20
     516: 6c                           	insb	%dx, %es:(%edi)
     517: 69 67 6e 2d 6a 75 6d         	imull	$1836411437, 110(%edi), %esp # imm = 0x6D756A2D
     51e: 70 73                        	jo	0x593 <.debug_str+0x593>
     520: 20 2d 66 61 6c 69            	andb	%ch, 1768710502
     526: 67 6e                        	outsb	(%si), %dx
     528: 2d 66 75 6e 63               	subl	$1668183398, %eax       # imm = 0x636E7566
     52d: 74 69                        	je	0x598 <.debug_str+0x598>
     52f: 6f                           	outsl	(%esi), %dx
     530: 6e                           	outsb	(%esi), %dx
     531: 73 20                        	jae	0x553 <.debug_str+0x553>
     533: 2d 66 61 6c 69               	subl	$1768710502, %eax       # imm = 0x696C6166
     538: 67 6e                        	outsb	(%si), %dx
     53a: 2d 6c 61 62 65               	subl	$1700946284, %eax       # imm = 0x6562616C
     53f: 6c                           	insb	%dx, %es:(%edi)
     540: 73 20                        	jae	0x562 <.debug_str+0x562>
     542: 2d 66 61 6c 69               	subl	$1768710502, %eax       # imm = 0x696C6166
     547: 67 6e                        	outsb	(%si), %dx
     549: 2d 6c 6f 6f 70               	subl	$1886351212, %eax       # imm = 0x706F6F6C
     54e: 73 20                        	jae	0x570 <.debug_str+0x570>
     550: 2d 66 6f 6d 69               	subl	$1768779622, %eax       # imm = 0x696D6F66
     555: 74 2d                        	je	0x584 <.debug_str+0x584>
     557: 66 72 61                     	jb	0x5bb <.debug_str+0x5bb>
     55a: 6d                           	insl	%dx, %es:(%edi)
     55b: 65 2d 70 6f 69 6e            	subl	$1852403568, %eax       # imm = 0x6E696F70
     561: 74 65                        	je	0x5c8 <.debug_str+0x5c8>
     563: 72 20                        	jb	0x585 <.debug_str+0x585>
     565: 2d 66 69 6e 6c               	subl	$1819175270, %eax       # imm = 0x6C6E6966
     56a: 69 6e 65 2d 66 75 6e         	imull	$1853187629, 101(%esi), %ebp # imm = 0x6E75662D
     571: 63 74 69 6f                  	arpl	%si, 111(%ecx,%ebp,2)
     575: 6e                           	outsb	(%esi), %dx
     576: 73 20                        	jae	0x598 <.debug_str+0x598>
     578: 2d 66 6e 6f 2d               	subl	$762277478, %eax        # imm = 0x2D6F6E66
     57d: 62 75 69                     	bound	%esi, 105(%ebp)
     580: 6c                           	insb	%dx, %es:(%edi)
     581: 74 69                        	je	0x5ec <.debug_str+0x5ec>
     583: 6e                           	outsb	(%esi), %dx
     584: 00 70 61                     	addb	%dh, 97(%eax)
     587: 6c                           	insb	%dx, %es:(%edi)
     588: 6c                           	insb	%dx, %es:(%edi)
     589: 65 74 65                     	je	0x5f1 <.debug_str+0x5f1>
     58c: 00 75 69                     	addb	%dh, 105(%ebp)
     58f: 6e                           	outsb	(%esi), %dx
     590: 74 31                        	je	0x5c3 <.debug_str+0x5c3>
     592: 36 00 77 69                  	addb	%dh, %ss:105(%edi)
     596: 64 74 68                     	je	0x601 <.debug_str+0x601>
     599: 00 6f 66                     	addb	%ch, 102(%edi)
     59c: 66 73 65                     	jae	0x604 <.debug_str+0x604>
     59f: 74 00                        	je	0x5a1 <.debug_str+0x5a1>
     5a1: 47                           	incl	%edi
     5a2: 52                           	pushl	%edx
     5a3: 45                           	incl	%ebp
     5a4: 45                           	incl	%ebp
     5a5: 4e                           	decl	%esi
     5a6: 00 2f                        	addb	%ch, (%edi)
     5a8: 55                           	pushl	%ebp
     5a9: 73 65                        	jae	0x610 <.debug_str+0x610>
     5ab: 72 73                        	jb	0x620 <.debug_str+0x620>
     5ad: 2f                           	das
     5ae: 6d                           	insl	%dx, %es:(%edi)
     5af: 61                           	popal
     5b0: 72 74                        	jb	0x626 <.debug_str+0x626>
     5b2: 69 6e 73 69 6d 61 6e         	imull	$1851878761, 115(%esi), %ebp # imm = 0x6E616D69
     5b9: 67 6f                        	outsl	(%si), %dx
     5bb: 2f                           	das
     5bc: 70 72                        	jo	0x630 <.debug_str+0x630>
     5be: 6f                           	outsl	(%esi), %dx
     5bf: 6a 65                        	pushl	$101
     5c1: 63 74 73 2f                  	arpl	%si, 47(%ebx,%esi,2)
     5c5: 6d                           	insl	%dx, %es:(%edi)
     5c6: 6f                           	outsl	(%esi), %dx
     5c7: 72 61                        	jb	0x62a <.debug_str+0x62a>
     5c9: 62 61 72                     	bound	%esp, 114(%ecx)
     5cc: 61                           	popal
     5cd: 62 61 4f                     	bound	%esp, 79(%ecx)
     5d0: 53                           	pushl	%ebx
     5d1: 00 75 69                     	addb	%dh, 105(%ebp)
     5d4: 6e                           	outsb	(%esi), %dx
     5d5: 74 33                        	je	0x60a <.debug_str+0x60a>
     5d7: 32 00                        	xorb	(%eax), %al
     5d9: 75 6e                        	jne	0x649 <.debug_str+0x649>
     5db: 73 69                        	jae	0x646 <.debug_str+0x646>
     5dd: 67 6e                        	outsb	(%si), %dx
     5df: 65 64 20 69 6e               	andb	%ch, %fs:110(%ecx)
     5e4: 74 00                        	je	0x5e6 <.debug_str+0x5e6>
     5e6: 74 79                        	je	0x661 <.debug_str+0x661>
     5e8: 70 65                        	jo	0x64f <.debug_str+0x64f>
     5ea: 5f                           	popl	%edi
     5eb: 61                           	popal
     5ec: 74 74                        	je	0x662 <.debug_str+0x662>
     5ee: 72 00                        	jb	0x5f0 <.debug_str+0x5f0>
     5f0: 73 65                        	jae	0x657 <.debug_str+0x657>
     5f2: 6c                           	insb	%dx, %es:(%edi)
     5f3: 65 63 74 6f 72               	arpl	%si, %gs:114(%edi,%ebp,2)
     5f8: 00 69 64                     	addb	%ch, 100(%ecx)
     5fb: 74 5f                        	je	0x65c <.debug_str+0x65c>
     5fd: 73 65                        	jae	0x664 <.debug_str+0x664>
     5ff: 74 00                        	je	0x601 <.debug_str+0x601>
     601: 54                           	pushl	%esp
     602: 54                           	pushl	%esp
     603: 59                           	popl	%ecx
     604: 5f                           	popl	%edi
     605: 47                           	incl	%edi
     606: 52                           	pushl	%edx
     607: 45                           	incl	%ebp
     608: 45                           	incl	%ebp
     609: 4e                           	decl	%esi
     60a: 00 54 54 59                  	addb	%dl, 89(%esp,%edx,2)
     60e: 5f                           	popl	%edi
     60f: 42                           	incl	%edx
     610: 4c                           	decl	%esp
     611: 55                           	pushl	%ebp
     612: 45                           	incl	%ebp
     613: 00 69 64                     	addb	%ch, 100(%ecx)
     616: 74 5f                        	je	0x677 <.debug_str+0x677>
     618: 64 65 73 63                  	jae	0x67f <.debug_str+0x67f>
     61c: 72 69                        	jb	0x687 <.debug_str+0x687>
     61e: 70 74                        	jo	0x694 <.debug_str+0x694>
     620: 6f                           	outsl	(%esi), %dx
     621: 72 73                        	jb	0x696 <.debug_str+0x696>
     623: 00 75 69                     	addb	%dh, 105(%ebp)
     626: 6e                           	outsb	(%esi), %dx
     627: 74 38                        	je	0x661 <.debug_str+0x661>
     629: 00 6f 66                     	addb	%ch, 102(%edi)
     62c: 66 73 65                     	jae	0x694 <.debug_str+0x694>
     62f: 74 5f                        	je	0x690 <.debug_str+0x690>
     631: 6c                           	insb	%dx, %es:(%edi)
     632: 6f                           	outsl	(%esi), %dx
     633: 77 00                        	ja	0x635 <.debug_str+0x635>
     635: 6c                           	insb	%dx, %es:(%edi)
     636: 69 6d 69 74 00 6c 6f         	imull	$1869348980, 105(%ebp), %ebp # imm = 0x6F6C0074
     63d: 6e                           	outsb	(%esi), %dx
     63e: 67 20 6c 6f                  	andb	%ch, 111(%si)
     642: 6e                           	outsb	(%esi), %dx
     643: 67 20 75 6e                  	andb	%dh, 110(%di)
     647: 73 69                        	jae	0x6b2 <.debug_str+0x6b2>
     649: 67 6e                        	outsb	(%si), %dx
     64b: 65 64 20 69 6e               	andb	%ch, %fs:110(%ecx)
     650: 74 00                        	je	0x652 <.debug_str+0x652>
     652: 69 64 74 72 5f 64 65 73      	imull	$1936024671, 114(%esp,%esi,2), %esp # imm = 0x7365645F
     65a: 63 00                        	arpl	%ax, (%eax)
     65c: 69 6e 74 32 30 68 5f         	imull	$1600663602, 116(%esi), %ebp # imm = 0x5F683032
     663: 68 61 6e 64 6c               	pushl	$1818521185             # imm = 0x6C646E61
     668: 65 72 00                     	jb	0x66b <.debug_str+0x66b>
     66b: 62 61 73                     	bound	%esp, 115(%ecx)
     66e: 65 00 54 54 59               	addb	%dl, %gs:89(%esp,%edx,2)
     673: 5f                           	popl	%edi
     674: 43                           	incl	%ebx
     675: 4c                           	decl	%esp
     676: 45                           	incl	%ebp
     677: 41                           	incl	%ecx
     678: 52                           	pushl	%edx
     679: 00 75 6e                     	addb	%dh, 110(%ebp)
     67c: 73 69                        	jae	0x6e7 <.debug_str+0x6e7>
     67e: 67 6e                        	outsb	(%si), %dx
     680: 65 64 20 63 68               	andb	%ah, %fs:104(%ebx)
     685: 61                           	popal
     686: 72 00                        	jb	0x688 <.debug_str+0x688>
     688: 54                           	pushl	%esp
     689: 54                           	pushl	%esp
     68a: 59                           	popl	%ecx
     68b: 5f                           	popl	%edi
     68c: 42                           	incl	%edx
     68d: 4c                           	decl	%esp
     68e: 55                           	pushl	%ebp
     68f: 45                           	incl	%ebp
     690: 5f                           	popl	%edi
     691: 47                           	incl	%edi
     692: 52                           	pushl	%edx
     693: 45                           	incl	%ebp
     694: 45                           	incl	%ebp
     695: 4e                           	decl	%esi
     696: 00 69 6e                     	addb	%ch, 110(%ecx)
     699: 74 65                        	je	0x700 <.debug_str+0x700>
     69b: 72 72                        	jb	0x70f <.debug_str+0x70f>
     69d: 75 70                        	jne	0x70f <.debug_str+0x70f>
     69f: 74 5f                        	je	0x700 <.debug_str+0x700>
     6a1: 6e                           	outsb	(%esi), %dx
     6a2: 6f                           	outsl	(%esi), %dx
     6a3: 00 69 64                     	addb	%ch, 100(%ecx)
     6a6: 74 5f                        	je	0x707 <.debug_str+0x707>
     6a8: 7a 65                        	jp	0x70f <.debug_str+0x70f>
     6aa: 72 6f                        	jb	0x71b <.debug_str+0x71b>
     6ac: 00 44 65 66                  	addb	%al, 102(%ebp,%eiz,2)
     6b0: 61                           	popal
     6b1: 75 6c                        	jne	0x71f <.debug_str+0x71f>
     6b3: 74 54                        	je	0x709 <.debug_str+0x709>
     6b5: 54                           	pushl	%esp
     6b6: 59                           	popl	%ecx
     6b7: 00 74 65 72                  	addb	%dh, 114(%ebp,%eiz,2)
     6bb: 6d                           	insl	%dx, %es:(%edi)
     6bc: 69 6e 61 6c 5f 72 6f         	imull	$1869766508, 97(%esi), %ebp # imm = 0x6F725F6C
     6c3: 77 00                        	ja	0x6c5 <.debug_str+0x6c5>
     6c5: 61                           	popal
     6c6: 64 64 72 65                  	jb	0x72f <.debug_str+0x72f>
     6ca: 73 73                        	jae	0x73f <.debug_str+0x73f>
     6cc: 00 54 54 59                  	addb	%dl, 89(%esp,%edx,2)
     6d0: 5f                           	popl	%edi
     6d1: 57                           	pushl	%edi
     6d2: 48                           	decl	%eax
     6d3: 49                           	decl	%ecx
     6d4: 54                           	pushl	%esp
     6d5: 45                           	incl	%ebp
     6d6: 00 74 65 72                  	addb	%dh, 114(%ebp,%eiz,2)
     6da: 6d                           	insl	%dx, %es:(%edi)
     6db: 69 6e 61 6c 00 69 64         	imull	$1684602988, 97(%esi), %ebp # imm = 0x6469006C
     6e2: 74 5f                        	je	0x743 <.debug_str+0x743>
     6e4: 64 65 73 63                  	jae	0x74b <.debug_str+0x74b>
     6e8: 00 73 68                     	addb	%dh, 104(%ebx)
     6eb: 6f                           	outsl	(%esi), %dx
     6ec: 72 74                        	jb	0x762 <.debug_str+0x762>
     6ee: 20 75 6e                     	andb	%dh, 110(%ebp)
     6f1: 73 69                        	jae	0x75c <.debug_str+0x75c>
     6f3: 67 6e                        	outsb	(%si), %dx
     6f5: 65 64 20 69 6e               	andb	%ch, %fs:110(%ecx)
     6fa: 74 00                        	je	0x6fc <.debug_str+0x6fc>
     6fc: 73 72                        	jae	0x770 <.debug_str+0x770>
     6fe: 63 2f                        	arpl	%bp, (%edi)
     700: 6b 65 72 6e                  	imull	$110, 114(%ebp), %esp
     704: 65 6c                        	insb	%dx, %es:(%edi)
     706: 2f                           	das
     707: 69 64 74 2f 69 64 74 2e      	imull	$779379817, 47(%esp,%esi,2), %esp # imm = 0x2E746469
     70f: 63 00                        	arpl	%ax, (%eax)
     711: 74 65                        	je	0x778 <.debug_str+0x778>
     713: 72 6d                        	jb	0x782 <.debug_str+0x782>
     715: 69 6e 61 6c 5f 63 6f         	imull	$1868783468, 97(%esi), %ebp # imm = 0x6F635F6C
     71c: 6c                           	insb	%dx, %es:(%edi)
     71d: 00 74 65 78                  	addb	%dh, 120(%ebp,%eiz,2)
     721: 74 5f                        	je	0x782 <.debug_str+0x782>
     723: 63 6f 6c                     	arpl	%bp, 108(%edi)
     726: 6f                           	outsl	(%esi), %dx
     727: 72 00                        	jb	0x729 <.debug_str+0x729>
     729: 6e                           	outsb	(%esi), %dx
     72a: 6f                           	outsl	(%esi), %dx
     72b: 5f                           	popl	%edi
     72c: 69 6e 74 65 72 72 75         	imull	$1970434661, 116(%esi), %ebp # imm = 0x75727265
     733: 70 74                        	jo	0x7a9 <.debug_str+0x7a9>
     735: 5f                           	popl	%edi
     736: 68 61 6e 64 6c               	pushl	$1818521185             # imm = 0x6C646E61
     73b: 65 72 00                     	jb	0x73e <.debug_str+0x73e>
     73e: 47                           	incl	%edi
     73f: 4e                           	decl	%esi
     740: 55                           	pushl	%ebp
     741: 20 43 39                     	andb	%al, 57(%ebx)
     744: 39 20                        	cmpl	%esp, (%eax)
     746: 31 30                        	xorl	%esi, (%eax)
     748: 2e 33 2e                     	xorl	%cs:(%esi), %ebp
     74b: 30 20                        	xorb	%ah, (%eax)
     74d: 2d 6d 74 75 6e               	subl	$1853191277, %eax       # imm = 0x6E75746D
     752: 65 3d 67 65 6e 65            	cmpl	$1701733735, %eax       # imm = 0x656E6567
     758: 72 69                        	jb	0x7c3 <.debug_str+0x7c3>
     75a: 63 20                        	arpl	%sp, (%eax)
     75c: 2d 6d 61 72 63               	subl	$1668440429, %eax       # imm = 0x6372616D
     761: 68 3d 69 36 38               	pushl	$943089981              # imm = 0x3836693D
     766: 36 20 2d 67 20 2d 4f         	andb	%ch, %ss:1328357479
     76d: 30 20                        	xorb	%ah, (%eax)
     76f: 2d 73 74 64 3d               	subl	$1029993587, %eax       # imm = 0x3D647473
     774: 67 6e                        	outsb	(%si), %dx
     776: 75 39                        	jne	0x7b1 <.debug_str+0x7b1>
     778: 39 20                        	cmpl	%esp, (%eax)
     77a: 2d 66 66 72 65               	subl	$1701996134, %eax       # imm = 0x65726666
     77f: 65 73 74                     	jae	0x7f6 <.debug_str+0x7f6>
     782: 61                           	popal
     783: 6e                           	outsb	(%esi), %dx
     784: 64 69 6e 67 20 2d 66 61      	imull	$1634086176, %fs:103(%esi), %ebp # imm = 0x61662D20
     78c: 6c                           	insb	%dx, %es:(%edi)
     78d: 69 67 6e 2d 6a 75 6d         	imull	$1836411437, 110(%edi), %esp # imm = 0x6D756A2D
     794: 70 73                        	jo	0x809 <.debug_str+0x809>
     796: 20 2d 66 61 6c 69            	andb	%ch, 1768710502
     79c: 67 6e                        	outsb	(%si), %dx
     79e: 2d 66 75 6e 63               	subl	$1668183398, %eax       # imm = 0x636E7566
     7a3: 74 69                        	je	0x80e <.debug_str+0x80e>
     7a5: 6f                           	outsl	(%esi), %dx
     7a6: 6e                           	outsb	(%esi), %dx
     7a7: 73 20                        	jae	0x7c9 <.debug_str+0x7c9>
     7a9: 2d 66 61 6c 69               	subl	$1768710502, %eax       # imm = 0x696C6166
     7ae: 67 6e                        	outsb	(%si), %dx
     7b0: 2d 6c 61 62 65               	subl	$1700946284, %eax       # imm = 0x6562616C
     7b5: 6c                           	insb	%dx, %es:(%edi)
     7b6: 73 20                        	jae	0x7d8 <.debug_str+0x7d8>
     7b8: 2d 66 61 6c 69               	subl	$1768710502, %eax       # imm = 0x696C6166
     7bd: 67 6e                        	outsb	(%si), %dx
     7bf: 2d 6c 6f 6f 70               	subl	$1886351212, %eax       # imm = 0x706F6F6C
     7c4: 73 20                        	jae	0x7e6 <.debug_str+0x7e6>
     7c6: 2d 66 6f 6d 69               	subl	$1768779622, %eax       # imm = 0x696D6F66
     7cb: 74 2d                        	je	0x7fa <.debug_str+0x7fa>
     7cd: 66 72 61                     	jb	0x831 <.debug_str+0x831>
     7d0: 6d                           	insl	%dx, %es:(%edi)
     7d1: 65 2d 70 6f 69 6e            	subl	$1852403568, %eax       # imm = 0x6E696F70
     7d7: 74 65                        	je	0x83e <.debug_str+0x83e>
     7d9: 72 20                        	jb	0x7fb <.debug_str+0x7fb>
     7db: 2d 66 69 6e 6c               	subl	$1819175270, %eax       # imm = 0x6C6E6966
     7e0: 69 6e 65 2d 66 75 6e         	imull	$1853187629, 101(%esi), %ebp # imm = 0x6E75662D
     7e7: 63 74 69 6f                  	arpl	%si, 111(%ecx,%ebp,2)
     7eb: 6e                           	outsb	(%esi), %dx
     7ec: 73 20                        	jae	0x80e <.debug_str+0x80e>
     7ee: 2d 66 6e 6f 2d               	subl	$762277478, %eax        # imm = 0x2D6F6E66
     7f3: 62 75 69                     	bound	%esi, 105(%ebp)
     7f6: 6c                           	insb	%dx, %es:(%edi)
     7f7: 74 69                        	je	0x862 <.debug_str+0x862>
     7f9: 6e                           	outsb	(%esi), %dx
     7fa: 00 7a 65                     	addb	%bh, 101(%edx)
     7fd: 72 6f                        	jb	0x86e <.debug_str+0x86e>
     7ff: 00 64 65 73                  	addb	%ah, 115(%ebp,%eiz,2)
     803: 63 00                        	arpl	%ax, (%eax)
     805: 75 69                        	jne	0x870 <.debug_str+0x870>
     807: 6e                           	outsb	(%esi), %dx
     808: 74 31                        	je	0x83b <.debug_str+0x83b>
     80a: 36 00 69 64                  	addb	%ch, %ss:100(%ecx)
     80e: 74 72                        	je	0x882 <.debug_str+0x882>
     810: 5f                           	popl	%edi
     811: 64 65 73 63                  	jae	0x878 <.debug_str+0x878>
     815: 72 69                        	jb	0x880 <.debug_str+0x880>
     817: 70 74                        	jo	0x88d <.debug_str+0x88d>
     819: 6f                           	outsl	(%esi), %dx
     81a: 72 00                        	jb	0x81c <.debug_str+0x81c>
     81c: 74 74                        	je	0x892 <.debug_str+0x892>
     81e: 79 5f                        	jns	0x87f <.debug_str+0x87f>
     820: 63 6f 6c                     	arpl	%bp, 108(%edi)
     823: 6f                           	outsl	(%esi), %dx
     824: 72 00                        	jb	0x826 <.debug_str+0x826>
     826: 69 64 74 5f 69 6e 69 74      	imull	$1953066601, 95(%esp,%esi,2), %esp # imm = 0x74696E69
     82e: 00 6f 66                     	addb	%ch, 102(%edi)
     831: 66 73 65                     	jae	0x899 <.debug_str+0x899>
     834: 74 5f                        	je	0x895 <.debug_str+0x895>
     836: 68 69 67 68 00               	pushl	$6842217                # imm = 0x686769
     83b: 6d                           	insl	%dx, %es:(%edi)
     83c: 61                           	popal
     83d: 73 6b                        	jae	0x8aa <.debug_str+0x8aa>
     83f: 5f                           	popl	%edi
     840: 31 00                        	xorl	%eax, (%eax)
     842: 75 6e                        	jne	0x8b2 <.debug_str+0x8b2>
     844: 73 69                        	jae	0x8af <.debug_str+0x8af>
     846: 67 6e                        	outsb	(%si), %dx
     848: 65 64 20 69 6e               	andb	%ch, %fs:110(%ecx)
     84d: 74 00                        	je	0x84f <.debug_str+0x84f>
     84f: 75 6e                        	jne	0x8bf <.debug_str+0x8bf>
     851: 73 69                        	jae	0x8bc <.debug_str+0x8bc>
     853: 67 6e                        	outsb	(%si), %dx
     855: 65 64 20 63 68               	andb	%ah, %fs:104(%ebx)
     85a: 61                           	popal
     85b: 72 00                        	jb	0x85d <.debug_str+0x85d>
     85d: 2f                           	das
     85e: 55                           	pushl	%ebp
     85f: 73 65                        	jae	0x8c6 <.debug_str+0x8c6>
     861: 72 73                        	jb	0x8d6 <.debug_str+0x8d6>
     863: 2f                           	das
     864: 6d                           	insl	%dx, %es:(%edi)
     865: 61                           	popal
     866: 72 74                        	jb	0x8dc <.debug_str+0x8dc>
     868: 69 6e 73 69 6d 61 6e         	imull	$1851878761, 115(%esi), %ebp # imm = 0x6E616D69
     86f: 67 6f                        	outsl	(%si), %dx
     871: 2f                           	das
     872: 70 72                        	jo	0x8e6 <.debug_str+0x8e6>
     874: 6f                           	outsl	(%esi), %dx
     875: 6a 65                        	pushl	$101
     877: 63 74 73 2f                  	arpl	%si, 47(%ebx,%esi,2)
     87b: 6d                           	insl	%dx, %es:(%edi)
     87c: 6f                           	outsl	(%esi), %dx
     87d: 72 61                        	jb	0x8e0 <.debug_str+0x8e0>
     87f: 62 61 72                     	bound	%esp, 114(%ecx)
     882: 61                           	popal
     883: 62 61 4f                     	bound	%esp, 79(%ecx)
     886: 53                           	pushl	%ebx
     887: 00 73 68                     	addb	%dh, 104(%ebx)
     88a: 6f                           	outsl	(%esi), %dx
     88b: 72 74                        	jb	0x901 <.debug_str+0x901>
     88d: 20 75 6e                     	andb	%dh, 110(%ebp)
     890: 73 69                        	jae	0x8fb <.debug_str+0x8fb>
     892: 67 6e                        	outsb	(%si), %dx
     894: 65 64 20 69 6e               	andb	%ch, %fs:110(%ecx)
     899: 74 00                        	je	0x89b <.debug_str+0x89b>
     89b: 73 72                        	jae	0x90f <.debug_str+0x90f>
     89d: 63 2f                        	arpl	%bp, (%edi)
     89f: 6b 65 72 6e                  	imull	$110, 114(%ebp), %esp
     8a3: 65 6c                        	insb	%dx, %es:(%edi)
     8a5: 2f                           	das
     8a6: 69 72 71 2f 69 72 71         	imull	$1903323439, 113(%edx), %esi # imm = 0x7172692F
     8ad: 2e 63 00                     	arpl	%ax, %cs:(%eax)
     8b0: 6c                           	insb	%dx, %es:(%edi)
     8b1: 6f                           	outsl	(%esi), %dx
     8b2: 6e                           	outsb	(%esi), %dx
     8b3: 67 20 6c 6f                  	andb	%ch, 111(%si)
     8b7: 6e                           	outsb	(%esi), %dx
     8b8: 67 20 75 6e                  	andb	%dh, 110(%di)
     8bc: 73 69                        	jae	0x927 <.debug_str+0x927>
     8be: 67 6e                        	outsb	(%si), %dx
     8c0: 65 64 20 69 6e               	andb	%ch, %fs:110(%ecx)
     8c5: 74 00                        	je	0x8c7 <.debug_str+0x8c7>
     8c7: 47                           	incl	%edi
     8c8: 4e                           	decl	%esi
     8c9: 55                           	pushl	%ebp
     8ca: 20 43 39                     	andb	%al, 57(%ebx)
     8cd: 39 20                        	cmpl	%esp, (%eax)
     8cf: 31 30                        	xorl	%esi, (%eax)
     8d1: 2e 33 2e                     	xorl	%cs:(%esi), %ebp
     8d4: 30 20                        	xorb	%ah, (%eax)
     8d6: 2d 6d 74 75 6e               	subl	$1853191277, %eax       # imm = 0x6E75746D
     8db: 65 3d 67 65 6e 65            	cmpl	$1701733735, %eax       # imm = 0x656E6567
     8e1: 72 69                        	jb	0x94c <.debug_str+0x94c>
     8e3: 63 20                        	arpl	%sp, (%eax)
     8e5: 2d 6d 61 72 63               	subl	$1668440429, %eax       # imm = 0x6372616D
     8ea: 68 3d 69 36 38               	pushl	$943089981              # imm = 0x3836693D
     8ef: 36 20 2d 67 20 2d 4f         	andb	%ch, %ss:1328357479
     8f6: 30 20                        	xorb	%ah, (%eax)
     8f8: 2d 73 74 64 3d               	subl	$1029993587, %eax       # imm = 0x3D647473
     8fd: 67 6e                        	outsb	(%si), %dx
     8ff: 75 39                        	jne	0x93a <.debug_str+0x93a>
     901: 39 20                        	cmpl	%esp, (%eax)
     903: 2d 66 66 72 65               	subl	$1701996134, %eax       # imm = 0x65726666
     908: 65 73 74                     	jae	0x97f <.debug_str+0x97f>
     90b: 61                           	popal
     90c: 6e                           	outsb	(%esi), %dx
     90d: 64 69 6e 67 20 2d 66 61      	imull	$1634086176, %fs:103(%esi), %ebp # imm = 0x61662D20
     915: 6c                           	insb	%dx, %es:(%edi)
     916: 69 67 6e 2d 6a 75 6d         	imull	$1836411437, 110(%edi), %esp # imm = 0x6D756A2D
     91d: 70 73                        	jo	0x992 <.debug_str+0x992>
     91f: 20 2d 66 61 6c 69            	andb	%ch, 1768710502
     925: 67 6e                        	outsb	(%si), %dx
     927: 2d 66 75 6e 63               	subl	$1668183398, %eax       # imm = 0x636E7566
     92c: 74 69                        	je	0x997 <.debug_str+0x997>
     92e: 6f                           	outsl	(%esi), %dx
     92f: 6e                           	outsb	(%esi), %dx
     930: 73 20                        	jae	0x952 <.debug_str+0x952>
     932: 2d 66 61 6c 69               	subl	$1768710502, %eax       # imm = 0x696C6166
     937: 67 6e                        	outsb	(%si), %dx
     939: 2d 6c 61 62 65               	subl	$1700946284, %eax       # imm = 0x6562616C
     93e: 6c                           	insb	%dx, %es:(%edi)
     93f: 73 20                        	jae	0x961 <.debug_str+0x961>
     941: 2d 66 61 6c 69               	subl	$1768710502, %eax       # imm = 0x696C6166
     946: 67 6e                        	outsb	(%si), %dx
     948: 2d 6c 6f 6f 70               	subl	$1886351212, %eax       # imm = 0x706F6F6C
     94d: 73 20                        	jae	0x96f <.debug_str+0x96f>
     94f: 2d 66 6f 6d 69               	subl	$1768779622, %eax       # imm = 0x696D6F66
     954: 74 2d                        	je	0x983 <.debug_str+0x983>
     956: 66 72 61                     	jb	0x9ba <.debug_str+0x9ba>
     959: 6d                           	insl	%dx, %es:(%edi)
     95a: 65 2d 70 6f 69 6e            	subl	$1852403568, %eax       # imm = 0x6E696F70
     960: 74 65                        	je	0x9c7 <.debug_str+0x9c7>
     962: 72 20                        	jb	0x984 <.debug_str+0x984>
     964: 2d 66 69 6e 6c               	subl	$1819175270, %eax       # imm = 0x6C6E6966
     969: 69 6e 65 2d 66 75 6e         	imull	$1853187629, 101(%esi), %ebp # imm = 0x6E75662D
     970: 63 74 69 6f                  	arpl	%si, 111(%ecx,%ebp,2)
     974: 6e                           	outsb	(%esi), %dx
     975: 73 20                        	jae	0x997 <.debug_str+0x997>
     977: 2d 66 6e 6f 2d               	subl	$762277478, %eax        # imm = 0x2D6F6E66
     97c: 62 75 69                     	bound	%esi, 105(%ebp)
     97f: 6c                           	insb	%dx, %es:(%edi)
     980: 74 69                        	je	0x9eb <.debug_str+0x9eb>
     982: 6e                           	outsb	(%esi), %dx
     983: 00 75 69                     	addb	%dh, 105(%ebp)
     986: 6e                           	outsb	(%esi), %dx
     987: 74 38                        	je	0x9c1 <.debug_str+0x9c1>
     989: 00 72 65                     	addb	%dh, 101(%edx)
     98c: 6d                           	insl	%dx, %es:(%edi)
     98d: 61                           	popal
     98e: 70 5f                        	jo	0x9ef <.debug_str+0x9ef>
     990: 70 69                        	jo	0x9fb <.debug_str+0x9fb>
     992: 63 00                        	arpl	%ax, (%eax)
     994: 6d                           	insl	%dx, %es:(%edi)
     995: 61                           	popal
     996: 73 6b                        	jae	0xa03 <.debug_str+0xa03>
     998: 5f                           	popl	%edi
     999: 32 00                        	xorb	(%eax), %al
     99b: 69 72 71 5f 69 6e 69         	imull	$1768843615, 113(%edx), %esi # imm = 0x696E695F
     9a2: 74 00                        	je	0x9a4 <.debug_str+0x9a4>
     9a4: 54                           	pushl	%esp
     9a5: 54                           	pushl	%esp
     9a6: 59                           	popl	%ecx
     9a7: 5f                           	popl	%edi
     9a8: 47                           	incl	%edi
     9a9: 52                           	pushl	%edx
     9aa: 45                           	incl	%ebp
     9ab: 45                           	incl	%ebp
     9ac: 4e                           	decl	%esi
     9ad: 00 54 54 59                  	addb	%dl, 89(%esp,%edx,2)
     9b1: 5f                           	popl	%edi
     9b2: 57                           	pushl	%edi
     9b3: 48                           	decl	%eax
     9b4: 49                           	decl	%ecx
     9b5: 54                           	pushl	%esp
     9b6: 45                           	incl	%ebp
     9b7: 00 74 74 79                  	addb	%dh, 121(%esp,%esi,2)
     9bb: 5f                           	popl	%edi
     9bc: 63 6f 6c                     	arpl	%bp, 108(%edi)
     9bf: 6f                           	outsl	(%esi), %dx
     9c0: 72 00                        	jb	0x9c2 <.debug_str+0x9c2>
     9c2: 73 69                        	jae	0xa2d <.debug_str+0xa2d>
     9c4: 7a 65                        	jp	0xa2b <.debug_str+0xa2b>
     9c6: 5f                           	popl	%edi
     9c7: 74 00                        	je	0x9c9 <.debug_str+0x9c9>
     9c9: 68 65 61 70 5f               	pushl	$1601200485             # imm = 0x5F706165
     9ce: 6d                           	insl	%dx, %es:(%edi)
     9cf: 61                           	popal
     9d0: 6c                           	insb	%dx, %es:(%edi)
     9d1: 6c                           	insb	%dx, %es:(%edi)
     9d2: 6f                           	outsl	(%esi), %dx
     9d3: 63 5f 62                     	arpl	%bx, 98(%edi)
     9d6: 6c                           	insb	%dx, %es:(%edi)
     9d7: 6f                           	outsl	(%esi), %dx
     9d8: 63 6b 00                     	arpl	%bp, (%ebx)
     9db: 61                           	popal
     9dc: 6c                           	insb	%dx, %es:(%edi)
     9dd: 69 67 6e 65 64 5f 73         	imull	$1935631461, 110(%edi), %esp # imm = 0x735F6465
     9e4: 69 7a 65 00 54 54 59         	imull	$1498698752, 101(%edx), %edi # imm = 0x59545400
     9eb: 5f                           	popl	%edi
     9ec: 42                           	incl	%edx
     9ed: 4c                           	decl	%esp
     9ee: 55                           	pushl	%ebp
     9ef: 45                           	incl	%ebp
     9f0: 5f                           	popl	%edi
     9f1: 47                           	incl	%edi
     9f2: 52                           	pushl	%edx
     9f3: 45                           	incl	%ebp
     9f4: 45                           	incl	%ebp
     9f5: 4e                           	decl	%esi
     9f6: 00 54 54 59                  	addb	%dl, 89(%esp,%edx,2)
     9fa: 5f                           	popl	%edi
     9fb: 42                           	incl	%edx
     9fc: 4c                           	decl	%esp
     9fd: 55                           	pushl	%ebp
     9fe: 45                           	incl	%ebp
     9ff: 00 62 6c                     	addb	%ah, 108(%edx)
     a02: 6f                           	outsl	(%esi), %dx
     a03: 63 6b 5f                     	arpl	%bp, 95(%ebx)
     a06: 73 69                        	jae	0xa71 <.debug_str+0xa71>
     a08: 7a 65                        	jp	0xa6f <.debug_str+0xa6f>
     a0a: 00 48 45                     	addb	%cl, 69(%eax)
     a0d: 41                           	incl	%ecx
     a0e: 50                           	pushl	%eax
     a0f: 5f                           	popl	%edi
     a10: 42                           	incl	%edx
     a11: 4c                           	decl	%esp
     a12: 4f                           	decl	%edi
     a13: 43                           	incl	%ebx
     a14: 4b                           	decl	%ebx
     a15: 5f                           	popl	%edi
     a16: 54                           	pushl	%esp
     a17: 41                           	incl	%ecx
     a18: 42                           	incl	%edx
     a19: 4c                           	decl	%esp
     a1a: 45                           	incl	%ebp
     a1b: 5f                           	popl	%edi
     a1c: 45                           	incl	%ebp
     a1d: 4e                           	decl	%esi
     a1e: 54                           	pushl	%esp
     a1f: 52                           	pushl	%edx
     a20: 59                           	popl	%ecx
     a21: 00 73 68                     	addb	%dh, 104(%ebx)
     a24: 6f                           	outsl	(%esi), %dx
     a25: 72 74                        	jb	0xa9b <.debug_str+0xa9b>
     a27: 20 75 6e                     	andb	%dh, 110(%ebp)
     a2a: 73 69                        	jae	0xa95 <.debug_str+0xa95>
     a2c: 67 6e                        	outsb	(%si), %dx
     a2e: 65 64 20 69 6e               	andb	%ch, %fs:110(%ecx)
     a33: 74 00                        	je	0xa35 <.debug_str+0xa35>
     a35: 65 6e                        	outsb	%gs:(%esi), %dx
     a37: 74 72                        	je	0xaab <.debug_str+0xaab>
     a39: 79 00                        	jns	0xa3b <.debug_str+0xa3b>
     a3b: 68 65 61 70 5f               	pushl	$1601200485             # imm = 0x5F706165
     a40: 67 65 74 5f                  	je	0xaa3 <.debug_str+0xaa3>
     a44: 73 74                        	jae	0xaba <.debug_str+0xaba>
     a46: 61                           	popal
     a47: 72 74                        	jb	0xabd <.debug_str+0xabd>
     a49: 5f                           	popl	%edi
     a4a: 62 6c 6f 63                  	bound	%ebp, 99(%edi,%ebp,2)
     a4e: 6b 00 68                     	imull	$104, (%eax), %eax
     a51: 65 61                        	popal
     a53: 70 5f                        	jo	0xab4 <.debug_str+0xab4>
     a55: 66 72 65                     	jb	0xabd <.debug_str+0xabd>
     a58: 65 00 68 65                  	addb	%ch, %gs:101(%eax)
     a5c: 61                           	popal
     a5d: 70 5f                        	jo	0xabe <.debug_str+0xabe>
     a5f: 67 65 74 5f                  	je	0xac2 <.debug_str+0xac2>
     a63: 65 6e                        	outsb	%gs:(%esi), %dx
     a65: 74 72                        	je	0xad9 <.debug_str+0xad9>
     a67: 79 5f                        	jns	0xac8 <.debug_str+0xac8>
     a69: 74 79                        	je	0xae4 <.debug_str+0xae4>
     a6b: 70 65                        	jo	0xad2 <.debug_str+0xad2>
     a6d: 00 68 65                     	addb	%ch, 101(%eax)
     a70: 61                           	popal
     a71: 70 5f                        	jo	0xad2 <.debug_str+0xad2>
     a73: 74 61                        	je	0xad6 <.debug_str+0xad6>
     a75: 62 6c 65 00                  	bound	%ebp, (%ebp,%eiz,2)
     a79: 75 6e                        	jne	0xae9 <.debug_str+0xae9>
     a7b: 73 69                        	jae	0xae6 <.debug_str+0xae6>
     a7d: 67 6e                        	outsb	(%si), %dx
     a7f: 65 64 20 63 68               	andb	%ah, %fs:104(%ebx)
     a84: 61                           	popal
     a85: 72 00                        	jb	0xa87 <.debug_str+0xa87>
     a87: 73 74                        	jae	0xafd <.debug_str+0xafd>
     a89: 61                           	popal
     a8a: 72 74                        	jb	0xb00 <.debug_str+0xb00>
     a8c: 00 75 69                     	addb	%dh, 105(%ebp)
     a8f: 6e                           	outsb	(%esi), %dx
     a90: 74 38                        	je	0xaca <.debug_str+0xaca>
     a92: 00 74 6f 74                  	addb	%dh, 116(%edi,%ebp,2)
     a96: 61                           	popal
     a97: 6c                           	insb	%dx, %es:(%edi)
     a98: 5f                           	popl	%edi
     a99: 62 6c 6f 63                  	bound	%ebp, 99(%edi,%ebp,2)
     a9d: 6b 73 00 74                  	imull	$116, (%ebx), %esi
     aa1: 61                           	popal
     aa2: 62 6c 65 00                  	bound	%ebp, (%ebp,%eiz,2)
     aa6: 63 6f 6e                     	arpl	%bp, 110(%edi)
     aa9: 74 69                        	je	0xb14 <.debug_str+0xb14>
     aab: 6e                           	outsb	(%esi), %dx
     aac: 75 6f                        	jne	0xb1d <.debug_str+0xb1d>
     aae: 75 73                        	jne	0xb23 <.debug_str+0xb23>
     ab0: 5f                           	popl	%edi
     ab1: 62 6c 6f 63                  	bound	%ebp, 99(%edi,%ebp,2)
     ab5: 6b 73 00 73                  	imull	$115, (%ebx), %esi
     ab9: 72 63                        	jb	0xb1e <.debug_str+0xb1e>
     abb: 2f                           	das
     abc: 6b 65 72 6e                  	imull	$110, 114(%ebp), %esp
     ac0: 65 6c                        	insb	%dx, %es:(%edi)
     ac2: 2f                           	das
     ac3: 6d                           	insl	%dx, %es:(%edi)
     ac4: 65 6d                        	insl	%dx, %es:(%edi)
     ac6: 6f                           	outsl	(%esi), %dx
     ac7: 72 79                        	jb	0xb42 <.debug_str+0xb42>
     ac9: 2f                           	das
     aca: 68 65 61 70 2e               	pushl	$779116901              # imm = 0x2E706165
     acf: 63 00                        	arpl	%ax, (%eax)
     ad1: 68 65 61 70 5f               	pushl	$1601200485             # imm = 0x5F706165
     ad6: 76 61                        	jbe	0xb39 <.debug_str+0xb39>
     ad8: 6c                           	insb	%dx, %es:(%edi)
     ad9: 69 64 61 74 65 5f 61 6c      	imull	$1818320741, 116(%ecx,%eiz,2), %esp # imm = 0x6C615F65
     ae1: 69 67 6e 6d 65 6e 74         	imull	$1953391981, 110(%edi), %esp # imm = 0x746E656D
     ae8: 00 73 74                     	addb	%dh, 116(%ebx)
     aeb: 61                           	popal
     aec: 72 74                        	jb	0xb62 <.debug_str+0xb62>
     aee: 5f                           	popl	%edi
     aef: 62 6c 6f 63                  	bound	%ebp, 99(%edi,%ebp,2)
     af3: 6b 00 74                     	imull	$116, (%eax), %eax
     af6: 61                           	popal
     af7: 62 6c 65 5f                  	bound	%ebp, 95(%ebp,%eiz,2)
     afb: 73 69                        	jae	0xb66 <.debug_str+0xb66>
     afd: 7a 65                        	jp	0xb64 <.debug_str+0xb64>
     aff: 00 44 65 66                  	addb	%al, 102(%ebp,%eiz,2)
     b03: 61                           	popal
     b04: 75 6c                        	jne	0xb72 <.debug_str+0xb72>
     b06: 74 54                        	je	0xb5c <.debug_str+0xb5c>
     b08: 54                           	pushl	%esp
     b09: 59                           	popl	%ecx
     b0a: 00 68 65                     	addb	%ch, 101(%eax)
     b0d: 61                           	popal
     b0e: 70 5f                        	jo	0xb6f <.debug_str+0xb6f>
     b10: 61                           	popal
     b11: 6c                           	insb	%dx, %es:(%edi)
     b12: 69 67 6e 5f 76 61 6c         	imull	$1818326623, 110(%edi), %esp # imm = 0x6C61765F
     b19: 75 65                        	jne	0xb80 <.debug_str+0xb80>
     b1b: 5f                           	popl	%edi
     b1c: 74 6f                        	je	0xb8d <.debug_str+0xb8d>
     b1e: 5f                           	popl	%edi
     b1f: 75 70                        	jne	0xb91 <.debug_str+0xb91>
     b21: 70 65                        	jo	0xb88 <.debug_str+0xb88>
     b23: 72 00                        	jb	0xb25 <.debug_str+0xb25>
     b25: 47                           	incl	%edi
     b26: 4e                           	decl	%esi
     b27: 55                           	pushl	%ebp
     b28: 20 43 39                     	andb	%al, 57(%ebx)
     b2b: 39 20                        	cmpl	%esp, (%eax)
     b2d: 31 30                        	xorl	%esi, (%eax)
     b2f: 2e 33 2e                     	xorl	%cs:(%esi), %ebp
     b32: 30 20                        	xorb	%ah, (%eax)
     b34: 2d 6d 74 75 6e               	subl	$1853191277, %eax       # imm = 0x6E75746D
     b39: 65 3d 67 65 6e 65            	cmpl	$1701733735, %eax       # imm = 0x656E6567
     b3f: 72 69                        	jb	0xbaa <.debug_str+0xbaa>
     b41: 63 20                        	arpl	%sp, (%eax)
     b43: 2d 6d 61 72 63               	subl	$1668440429, %eax       # imm = 0x6372616D
     b48: 68 3d 69 36 38               	pushl	$943089981              # imm = 0x3836693D
     b4d: 36 20 2d 67 20 2d 4f         	andb	%ch, %ss:1328357479
     b54: 30 20                        	xorb	%ah, (%eax)
     b56: 2d 73 74 64 3d               	subl	$1029993587, %eax       # imm = 0x3D647473
     b5b: 67 6e                        	outsb	(%si), %dx
     b5d: 75 39                        	jne	0xb98 <.debug_str+0xb98>
     b5f: 39 20                        	cmpl	%esp, (%eax)
     b61: 2d 66 66 72 65               	subl	$1701996134, %eax       # imm = 0x65726666
     b66: 65 73 74                     	jae	0xbdd <.debug_str+0xbdd>
     b69: 61                           	popal
     b6a: 6e                           	outsb	(%esi), %dx
     b6b: 64 69 6e 67 20 2d 66 61      	imull	$1634086176, %fs:103(%esi), %ebp # imm = 0x61662D20
     b73: 6c                           	insb	%dx, %es:(%edi)
     b74: 69 67 6e 2d 6a 75 6d         	imull	$1836411437, 110(%edi), %esp # imm = 0x6D756A2D
     b7b: 70 73                        	jo	0xbf0 <.debug_str+0xbf0>
     b7d: 20 2d 66 61 6c 69            	andb	%ch, 1768710502
     b83: 67 6e                        	outsb	(%si), %dx
     b85: 2d 66 75 6e 63               	subl	$1668183398, %eax       # imm = 0x636E7566
     b8a: 74 69                        	je	0xbf5 <.debug_str+0xbf5>
     b8c: 6f                           	outsl	(%esi), %dx
     b8d: 6e                           	outsb	(%esi), %dx
     b8e: 73 20                        	jae	0xbb0 <.debug_str+0xbb0>
     b90: 2d 66 61 6c 69               	subl	$1768710502, %eax       # imm = 0x696C6166
     b95: 67 6e                        	outsb	(%si), %dx
     b97: 2d 6c 61 62 65               	subl	$1700946284, %eax       # imm = 0x6562616C
     b9c: 6c                           	insb	%dx, %es:(%edi)
     b9d: 73 20                        	jae	0xbbf <.debug_str+0xbbf>
     b9f: 2d 66 61 6c 69               	subl	$1768710502, %eax       # imm = 0x696C6166
     ba4: 67 6e                        	outsb	(%si), %dx
     ba6: 2d 6c 6f 6f 70               	subl	$1886351212, %eax       # imm = 0x706F6F6C
     bab: 73 20                        	jae	0xbcd <.debug_str+0xbcd>
     bad: 2d 66 6f 6d 69               	subl	$1768779622, %eax       # imm = 0x696D6F66
     bb2: 74 2d                        	je	0xbe1 <.debug_str+0xbe1>
     bb4: 66 72 61                     	jb	0xc18 <.debug_str+0xc18>
     bb7: 6d                           	insl	%dx, %es:(%edi)
     bb8: 65 2d 70 6f 69 6e            	subl	$1852403568, %eax       # imm = 0x6E696F70
     bbe: 74 65                        	je	0xc25 <.debug_str+0xc25>
     bc0: 72 20                        	jb	0xbe2 <.debug_str+0xbe2>
     bc2: 2d 66 69 6e 6c               	subl	$1819175270, %eax       # imm = 0x6C6E6966
     bc7: 69 6e 65 2d 66 75 6e         	imull	$1853187629, 101(%esi), %ebp # imm = 0x6E75662D
     bce: 63 74 69 6f                  	arpl	%si, 111(%ecx,%ebp,2)
     bd2: 6e                           	outsb	(%esi), %dx
     bd3: 73 20                        	jae	0xbf5 <.debug_str+0xbf5>
     bd5: 2d 66 6e 6f 2d               	subl	$762277478, %eax        # imm = 0x2D6F6E66
     bda: 62 75 69                     	bound	%esi, 105(%ebp)
     bdd: 6c                           	insb	%dx, %es:(%edi)
     bde: 74 69                        	je	0xc49 <.debug_str+0xc49>
     be0: 6e                           	outsb	(%esi), %dx
     be1: 00 75 69                     	addb	%dh, 105(%ebp)
     be4: 6e                           	outsb	(%esi), %dx
     be5: 74 33                        	je	0xc1a <.debug_str+0xc1a>
     be7: 32 00                        	xorb	(%eax), %al
     be9: 75 6e                        	jne	0xc59 <.debug_str+0xc59>
     beb: 73 69                        	jae	0xc56 <.debug_str+0xc56>
     bed: 67 6e                        	outsb	(%si), %dx
     bef: 65 64 20 69 6e               	andb	%ch, %fs:110(%ecx)
     bf4: 74 00                        	je	0xbf6 <.debug_str+0xbf6>
     bf6: 73 74                        	jae	0xc6c <.debug_str+0xc6c>
     bf8: 61                           	popal
     bf9: 72 74                        	jb	0xc6f <.debug_str+0xc6f>
     bfb: 5f                           	popl	%edi
     bfc: 61                           	popal
     bfd: 64 64 72 65                  	jb	0xc66 <.debug_str+0xc66>
     c01: 73 73                        	jae	0xc76 <.debug_str+0xc76>
     c03: 00 6c 6f 6e                  	addb	%ch, 110(%edi,%ebp,2)
     c07: 67 20 6c 6f                  	andb	%ch, 111(%si)
     c0b: 6e                           	outsb	(%esi), %dx
     c0c: 67 20 75 6e                  	andb	%dh, 110(%di)
     c10: 73 69                        	jae	0xc7b <.debug_str+0xc7b>
     c12: 67 6e                        	outsb	(%si), %dx
     c14: 65 64 20 69 6e               	andb	%ch, %fs:110(%ecx)
     c19: 74 00                        	je	0xc1b <.debug_str+0xc1b>
     c1b: 68 65 61 70 00               	pushl	$7364965                # imm = 0x706165
     c20: 74 65                        	je	0xc87 <.debug_str+0xc87>
     c22: 78 74                        	js	0xc98 <.debug_str+0xc98>
     c24: 5f                           	popl	%edi
     c25: 63 6f 6c                     	arpl	%bp, 108(%edi)
     c28: 6f                           	outsl	(%esi), %dx
     c29: 72 00                        	jb	0xc2b <.debug_str+0xc2b>
     c2b: 74 65                        	je	0xc92 <.debug_str+0xc92>
     c2d: 72 6d                        	jb	0xc9c <.debug_str+0xc9c>
     c2f: 69 6e 61 6c 00 62 6c         	imull	$1818361964, 97(%esi), %ebp # imm = 0x6C62006C
     c36: 6f                           	outsl	(%esi), %dx
     c37: 63 6b 73                     	arpl	%bp, 115(%ebx)
     c3a: 00 54 54 59                  	addb	%dl, 89(%esp,%edx,2)
     c3e: 5f                           	popl	%edi
     c3f: 43                           	incl	%ebx
     c40: 4c                           	decl	%esp
     c41: 45                           	incl	%ebp
     c42: 41                           	incl	%ecx
     c43: 52                           	pushl	%edx
     c44: 00 2f                        	addb	%ch, (%edi)
     c46: 55                           	pushl	%ebp
     c47: 73 65                        	jae	0xcae <.debug_str+0xcae>
     c49: 72 73                        	jb	0xcbe <.debug_str+0xcbe>
     c4b: 2f                           	das
     c4c: 6d                           	insl	%dx, %es:(%edi)
     c4d: 61                           	popal
     c4e: 72 74                        	jb	0xcc4 <.debug_str+0xcc4>
     c50: 69 6e 73 69 6d 61 6e         	imull	$1851878761, 115(%esi), %ebp # imm = 0x6E616D69
     c57: 67 6f                        	outsl	(%si), %dx
     c59: 2f                           	das
     c5a: 70 72                        	jo	0xcce <.debug_str+0xcce>
     c5c: 6f                           	outsl	(%esi), %dx
     c5d: 6a 65                        	pushl	$101
     c5f: 63 74 73 2f                  	arpl	%si, 47(%ebx,%esi,2)
     c63: 6d                           	insl	%dx, %es:(%edi)
     c64: 6f                           	outsl	(%esi), %dx
     c65: 72 61                        	jb	0xcc8 <.debug_str+0xcc8>
     c67: 62 61 72                     	bound	%esp, 114(%ecx)
     c6a: 61                           	popal
     c6b: 62 61 4f                     	bound	%esp, 79(%ecx)
     c6e: 53                           	pushl	%ebx
     c6f: 00 68 65                     	addb	%ch, 101(%eax)
     c72: 61                           	popal
     c73: 70 5f                        	jo	0xcd4 <.debug_str+0xcd4>
     c75: 63 72 65                     	arpl	%si, 101(%edx)
     c78: 61                           	popal
     c79: 74 65                        	je	0xce0 <.debug_str+0xce0>
     c7b: 00 74 65 72                  	addb	%dh, 114(%ebp,%eiz,2)
     c7f: 6d                           	insl	%dx, %es:(%edi)
     c80: 69 6e 61 6c 5f 63 6f         	imull	$1868783468, 97(%esi), %ebp # imm = 0x6F635F6C
     c87: 6c                           	insb	%dx, %es:(%edi)
     c88: 00 68 65                     	addb	%ch, 101(%eax)
     c8b: 61                           	popal
     c8c: 70 5f                        	jo	0xced <.debug_str+0xced>
     c8e: 6d                           	insl	%dx, %es:(%edi)
     c8f: 61                           	popal
     c90: 6c                           	insb	%dx, %es:(%edi)
     c91: 6c                           	insb	%dx, %es:(%edi)
     c92: 6f                           	outsl	(%esi), %dx
     c93: 63 00                        	arpl	%ax, (%eax)
     c95: 74 65                        	je	0xcfc <.debug_str+0xcfc>
     c97: 72 6d                        	jb	0xd06 <.debug_str+0xd06>
     c99: 69 6e 61 6c 5f 72 6f         	imull	$1869766508, 97(%esi), %ebp # imm = 0x6F725F6C
     ca0: 77 00                        	ja	0xca2 <.debug_str+0xca2>
     ca2: 74 6f                        	je	0xd13 <.debug_str+0xd13>
     ca4: 74 61                        	je	0xd07 <.debug_str+0xd07>
     ca6: 6c                           	insb	%dx, %es:(%edi)
     ca7: 5f                           	popl	%edi
     ca8: 65 6e                        	outsb	%gs:(%esi), %dx
     caa: 74 72                        	je	0xd1e <.debug_str+0xd1e>
     cac: 69 65 73 00 65 6e 74         	imull	$1953391872, 115(%ebp), %esp # imm = 0x746E6500
     cb3: 72 69                        	jb	0xd1e <.debug_str+0xd1e>
     cb5: 65 73 00                     	jae	0xcb8 <.debug_str+0xcb8>
     cb8: 73 69                        	jae	0xd23 <.debug_str+0xd23>
     cba: 7a 65                        	jp	0xd21 <.debug_str+0xd21>
     cbc: 00 68 65                     	addb	%ch, 101(%eax)
     cbf: 61                           	popal
     cc0: 70 5f                        	jo	0xd21 <.debug_str+0xd21>
     cc2: 76 61                        	jbe	0xd25 <.debug_str+0xd25>
     cc4: 6c                           	insb	%dx, %es:(%edi)
     cc5: 69 64 61 74 65 5f 68 65      	imull	$1701338981, 116(%ecx,%eiz,2), %esp # imm = 0x65685F65
     ccd: 61                           	popal
     cce: 70 5f                        	jo	0xd2f <.debug_str+0xd2f>
     cd0: 74 61                        	je	0xd33 <.debug_str+0xd33>
     cd2: 62 6c 65 00                  	bound	%ebp, (%ebp,%eiz,2)
     cd6: 2f                           	das
     cd7: 55                           	pushl	%ebp
     cd8: 73 65                        	jae	0xd3f <.debug_str+0xd3f>
     cda: 72 73                        	jb	0xd4f <.debug_str+0xd4f>
     cdc: 2f                           	das
     cdd: 6d                           	insl	%dx, %es:(%edi)
     cde: 61                           	popal
     cdf: 72 74                        	jb	0xd55 <.debug_str+0xd55>
     ce1: 69 6e 73 69 6d 61 6e         	imull	$1851878761, 115(%esi), %ebp # imm = 0x6E616D69
     ce8: 67 6f                        	outsl	(%si), %dx
     cea: 2f                           	das
     ceb: 70 72                        	jo	0xd5f <.debug_str+0xd5f>
     ced: 6f                           	outsl	(%esi), %dx
     cee: 6a 65                        	pushl	$101
     cf0: 63 74 73 2f                  	arpl	%si, 47(%ebx,%esi,2)
     cf4: 6d                           	insl	%dx, %es:(%edi)
     cf5: 6f                           	outsl	(%esi), %dx
     cf6: 72 61                        	jb	0xd59 <.debug_str+0xd59>
     cf8: 62 61 72                     	bound	%esp, 114(%ecx)
     cfb: 61                           	popal
     cfc: 62 61 4f                     	bound	%esp, 79(%ecx)
     cff: 53                           	pushl	%ebx
     d00: 00 73 74                     	addb	%dh, 116(%ebx)
     d03: 61                           	popal
     d04: 72 74                        	jb	0xd7a <.debug_str+0xd7a>
     d06: 5f                           	popl	%edi
     d07: 61                           	popal
     d08: 64 64 72 65                  	jb	0xd71 <.debug_str+0xd71>
     d0c: 73 73                        	jae	0xd81 <.debug_str+0xd81>
     d0e: 00 75 6e                     	addb	%dh, 110(%ebp)
     d11: 73 69                        	jae	0xd7c <.debug_str+0xd7c>
     d13: 67 6e                        	outsb	(%si), %dx
     d15: 65 64 20 69 6e               	andb	%ch, %fs:110(%ecx)
     d1a: 74 00                        	je	0xd1c <.debug_str+0xd1c>
     d1c: 65 6e                        	outsb	%gs:(%esi), %dx
     d1e: 74 72                        	je	0xd92 <.debug_str+0xd92>
     d20: 69 65 73 00 73 69 7a         	imull	$2053731072, 115(%ebp), %esp # imm = 0x7A697300
     d27: 65 5f                        	popl	%edi
     d29: 74 00                        	je	0xd2b <.debug_str+0xd2b>
     d2b: 54                           	pushl	%esp
     d2c: 54                           	pushl	%esp
     d2d: 59                           	popl	%ecx
     d2e: 5f                           	popl	%edi
     d2f: 47                           	incl	%edi
     d30: 52                           	pushl	%edx
     d31: 45                           	incl	%ebp
     d32: 45                           	incl	%ebp
     d33: 4e                           	decl	%esi
     d34: 00 75 69                     	addb	%dh, 105(%ebp)
     d37: 6e                           	outsb	(%esi), %dx
     d38: 74 38                        	je	0xd72 <.debug_str+0xd72>
     d3a: 00 73 72                     	addb	%dh, 114(%ebx)
     d3d: 63 2f                        	arpl	%bp, (%edi)
     d3f: 6b 65 72 6e                  	imull	$110, 114(%ebp), %esp
     d43: 65 6c                        	insb	%dx, %es:(%edi)
     d45: 2f                           	das
     d46: 6d                           	insl	%dx, %es:(%edi)
     d47: 65 6d                        	insl	%dx, %es:(%edi)
     d49: 6f                           	outsl	(%esi), %dx
     d4a: 72 79                        	jb	0xdc5 <.debug_str+0xdc5>
     d4c: 2f                           	das
     d4d: 6b 68 65 61                  	imull	$97, 101(%eax), %ebp
     d51: 70 2e                        	jo	0xd81 <.debug_str+0xd81>
     d53: 63 00                        	arpl	%ax, (%eax)
     d55: 6c                           	insb	%dx, %es:(%edi)
     d56: 6f                           	outsl	(%esi), %dx
     d57: 6e                           	outsb	(%esi), %dx
     d58: 67 20 6c 6f                  	andb	%ch, 111(%si)
     d5c: 6e                           	outsb	(%esi), %dx
     d5d: 67 20 75 6e                  	andb	%dh, 110(%di)
     d61: 73 69                        	jae	0xdcc <.debug_str+0xdcc>
     d63: 67 6e                        	outsb	(%si), %dx
     d65: 65 64 20 69 6e               	andb	%ch, %fs:110(%ecx)
     d6a: 74 00                        	je	0xd6c <.debug_str+0xd6c>
     d6c: 54                           	pushl	%esp
     d6d: 54                           	pushl	%esp
     d6e: 59                           	popl	%ecx
     d6f: 5f                           	popl	%edi
     d70: 42                           	incl	%edx
     d71: 4c                           	decl	%esp
     d72: 55                           	pushl	%ebp
     d73: 45                           	incl	%ebp
     d74: 00 68 65                     	addb	%ch, 101(%eax)
     d77: 61                           	popal
     d78: 70 00                        	jo	0xd7a <.debug_str+0xd7a>
     d7a: 75 6e                        	jne	0xdea <.debug_str+0xdea>
     d7c: 73 69                        	jae	0xde7 <.debug_str+0xde7>
     d7e: 67 6e                        	outsb	(%si), %dx
     d80: 65 64 20 63 68               	andb	%ah, %fs:104(%ebx)
     d85: 61                           	popal
     d86: 72 00                        	jb	0xd88 <.debug_str+0xd88>
     d88: 54                           	pushl	%esp
     d89: 54                           	pushl	%esp
     d8a: 59                           	popl	%ecx
     d8b: 5f                           	popl	%edi
     d8c: 42                           	incl	%edx
     d8d: 4c                           	decl	%esp
     d8e: 55                           	pushl	%ebp
     d8f: 45                           	incl	%ebp
     d90: 5f                           	popl	%edi
     d91: 47                           	incl	%edi
     d92: 52                           	pushl	%edx
     d93: 45                           	incl	%ebp
     d94: 45                           	incl	%ebp
     d95: 4e                           	decl	%esi
     d96: 00 44 65 66                  	addb	%al, 102(%ebp,%eiz,2)
     d9a: 61                           	popal
     d9b: 75 6c                        	jne	0xe09 <.debug_str+0xe09>
     d9d: 74 54                        	je	0xdf3 <.debug_str+0xdf3>
     d9f: 54                           	pushl	%esp
     da0: 59                           	popl	%ecx
     da1: 00 68 65                     	addb	%ch, 101(%eax)
     da4: 61                           	popal
     da5: 70 5f                        	jo	0xe06 <.debug_str+0xe06>
     da7: 74 61                        	je	0xe0a <.debug_str+0xe0a>
     da9: 62 6c 65 00                  	bound	%ebp, (%ebp,%eiz,2)
     dad: 74 74                        	je	0xe23 <.debug_str+0xe23>
     daf: 79 5f                        	jns	0xe10 <.debug_str+0xe10>
     db1: 63 6f 6c                     	arpl	%bp, 108(%edi)
     db4: 6f                           	outsl	(%esi), %dx
     db5: 72 00                        	jb	0xdb7 <.debug_str+0xdb7>
     db7: 6b 65 72 6e                  	imull	$110, 114(%ebp), %esp
     dbb: 65 6c                        	insb	%dx, %es:(%edi)
     dbd: 5f                           	popl	%edi
     dbe: 68 65 61 70 5f               	pushl	$1601200485             # imm = 0x5F706165
     dc3: 74 61                        	je	0xe26 <.debug_str+0xe26>
     dc5: 62 6c 65 00                  	bound	%ebp, (%ebp,%eiz,2)
     dc9: 74 65                        	je	0xe30 <.debug_str+0xe30>
     dcb: 72 6d                        	jb	0xe3a <.debug_str+0xe3a>
     dcd: 69 6e 61 6c 5f 72 6f         	imull	$1869766508, 97(%esi), %ebp # imm = 0x6F725F6C
     dd4: 77 00                        	ja	0xdd6 <.debug_str+0xdd6>
     dd6: 54                           	pushl	%esp
     dd7: 54                           	pushl	%esp
     dd8: 59                           	popl	%ecx
     dd9: 5f                           	popl	%edi
     dda: 57                           	pushl	%edi
     ddb: 48                           	decl	%eax
     ddc: 49                           	decl	%ecx
     ddd: 54                           	pushl	%esp
     dde: 45                           	incl	%ebp
     ddf: 00 74 65 72                  	addb	%dh, 114(%ebp,%eiz,2)
     de3: 6d                           	insl	%dx, %es:(%edi)
     de4: 69 6e 61 6c 00 54 54         	imull	$1414791276, 97(%esi), %ebp # imm = 0x5454006C
     deb: 59                           	popl	%ecx
     dec: 5f                           	popl	%edi
     ded: 43                           	incl	%ebx
     dee: 4c                           	decl	%esp
     def: 45                           	incl	%ebp
     df0: 41                           	incl	%ecx
     df1: 52                           	pushl	%edx
     df2: 00 73 68                     	addb	%dh, 104(%ebx)
     df5: 6f                           	outsl	(%esi), %dx
     df6: 72 74                        	jb	0xe6c <.debug_str+0xe6c>
     df8: 20 75 6e                     	andb	%dh, 110(%ebp)
     dfb: 73 69                        	jae	0xe66 <.debug_str+0xe66>
     dfd: 67 6e                        	outsb	(%si), %dx
     dff: 65 64 20 69 6e               	andb	%ch, %fs:110(%ecx)
     e04: 74 00                        	je	0xe06 <.debug_str+0xe06>
     e06: 74 65                        	je	0xe6d <.debug_str+0xe6d>
     e08: 72 6d                        	jb	0xe77 <.debug_str+0xe77>
     e0a: 69 6e 61 6c 5f 63 6f         	imull	$1868783468, 97(%esi), %ebp # imm = 0x6F635F6C
     e11: 6c                           	insb	%dx, %es:(%edi)
     e12: 00 74 65 78                  	addb	%dh, 120(%ebp,%eiz,2)
     e16: 74 5f                        	je	0xe77 <.debug_str+0xe77>
     e18: 63 6f 6c                     	arpl	%bp, 108(%edi)
     e1b: 6f                           	outsl	(%esi), %dx
     e1c: 72 00                        	jb	0xe1e <.debug_str+0xe1e>
     e1e: 6b 68 65 61                  	imull	$97, 101(%eax), %ebp
     e22: 70 5f                        	jo	0xe83 <.debug_str+0xe83>
     e24: 69 6e 69 74 00 74 61         	imull	$1634992244, 105(%esi), %ebp # imm = 0x61740074
     e2b: 62 6c 65 00                  	bound	%ebp, (%ebp,%eiz,2)
     e2f: 47                           	incl	%edi
     e30: 4e                           	decl	%esi
     e31: 55                           	pushl	%ebp
     e32: 20 43 39                     	andb	%al, 57(%ebx)
     e35: 39 20                        	cmpl	%esp, (%eax)
     e37: 31 30                        	xorl	%esi, (%eax)
     e39: 2e 33 2e                     	xorl	%cs:(%esi), %ebp
     e3c: 30 20                        	xorb	%ah, (%eax)
     e3e: 2d 6d 74 75 6e               	subl	$1853191277, %eax       # imm = 0x6E75746D
     e43: 65 3d 67 65 6e 65            	cmpl	$1701733735, %eax       # imm = 0x656E6567
     e49: 72 69                        	jb	0xeb4 <.debug_str+0xeb4>
     e4b: 63 20                        	arpl	%sp, (%eax)
     e4d: 2d 6d 61 72 63               	subl	$1668440429, %eax       # imm = 0x6372616D
     e52: 68 3d 69 36 38               	pushl	$943089981              # imm = 0x3836693D
     e57: 36 20 2d 67 20 2d 4f         	andb	%ch, %ss:1328357479
     e5e: 30 20                        	xorb	%ah, (%eax)
     e60: 2d 73 74 64 3d               	subl	$1029993587, %eax       # imm = 0x3D647473
     e65: 67 6e                        	outsb	(%si), %dx
     e67: 75 39                        	jne	0xea2 <.debug_str+0xea2>
     e69: 39 20                        	cmpl	%esp, (%eax)
     e6b: 2d 66 66 72 65               	subl	$1701996134, %eax       # imm = 0x65726666
     e70: 65 73 74                     	jae	0xee7 <.debug_str+0xee7>
     e73: 61                           	popal
     e74: 6e                           	outsb	(%esi), %dx
     e75: 64 69 6e 67 20 2d 66 61      	imull	$1634086176, %fs:103(%esi), %ebp # imm = 0x61662D20
     e7d: 6c                           	insb	%dx, %es:(%edi)
     e7e: 69 67 6e 2d 6a 75 6d         	imull	$1836411437, 110(%edi), %esp # imm = 0x6D756A2D
     e85: 70 73                        	jo	0xefa <.debug_str+0xefa>
     e87: 20 2d 66 61 6c 69            	andb	%ch, 1768710502
     e8d: 67 6e                        	outsb	(%si), %dx
     e8f: 2d 66 75 6e 63               	subl	$1668183398, %eax       # imm = 0x636E7566
     e94: 74 69                        	je	0xeff <.debug_str+0xeff>
     e96: 6f                           	outsl	(%esi), %dx
     e97: 6e                           	outsb	(%esi), %dx
     e98: 73 20                        	jae	0xeba <.debug_str+0xeba>
     e9a: 2d 66 61 6c 69               	subl	$1768710502, %eax       # imm = 0x696C6166
     e9f: 67 6e                        	outsb	(%si), %dx
     ea1: 2d 6c 61 62 65               	subl	$1700946284, %eax       # imm = 0x6562616C
     ea6: 6c                           	insb	%dx, %es:(%edi)
     ea7: 73 20                        	jae	0xec9 <.debug_str+0xec9>
     ea9: 2d 66 61 6c 69               	subl	$1768710502, %eax       # imm = 0x696C6166
     eae: 67 6e                        	outsb	(%si), %dx
     eb0: 2d 6c 6f 6f 70               	subl	$1886351212, %eax       # imm = 0x706F6F6C
     eb5: 73 20                        	jae	0xed7 <.debug_str+0xed7>
     eb7: 2d 66 6f 6d 69               	subl	$1768779622, %eax       # imm = 0x696D6F66
     ebc: 74 2d                        	je	0xeeb <.debug_str+0xeeb>
     ebe: 66 72 61                     	jb	0xf22 <.debug_str+0xf22>
     ec1: 6d                           	insl	%dx, %es:(%edi)
     ec2: 65 2d 70 6f 69 6e            	subl	$1852403568, %eax       # imm = 0x6E696F70
     ec8: 74 65                        	je	0xf2f <.debug_str+0xf2f>
     eca: 72 20                        	jb	0xeec <.debug_str+0xeec>
     ecc: 2d 66 69 6e 6c               	subl	$1819175270, %eax       # imm = 0x6C6E6966
     ed1: 69 6e 65 2d 66 75 6e         	imull	$1853187629, 101(%esi), %ebp # imm = 0x6E75662D
     ed8: 63 74 69 6f                  	arpl	%si, 111(%ecx,%ebp,2)
     edc: 6e                           	outsb	(%esi), %dx
     edd: 73 20                        	jae	0xeff <.debug_str+0xeff>
     edf: 2d 66 6e 6f 2d               	subl	$762277478, %eax        # imm = 0x2D6F6E66
     ee4: 62 75 69                     	bound	%esi, 105(%ebp)
     ee7: 6c                           	insb	%dx, %es:(%edi)
     ee8: 74 69                        	je	0xf53 <.debug_str+0xf53>
     eea: 6e                           	outsb	(%esi), %dx
     eeb: 00 6b 65                     	addb	%ch, 101(%ebx)
     eee: 72 6e                        	jb	0xf5e <.debug_str+0xf5e>
     ef0: 65 6c                        	insb	%dx, %es:(%edi)
     ef2: 5f                           	popl	%edi
     ef3: 68 65 61 70 00               	pushl	$7364965                # imm = 0x706165
     ef8: 48                           	decl	%eax
     ef9: 45                           	incl	%ebp
     efa: 41                           	incl	%ecx
     efb: 50                           	pushl	%eax
     efc: 5f                           	popl	%edi
     efd: 42                           	incl	%edx
     efe: 4c                           	decl	%esp
     eff: 4f                           	decl	%edi
     f00: 43                           	incl	%ebx
     f01: 4b                           	decl	%ebx
     f02: 5f                           	popl	%edi
     f03: 54                           	pushl	%esp
     f04: 41                           	incl	%ecx
     f05: 42                           	incl	%edx
     f06: 4c                           	decl	%esp
     f07: 45                           	incl	%ebp
     f08: 5f                           	popl	%edi
     f09: 45                           	incl	%ebp
     f0a: 4e                           	decl	%esi
     f0b: 54                           	pushl	%esp
     f0c: 52                           	pushl	%edx
     f0d: 59                           	popl	%ecx
     f0e: 00 74 6f 74                  	addb	%dh, 116(%edi,%ebp,2)
     f12: 61                           	popal
     f13: 6c                           	insb	%dx, %es:(%edi)
     f14: 5f                           	popl	%edi
     f15: 65 6e                        	outsb	%gs:(%esi), %dx
     f17: 74 72                        	je	0xf8b <.debug_str+0xf8b>
     f19: 69 65 73 00 73 69 7a         	imull	$2053731072, 115(%ebp), %esp # imm = 0x7A697300
     f20: 65 00 75 6e                  	addb	%dh, %gs:110(%ebp)
     f24: 73 69                        	jae	0xf8f <.debug_str+0xf8f>
     f26: 67 6e                        	outsb	(%si), %dx
     f28: 65 64 20 69 6e               	andb	%ch, %fs:110(%ecx)
     f2d: 74 00                        	je	0xf2f <.debug_str+0xf2f>
     f2f: 73 69                        	jae	0xf9a <.debug_str+0xf9a>
     f31: 7a 65                        	jp	0xf98 <.debug_str+0xf98>
     f33: 5f                           	popl	%edi
     f34: 74 00                        	je	0xf36 <.debug_str+0xf36>
     f36: 2f                           	das
     f37: 55                           	pushl	%ebp
     f38: 73 65                        	jae	0xf9f <.debug_str+0xf9f>
     f3a: 72 73                        	jb	0xfaf <.debug_str+0xfaf>
     f3c: 2f                           	das
     f3d: 6d                           	insl	%dx, %es:(%edi)
     f3e: 61                           	popal
     f3f: 72 74                        	jb	0xfb5 <.debug_str+0xfb5>
     f41: 69 6e 73 69 6d 61 6e         	imull	$1851878761, 115(%esi), %ebp # imm = 0x6E616D69
     f48: 67 6f                        	outsl	(%si), %dx
     f4a: 2f                           	das
     f4b: 70 72                        	jo	0xfbf <.debug_str+0xfbf>
     f4d: 6f                           	outsl	(%esi), %dx
     f4e: 6a 65                        	pushl	$101
     f50: 63 74 73 2f                  	arpl	%si, 47(%ebx,%esi,2)
     f54: 6d                           	insl	%dx, %es:(%edi)
     f55: 6f                           	outsl	(%esi), %dx
     f56: 72 61                        	jb	0xfb9 <.debug_str+0xfb9>
     f58: 62 61 72                     	bound	%esp, 114(%ecx)
     f5b: 61                           	popal
     f5c: 62 61 4f                     	bound	%esp, 79(%ecx)
     f5f: 53                           	pushl	%ebx
     f60: 00 73 68                     	addb	%dh, 104(%ebx)
     f63: 6f                           	outsl	(%esi), %dx
     f64: 72 74                        	jb	0xfda <.debug_str+0xfda>
     f66: 20 75 6e                     	andb	%dh, 110(%ebp)
     f69: 73 69                        	jae	0xfd4 <.debug_str+0xfd4>
     f6b: 67 6e                        	outsb	(%si), %dx
     f6d: 65 64 20 69 6e               	andb	%ch, %fs:110(%ecx)
     f72: 74 00                        	je	0xf74 <.debug_str+0xf74>
     f74: 63 5f 70                     	arpl	%bx, 112(%edi)
     f77: 74 72                        	je	0xfeb <.debug_str+0xfeb>
     f79: 00 63 68                     	addb	%ah, 104(%ebx)
     f7c: 61                           	popal
     f7d: 72 00                        	jb	0xf7f <.debug_str+0xf7f>
     f7f: 6c                           	insb	%dx, %es:(%edi)
     f80: 6f                           	outsl	(%esi), %dx
     f81: 6e                           	outsb	(%esi), %dx
     f82: 67 20 6c 6f                  	andb	%ch, 111(%si)
     f86: 6e                           	outsb	(%esi), %dx
     f87: 67 20 75 6e                  	andb	%dh, 110(%di)
     f8b: 73 69                        	jae	0xff6 <.debug_str+0xff6>
     f8d: 67 6e                        	outsb	(%si), %dx
     f8f: 65 64 20 69 6e               	andb	%ch, %fs:110(%ecx)
     f94: 74 00                        	je	0xf96 <.debug_str+0xf96>
     f96: 47                           	incl	%edi
     f97: 4e                           	decl	%esi
     f98: 55                           	pushl	%ebp
     f99: 20 43 39                     	andb	%al, 57(%ebx)
     f9c: 39 20                        	cmpl	%esp, (%eax)
     f9e: 31 30                        	xorl	%esi, (%eax)
     fa0: 2e 33 2e                     	xorl	%cs:(%esi), %ebp
     fa3: 30 20                        	xorb	%ah, (%eax)
     fa5: 2d 6d 74 75 6e               	subl	$1853191277, %eax       # imm = 0x6E75746D
     faa: 65 3d 67 65 6e 65            	cmpl	$1701733735, %eax       # imm = 0x656E6567
     fb0: 72 69                        	jb	0x101b <.debug_str+0x101b>
     fb2: 63 20                        	arpl	%sp, (%eax)
     fb4: 2d 6d 61 72 63               	subl	$1668440429, %eax       # imm = 0x6372616D
     fb9: 68 3d 69 36 38               	pushl	$943089981              # imm = 0x3836693D
     fbe: 36 20 2d 67 20 2d 4f         	andb	%ch, %ss:1328357479
     fc5: 30 20                        	xorb	%ah, (%eax)
     fc7: 2d 73 74 64 3d               	subl	$1029993587, %eax       # imm = 0x3D647473
     fcc: 67 6e                        	outsb	(%si), %dx
     fce: 75 39                        	jne	0x1009 <.debug_str+0x1009>
     fd0: 39 20                        	cmpl	%esp, (%eax)
     fd2: 2d 66 66 72 65               	subl	$1701996134, %eax       # imm = 0x65726666
     fd7: 65 73 74                     	jae	0x104e <.debug_str+0x104e>
     fda: 61                           	popal
     fdb: 6e                           	outsb	(%esi), %dx
     fdc: 64 69 6e 67 20 2d 66 61      	imull	$1634086176, %fs:103(%esi), %ebp # imm = 0x61662D20
     fe4: 6c                           	insb	%dx, %es:(%edi)
     fe5: 69 67 6e 2d 6a 75 6d         	imull	$1836411437, 110(%edi), %esp # imm = 0x6D756A2D
     fec: 70 73                        	jo	0x1061 <.debug_str+0x1061>
     fee: 20 2d 66 61 6c 69            	andb	%ch, 1768710502
     ff4: 67 6e                        	outsb	(%si), %dx
     ff6: 2d 66 75 6e 63               	subl	$1668183398, %eax       # imm = 0x636E7566
     ffb: 74 69                        	je	0x1066 <.debug_str+0x1066>
     ffd: 6f                           	outsl	(%esi), %dx
     ffe: 6e                           	outsb	(%esi), %dx
     fff: 73 20                        	jae	0x1021 <.debug_str+0x1021>
    1001: 2d 66 61 6c 69               	subl	$1768710502, %eax       # imm = 0x696C6166
    1006: 67 6e                        	outsb	(%si), %dx
    1008: 2d 6c 61 62 65               	subl	$1700946284, %eax       # imm = 0x6562616C
    100d: 6c                           	insb	%dx, %es:(%edi)
    100e: 73 20                        	jae	0x1030 <.debug_str+0x1030>
    1010: 2d 66 61 6c 69               	subl	$1768710502, %eax       # imm = 0x696C6166
    1015: 67 6e                        	outsb	(%si), %dx
    1017: 2d 6c 6f 6f 70               	subl	$1886351212, %eax       # imm = 0x706F6F6C
    101c: 73 20                        	jae	0x103e <.debug_str+0x103e>
    101e: 2d 66 6f 6d 69               	subl	$1768779622, %eax       # imm = 0x696D6F66
    1023: 74 2d                        	je	0x1052 <.debug_str+0x1052>
    1025: 66 72 61                     	jb	0x1089 <.debug_str+0x1089>
    1028: 6d                           	insl	%dx, %es:(%edi)
    1029: 65 2d 70 6f 69 6e            	subl	$1852403568, %eax       # imm = 0x6E696F70
    102f: 74 65                        	je	0x1096 <.debug_str+0x1096>
    1031: 72 20                        	jb	0x1053 <.debug_str+0x1053>
    1033: 2d 66 69 6e 6c               	subl	$1819175270, %eax       # imm = 0x6C6E6966
    1038: 69 6e 65 2d 66 75 6e         	imull	$1853187629, 101(%esi), %ebp # imm = 0x6E75662D
    103f: 63 74 69 6f                  	arpl	%si, 111(%ecx,%ebp,2)
    1043: 6e                           	outsb	(%esi), %dx
    1044: 73 20                        	jae	0x1066 <.debug_str+0x1066>
    1046: 2d 66 6e 6f 2d               	subl	$762277478, %eax        # imm = 0x2D6F6E66
    104b: 62 75 69                     	bound	%esi, 105(%ebp)
    104e: 6c                           	insb	%dx, %es:(%edi)
    104f: 74 69                        	je	0x10ba <.debug_str+0x10ba>
    1051: 6e                           	outsb	(%esi), %dx
    1052: 00 75 6e                     	addb	%dh, 110(%ebp)
    1055: 73 69                        	jae	0x10c0 <.debug_str+0x10c0>
    1057: 67 6e                        	outsb	(%si), %dx
    1059: 65 64 20 63 68               	andb	%ah, %fs:104(%ebx)
    105e: 61                           	popal
    105f: 72 00                        	jb	0x1061 <.debug_str+0x1061>
    1061: 6d                           	insl	%dx, %es:(%edi)
    1062: 65 6d                        	insl	%dx, %es:(%edi)
    1064: 73 65                        	jae	0x10cb <.debug_str+0x10cb>
    1066: 74 00                        	je	0x1068 <.debug_str+0x1068>
    1068: 73 72                        	jae	0x10dc <.debug_str+0x10dc>
    106a: 63 2f                        	arpl	%bp, (%edi)
    106c: 6b 65 72 6e                  	imull	$110, 114(%ebp), %esp
    1070: 65 6c                        	insb	%dx, %es:(%edi)
    1072: 2f                           	das
    1073: 6d                           	insl	%dx, %es:(%edi)
    1074: 65 6d                        	insl	%dx, %es:(%edi)
    1076: 6f                           	outsl	(%esi), %dx
    1077: 72 79                        	jb	0x10f2 <.debug_str+0x10f2>
    1079: 2f                           	das
    107a: 6d                           	insl	%dx, %es:(%edi)
    107b: 65 6d                        	insl	%dx, %es:(%edi)
    107d: 6f                           	outsl	(%esi), %dx
    107e: 72 79                        	jb	0x10f9 <.debug_str+0x10f9>
    1080: 2e 63 00                     	arpl	%ax, %cs:(%eax)
    1083: 75 6e                        	jne	0x10f3 <.debug_str+0x10f3>
    1085: 73 69                        	jae	0x10f0 <.debug_str+0x10f0>
    1087: 67 6e                        	outsb	(%si), %dx
    1089: 65 64 20 69 6e               	andb	%ch, %fs:110(%ecx)
    108e: 74 00                        	je	0x1090 <.debug_str+0x1090>
    1090: 73 74                        	jae	0x1106 <.debug_str+0x1106>
    1092: 72 6c                        	jb	0x1100 <.debug_str+0x1100>
    1094: 65 6e                        	outsb	%gs:(%esi), %dx
    1096: 00 73 69                     	addb	%dh, 105(%ebx)
    1099: 7a 65                        	jp	0x1100 <.debug_str+0x1100>
    109b: 5f                           	popl	%edi
    109c: 74 00                        	je	0x109e <.debug_str+0x109e>
    109e: 2f                           	das
    109f: 55                           	pushl	%ebp
    10a0: 73 65                        	jae	0x1107 <.debug_str+0x1107>
    10a2: 72 73                        	jb	0x1117 <.debug_str+0x1117>
    10a4: 2f                           	das
    10a5: 6d                           	insl	%dx, %es:(%edi)
    10a6: 61                           	popal
    10a7: 72 74                        	jb	0x111d <.debug_str+0x111d>
    10a9: 69 6e 73 69 6d 61 6e         	imull	$1851878761, 115(%esi), %ebp # imm = 0x6E616D69
    10b0: 67 6f                        	outsl	(%si), %dx
    10b2: 2f                           	das
    10b3: 70 72                        	jo	0x1127 <.debug_str+0x1127>
    10b5: 6f                           	outsl	(%esi), %dx
    10b6: 6a 65                        	pushl	$101
    10b8: 63 74 73 2f                  	arpl	%si, 47(%ebx,%esi,2)
    10bc: 6d                           	insl	%dx, %es:(%edi)
    10bd: 6f                           	outsl	(%esi), %dx
    10be: 72 61                        	jb	0x1121 <.debug_str+0x1121>
    10c0: 62 61 72                     	bound	%esp, 114(%ecx)
    10c3: 61                           	popal
    10c4: 62 61 4f                     	bound	%esp, 79(%ecx)
    10c7: 53                           	pushl	%ebx
    10c8: 00 73 72                     	addb	%dh, 114(%ebx)
    10cb: 63 2f                        	arpl	%bp, (%edi)
    10cd: 6b 65 72 6e                  	imull	$110, 114(%ebp), %esp
    10d1: 65 6c                        	insb	%dx, %es:(%edi)
    10d3: 2f                           	das
    10d4: 73 74                        	jae	0x114a <.debug_str+0x114a>
    10d6: 72 69                        	jb	0x1141 <.debug_str+0x1141>
    10d8: 6e                           	outsb	(%esi), %dx
    10d9: 67 2f                        	das
    10db: 73 74                        	jae	0x1151 <.debug_str+0x1151>
    10dd: 72 69                        	jb	0x1148 <.debug_str+0x1148>
    10df: 6e                           	outsb	(%esi), %dx
    10e0: 67 2e 63 00                  	arpl	%ax, %cs:(%bx,%si)
    10e4: 73 68                        	jae	0x114e <.debug_str+0x114e>
    10e6: 6f                           	outsl	(%esi), %dx
    10e7: 72 74                        	jb	0x115d <.debug_str+0x115d>
    10e9: 20 75 6e                     	andb	%dh, 110(%ebp)
    10ec: 73 69                        	jae	0x1157 <.debug_str+0x1157>
    10ee: 67 6e                        	outsb	(%si), %dx
    10f0: 65 64 20 69 6e               	andb	%ch, %fs:110(%ecx)
    10f5: 74 00                        	je	0x10f7 <.debug_str+0x10f7>
    10f7: 63 68 61                     	arpl	%bp, 97(%eax)
    10fa: 72 00                        	jb	0x10fc <.debug_str+0x10fc>
    10fc: 6c                           	insb	%dx, %es:(%edi)
    10fd: 6f                           	outsl	(%esi), %dx
    10fe: 6e                           	outsb	(%esi), %dx
    10ff: 67 20 6c 6f                  	andb	%ch, 111(%si)
    1103: 6e                           	outsb	(%esi), %dx
    1104: 67 20 75 6e                  	andb	%dh, 110(%di)
    1108: 73 69                        	jae	0x1173 <.debug_str+0x1173>
    110a: 67 6e                        	outsb	(%si), %dx
    110c: 65 64 20 69 6e               	andb	%ch, %fs:110(%ecx)
    1111: 74 00                        	je	0x1113 <.debug_str+0x1113>
    1113: 47                           	incl	%edi
    1114: 4e                           	decl	%esi
    1115: 55                           	pushl	%ebp
    1116: 20 43 39                     	andb	%al, 57(%ebx)
    1119: 39 20                        	cmpl	%esp, (%eax)
    111b: 31 30                        	xorl	%esi, (%eax)
    111d: 2e 33 2e                     	xorl	%cs:(%esi), %ebp
    1120: 30 20                        	xorb	%ah, (%eax)
    1122: 2d 6d 74 75 6e               	subl	$1853191277, %eax       # imm = 0x6E75746D
    1127: 65 3d 67 65 6e 65            	cmpl	$1701733735, %eax       # imm = 0x656E6567
    112d: 72 69                        	jb	0x1198 <.debug_str+0x1198>
    112f: 63 20                        	arpl	%sp, (%eax)
    1131: 2d 6d 61 72 63               	subl	$1668440429, %eax       # imm = 0x6372616D
    1136: 68 3d 69 36 38               	pushl	$943089981              # imm = 0x3836693D
    113b: 36 20 2d 67 20 2d 4f         	andb	%ch, %ss:1328357479
    1142: 30 20                        	xorb	%ah, (%eax)
    1144: 2d 73 74 64 3d               	subl	$1029993587, %eax       # imm = 0x3D647473
    1149: 67 6e                        	outsb	(%si), %dx
    114b: 75 39                        	jne	0x1186 <.debug_str+0x1186>
    114d: 39 20                        	cmpl	%esp, (%eax)
    114f: 2d 66 66 72 65               	subl	$1701996134, %eax       # imm = 0x65726666
    1154: 65 73 74                     	jae	0x11cb <.debug_str+0x11cb>
    1157: 61                           	popal
    1158: 6e                           	outsb	(%esi), %dx
    1159: 64 69 6e 67 20 2d 66 61      	imull	$1634086176, %fs:103(%esi), %ebp # imm = 0x61662D20
    1161: 6c                           	insb	%dx, %es:(%edi)
    1162: 69 67 6e 2d 6a 75 6d         	imull	$1836411437, 110(%edi), %esp # imm = 0x6D756A2D
    1169: 70 73                        	jo	0x11de <.debug_str+0x11de>
    116b: 20 2d 66 61 6c 69            	andb	%ch, 1768710502
    1171: 67 6e                        	outsb	(%si), %dx
    1173: 2d 66 75 6e 63               	subl	$1668183398, %eax       # imm = 0x636E7566
    1178: 74 69                        	je	0x11e3 <.debug_str+0x11e3>
    117a: 6f                           	outsl	(%esi), %dx
    117b: 6e                           	outsb	(%esi), %dx
    117c: 73 20                        	jae	0x119e <.debug_str+0x119e>
    117e: 2d 66 61 6c 69               	subl	$1768710502, %eax       # imm = 0x696C6166
    1183: 67 6e                        	outsb	(%si), %dx
    1185: 2d 6c 61 62 65               	subl	$1700946284, %eax       # imm = 0x6562616C
    118a: 6c                           	insb	%dx, %es:(%edi)
    118b: 73 20                        	jae	0x11ad <.debug_str+0x11ad>
    118d: 2d 66 61 6c 69               	subl	$1768710502, %eax       # imm = 0x696C6166
    1192: 67 6e                        	outsb	(%si), %dx
    1194: 2d 6c 6f 6f 70               	subl	$1886351212, %eax       # imm = 0x706F6F6C
    1199: 73 20                        	jae	0x11bb <.debug_str+0x11bb>
    119b: 2d 66 6f 6d 69               	subl	$1768779622, %eax       # imm = 0x696D6F66
    11a0: 74 2d                        	je	0x11cf <.debug_str+0x11cf>
    11a2: 66 72 61                     	jb	0x1206 <.debug_str+0x1206>
    11a5: 6d                           	insl	%dx, %es:(%edi)
    11a6: 65 2d 70 6f 69 6e            	subl	$1852403568, %eax       # imm = 0x6E696F70
    11ac: 74 65                        	je	0x1213 <.debug_str+0x1213>
    11ae: 72 20                        	jb	0x11d0 <.debug_str+0x11d0>
    11b0: 2d 66 69 6e 6c               	subl	$1819175270, %eax       # imm = 0x6C6E6966
    11b5: 69 6e 65 2d 66 75 6e         	imull	$1853187629, 101(%esi), %ebp # imm = 0x6E75662D
    11bc: 63 74 69 6f                  	arpl	%si, 111(%ecx,%ebp,2)
    11c0: 6e                           	outsb	(%esi), %dx
    11c1: 73 20                        	jae	0x11e3 <.debug_str+0x11e3>
    11c3: 2d 66 6e 6f 2d               	subl	$762277478, %eax        # imm = 0x2D6F6E66
    11c8: 62 75 69                     	bound	%esi, 105(%ebp)
    11cb: 6c                           	insb	%dx, %es:(%edi)
    11cc: 74 69                        	je	0x1237 <.debug_str+0x1237>
    11ce: 6e                           	outsb	(%esi), %dx
    11cf: 00 75 6e                     	addb	%dh, 110(%ebp)
    11d2: 73 69                        	jae	0x123d <.debug_str+0x123d>
    11d4: 67 6e                        	outsb	(%si), %dx
    11d6: 65 64 20 63 68               	andb	%ah, %fs:104(%ebx)
    11db: 61                           	popal
    11dc: 72 00                        	jb	0x11de <.debug_str+0x11de>
    11de: 73 74                        	jae	0x1254 <.debug_str+0x1254>
    11e0: 72 69                        	jb	0x124b <.debug_str+0x124b>
    11e2: 6e                           	outsb	(%esi), %dx
    11e3: 67 00 47 4e                  	addb	%al, 78(%bx)
    11e7: 55                           	pushl	%ebp
    11e8: 20 43 39                     	andb	%al, 57(%ebx)
    11eb: 39 20                        	cmpl	%esp, (%eax)
    11ed: 31 30                        	xorl	%esi, (%eax)
    11ef: 2e 33 2e                     	xorl	%cs:(%esi), %ebp
    11f2: 30 20                        	xorb	%ah, (%eax)
    11f4: 2d 6d 74 75 6e               	subl	$1853191277, %eax       # imm = 0x6E75746D
    11f9: 65 3d 67 65 6e 65            	cmpl	$1701733735, %eax       # imm = 0x656E6567
    11ff: 72 69                        	jb	0x126a <.debug_str+0x126a>
    1201: 63 20                        	arpl	%sp, (%eax)
    1203: 2d 6d 61 72 63               	subl	$1668440429, %eax       # imm = 0x6372616D
    1208: 68 3d 69 36 38               	pushl	$943089981              # imm = 0x3836693D
    120d: 36 20 2d 67 20 2d 4f         	andb	%ch, %ss:1328357479
    1214: 30 20                        	xorb	%ah, (%eax)
    1216: 2d 73 74 64 3d               	subl	$1029993587, %eax       # imm = 0x3D647473
    121b: 67 6e                        	outsb	(%si), %dx
    121d: 75 39                        	jne	0x1258 <.debug_str+0x1258>
    121f: 39 20                        	cmpl	%esp, (%eax)
    1221: 2d 66 66 72 65               	subl	$1701996134, %eax       # imm = 0x65726666
    1226: 65 73 74                     	jae	0x129d <.debug_str+0x129d>
    1229: 61                           	popal
    122a: 6e                           	outsb	(%esi), %dx
    122b: 64 69 6e 67 20 2d 66 61      	imull	$1634086176, %fs:103(%esi), %ebp # imm = 0x61662D20
    1233: 6c                           	insb	%dx, %es:(%edi)
    1234: 69 67 6e 2d 6a 75 6d         	imull	$1836411437, 110(%edi), %esp # imm = 0x6D756A2D
    123b: 70 73                        	jo	0x12b0 <.debug_str+0x12b0>
    123d: 20 2d 66 61 6c 69            	andb	%ch, 1768710502
    1243: 67 6e                        	outsb	(%si), %dx
    1245: 2d 66 75 6e 63               	subl	$1668183398, %eax       # imm = 0x636E7566
    124a: 74 69                        	je	0x12b5 <.debug_str+0x12b5>
    124c: 6f                           	outsl	(%esi), %dx
    124d: 6e                           	outsb	(%esi), %dx
    124e: 73 20                        	jae	0x1270 <.debug_str+0x1270>
    1250: 2d 66 61 6c 69               	subl	$1768710502, %eax       # imm = 0x696C6166
    1255: 67 6e                        	outsb	(%si), %dx
    1257: 2d 6c 61 62 65               	subl	$1700946284, %eax       # imm = 0x6562616C
    125c: 6c                           	insb	%dx, %es:(%edi)
    125d: 73 20                        	jae	0x127f <.debug_str+0x127f>
    125f: 2d 66 61 6c 69               	subl	$1768710502, %eax       # imm = 0x696C6166
    1264: 67 6e                        	outsb	(%si), %dx
    1266: 2d 6c 6f 6f 70               	subl	$1886351212, %eax       # imm = 0x706F6F6C
    126b: 73 20                        	jae	0x128d <.debug_str+0x128d>
    126d: 2d 66 6f 6d 69               	subl	$1768779622, %eax       # imm = 0x696D6F66
    1272: 74 2d                        	je	0x12a1 <.debug_str+0x12a1>
    1274: 66 72 61                     	jb	0x12d8 <.debug_str+0x12d8>
    1277: 6d                           	insl	%dx, %es:(%edi)
    1278: 65 2d 70 6f 69 6e            	subl	$1852403568, %eax       # imm = 0x6E696F70
    127e: 74 65                        	je	0x12e5 <.debug_str+0x12e5>
    1280: 72 20                        	jb	0x12a2 <.debug_str+0x12a2>
    1282: 2d 66 69 6e 6c               	subl	$1819175270, %eax       # imm = 0x6C6E6966
    1287: 69 6e 65 2d 66 75 6e         	imull	$1853187629, 101(%esi), %ebp # imm = 0x6E75662D
    128e: 63 74 69 6f                  	arpl	%si, 111(%ecx,%ebp,2)
    1292: 6e                           	outsb	(%esi), %dx
    1293: 73 20                        	jae	0x12b5 <.debug_str+0x12b5>
    1295: 2d 66 6e 6f 2d               	subl	$762277478, %eax        # imm = 0x2D6F6E66
    129a: 62 75 69                     	bound	%esi, 105(%ebp)
    129d: 6c                           	insb	%dx, %es:(%edi)
    129e: 74 69                        	je	0x1309 <.debug_str+0x1309>
    12a0: 6e                           	outsb	(%esi), %dx
    12a1: 00 2f                        	addb	%ch, (%edi)
    12a3: 55                           	pushl	%ebp
    12a4: 73 65                        	jae	0x130b <.debug_str+0x130b>
    12a6: 72 73                        	jb	0x131b <.debug_str+0x131b>
    12a8: 2f                           	das
    12a9: 6d                           	insl	%dx, %es:(%edi)
    12aa: 61                           	popal
    12ab: 72 74                        	jb	0x1321 <.debug_str+0x1321>
    12ad: 69 6e 73 69 6d 61 6e         	imull	$1851878761, 115(%esi), %ebp # imm = 0x6E616D69
    12b4: 67 6f                        	outsl	(%si), %dx
    12b6: 2f                           	das
    12b7: 70 72                        	jo	0x132b <.debug_str+0x132b>
    12b9: 6f                           	outsl	(%esi), %dx
    12ba: 6a 65                        	pushl	$101
    12bc: 63 74 73 2f                  	arpl	%si, 47(%ebx,%esi,2)
    12c0: 6d                           	insl	%dx, %es:(%edi)
    12c1: 6f                           	outsl	(%esi), %dx
    12c2: 72 61                        	jb	0x1325 <.debug_str+0x1325>
    12c4: 62 61 72                     	bound	%esp, 114(%ecx)
    12c7: 61                           	popal
    12c8: 62 61 4f                     	bound	%esp, 79(%ecx)
    12cb: 53                           	pushl	%ebx
    12cc: 00 73 72                     	addb	%dh, 114(%ebx)
    12cf: 63 2f                        	arpl	%bp, (%edi)
    12d1: 6b 65 72 6e                  	imull	$110, 114(%ebp), %esp
    12d5: 65 6c                        	insb	%dx, %es:(%edi)
    12d7: 2f                           	das
    12d8: 74 69                        	je	0x1343 <.debug_str+0x1343>
    12da: 6d                           	insl	%dx, %es:(%edi)
    12db: 65 72 2f                     	jb	0x130d <.debug_str+0x130d>
    12de: 74 69                        	je	0x1349 <.debug_str+0x1349>
    12e0: 6d                           	insl	%dx, %es:(%edi)
    12e1: 65 72 2e                     	jb	0x1312 <.debug_str+0x1312>
    12e4: 63 00                        	arpl	%ax, (%eax)
    12e6: 2f                           	das
    12e7: 55                           	pushl	%ebp
    12e8: 73 65                        	jae	0x134f <.debug_str+0x134f>
    12ea: 72 73                        	jb	0x135f <.debug_str+0x135f>
    12ec: 2f                           	das
    12ed: 6d                           	insl	%dx, %es:(%edi)
    12ee: 61                           	popal
    12ef: 72 74                        	jb	0x1365 <.debug_str+0x1365>
    12f1: 69 6e 73 69 6d 61 6e         	imull	$1851878761, 115(%esi), %ebp # imm = 0x6E616D69
    12f8: 67 6f                        	outsl	(%si), %dx
    12fa: 2f                           	das
    12fb: 70 72                        	jo	0x136f <.debug_str+0x136f>
    12fd: 6f                           	outsl	(%esi), %dx
    12fe: 6a 65                        	pushl	$101
    1300: 63 74 73 2f                  	arpl	%si, 47(%ebx,%esi,2)
    1304: 6d                           	insl	%dx, %es:(%edi)
    1305: 6f                           	outsl	(%esi), %dx
    1306: 72 61                        	jb	0x1369 <.debug_str+0x1369>
    1308: 62 61 72                     	bound	%esp, 114(%ecx)
    130b: 61                           	popal
    130c: 62 61 4f                     	bound	%esp, 79(%ecx)
    130f: 53                           	pushl	%ebx
    1310: 00 75 6e                     	addb	%dh, 110(%ebp)
    1313: 73 69                        	jae	0x137e <.debug_str+0x137e>
    1315: 67 6e                        	outsb	(%si), %dx
    1317: 65 64 20 69 6e               	andb	%ch, %fs:110(%ecx)
    131c: 74 00                        	je	0x131e <.debug_str+0x131e>
    131e: 74 74                        	je	0x1394 <.debug_str+0x1394>
    1320: 79 5f                        	jns	0x1381 <.debug_str+0x1381>
    1322: 70 72                        	jo	0x1396 <.debug_str+0x1396>
    1324: 69 6e 74 00 73 69 7a         	imull	$2053731072, 116(%esi), %ebp # imm = 0x7A697300
    132b: 65 5f                        	popl	%edi
    132d: 74 00                        	je	0x132f <.debug_str+0x132f>
    132f: 74 74                        	je	0x13a5 <.debug_str+0x13a5>
    1331: 79 5f                        	jns	0x1392 <.debug_str+0x1392>
    1333: 6b 65 72 6e                  	imull	$110, 114(%ebp), %esp
    1337: 65 6c                        	insb	%dx, %es:(%edi)
    1339: 5f                           	popl	%edi
    133a: 70 61                        	jo	0x139d <.debug_str+0x139d>
    133c: 6e                           	outsb	(%esi), %dx
    133d: 69 63 00 74 74 79 5f         	imull	$1601795188, (%ebx), %esp # imm = 0x5F797474
    1344: 70 75                        	jo	0x13bb <.debug_str+0x13bb>
    1346: 74 5f                        	je	0x13a7 <.debug_str+0x13a7>
    1348: 63 68 61                     	arpl	%bp, 97(%eax)
    134b: 72 00                        	jb	0x134d <.debug_str+0x134d>
    134d: 54                           	pushl	%esp
    134e: 54                           	pushl	%esp
    134f: 59                           	popl	%ecx
    1350: 5f                           	popl	%edi
    1351: 47                           	incl	%edi
    1352: 52                           	pushl	%edx
    1353: 45                           	incl	%ebp
    1354: 45                           	incl	%ebp
    1355: 4e                           	decl	%esi
    1356: 00 75 69                     	addb	%dh, 105(%ebp)
    1359: 6e                           	outsb	(%esi), %dx
    135a: 74 38                        	je	0x1394 <.debug_str+0x1394>
    135c: 00 56 49                     	addb	%dl, 73(%esi)
    135f: 44                           	incl	%esp
    1360: 45                           	incl	%ebp
    1361: 4f                           	decl	%edi
    1362: 5f                           	popl	%edi
    1363: 4d                           	decl	%ebp
    1364: 45                           	incl	%ebp
    1365: 4d                           	decl	%ebp
    1366: 4f                           	decl	%edi
    1367: 52                           	pushl	%edx
    1368: 59                           	popl	%ecx
    1369: 00 74 74 79                  	addb	%dh, 121(%esp,%esi,2)
    136d: 5f                           	popl	%edi
    136e: 69 6e 69 74 00 6c 6f         	imull	$1869348980, 105(%esi), %ebp # imm = 0x6F6C0074
    1375: 6e                           	outsb	(%esi), %dx
    1376: 67 20 6c 6f                  	andb	%ch, 111(%si)
    137a: 6e                           	outsb	(%esi), %dx
    137b: 67 20 75 6e                  	andb	%dh, 110(%di)
    137f: 73 69                        	jae	0x13ea <.debug_str+0x13ea>
    1381: 67 6e                        	outsb	(%si), %dx
    1383: 65 64 20 69 6e               	andb	%ch, %fs:110(%ecx)
    1388: 74 00                        	je	0x138a <.debug_str+0x138a>
    138a: 74 74                        	je	0x1400 <.debug_str+0x1400>
    138c: 79 5f                        	jns	0x13ed <.debug_str+0x13ed>
    138e: 6d                           	insl	%dx, %es:(%edi)
    138f: 61                           	popal
    1390: 6b 65 5f 76                  	imull	$118, 95(%ebp), %esp
    1394: 69 64 65 6f 5f 6d 65 6d      	imull	$1835363679, 111(%ebp,%eiz,2), %esp # imm = 0x6D656D5F
    139c: 5f                           	popl	%edi
    139d: 63 68 61                     	arpl	%bp, 97(%eax)
    13a0: 72 00                        	jb	0x13a2 <.debug_str+0x13a2>
    13a2: 54                           	pushl	%esp
    13a3: 54                           	pushl	%esp
    13a4: 59                           	popl	%ecx
    13a5: 5f                           	popl	%edi
    13a6: 42                           	incl	%edx
    13a7: 4c                           	decl	%esp
    13a8: 55                           	pushl	%ebp
    13a9: 45                           	incl	%ebp
    13aa: 00 74 74 79                  	addb	%dh, 121(%esp,%esi,2)
    13ae: 5f                           	popl	%edi
    13af: 63 6c 65 61                  	arpl	%bp, 97(%ebp,%eiz,2)
    13b3: 72 00                        	jb	0x13b5 <.debug_str+0x13b5>
    13b5: 74 74                        	je	0x142b <.debug_str+0x142b>
    13b7: 79 5f                        	jns	0x1418 <.debug_str+0x1418>
    13b9: 69 6e 69 74 69 61 6c         	imull	$1818323316, 105(%esi), %ebp # imm = 0x6C616974
    13c0: 69 7a 65 00 75 6e 73         	imull	$1936618752, 101(%edx), %edi # imm = 0x736E7500
    13c7: 69 67 6e 65 64 20 63         	imull	$1663067237, 110(%edi), %esp # imm = 0x63206465
    13ce: 68 61 72 00 54               	pushl	$1409315425             # imm = 0x54007261
    13d3: 54                           	pushl	%esp
    13d4: 59                           	popl	%ecx
    13d5: 5f                           	popl	%edi
    13d6: 42                           	incl	%edx
    13d7: 4c                           	decl	%esp
    13d8: 55                           	pushl	%ebp
    13d9: 45                           	incl	%ebp
    13da: 5f                           	popl	%edi
    13db: 47                           	incl	%edi
    13dc: 52                           	pushl	%edx
    13dd: 45                           	incl	%ebp
    13de: 45                           	incl	%ebp
    13df: 4e                           	decl	%esi
    13e0: 00 63 68                     	addb	%ah, 104(%ebx)
    13e3: 61                           	popal
    13e4: 72 00                        	jb	0x13e6 <.debug_str+0x13e6>
    13e6: 74 74                        	je	0x145c <.debug_str+0x145c>
    13e8: 79 5f                        	jns	0x1449 <.debug_str+0x1449>
    13ea: 73 65                        	jae	0x1451 <.debug_str+0x1451>
    13ec: 74 5f                        	je	0x144d <.debug_str+0x144d>
    13ee: 74 65                        	je	0x1455 <.debug_str+0x1455>
    13f0: 78 74                        	js	0x1466 <.debug_str+0x1466>
    13f2: 5f                           	popl	%edi
    13f3: 63 6f 6c                     	arpl	%bp, 108(%edi)
    13f6: 6f                           	outsl	(%esi), %dx
    13f7: 72 00                        	jb	0x13f9 <.debug_str+0x13f9>
    13f9: 73 72                        	jae	0x146d <.debug_str+0x146d>
    13fb: 63 2f                        	arpl	%bp, (%edi)
    13fd: 6b 65 72 6e                  	imull	$110, 114(%ebp), %esp
    1401: 65 6c                        	insb	%dx, %es:(%edi)
    1403: 2f                           	das
    1404: 74 74                        	je	0x147a <.debug_str+0x147a>
    1406: 79 2f                        	jns	0x1437 <.debug_str+0x1437>
    1408: 74 74                        	je	0x147e <.debug_str+0x147e>
    140a: 79 2e                        	jns	0x143a <.debug_str+0x143a>
    140c: 63 00                        	arpl	%ax, (%eax)
    140e: 44                           	incl	%esp
    140f: 65 66 61                     	popaw
    1412: 75 6c                        	jne	0x1480 <.debug_str+0x1480>
    1414: 74 54                        	je	0x146a <.debug_str+0x146a>
    1416: 54                           	pushl	%esp
    1417: 59                           	popl	%ecx
    1418: 00 65 72                     	addb	%ah, 114(%ebp)
    141b: 72 6f                        	jb	0x148c <.debug_str+0x148c>
    141d: 72 5f                        	jb	0x147e <.debug_str+0x147e>
    141f: 6e                           	outsb	(%esi), %dx
    1420: 75 6d                        	jne	0x148f <.debug_str+0x148f>
    1422: 00 74 65 72                  	addb	%dh, 114(%ebp,%eiz,2)
    1426: 6d                           	insl	%dx, %es:(%edi)
    1427: 69 6e 61 6c 5f 72 6f         	imull	$1869766508, 97(%esi), %ebp # imm = 0x6F725F6C
    142e: 77 00                        	ja	0x1430 <.debug_str+0x1430>
    1430: 54                           	pushl	%esp
    1431: 54                           	pushl	%esp
    1432: 59                           	popl	%ecx
    1433: 5f                           	popl	%edi
    1434: 57                           	pushl	%edi
    1435: 48                           	decl	%eax
    1436: 49                           	decl	%ecx
    1437: 54                           	pushl	%esp
    1438: 45                           	incl	%ebp
    1439: 00 74 65 72                  	addb	%dh, 114(%ebp,%eiz,2)
    143d: 6d                           	insl	%dx, %es:(%edi)
    143e: 69 6e 61 6c 00 54 54         	imull	$1414791276, 97(%esi), %ebp # imm = 0x5454006C
    1445: 59                           	popl	%ecx
    1446: 5f                           	popl	%edi
    1447: 43                           	incl	%ebx
    1448: 4c                           	decl	%esp
    1449: 45                           	incl	%ebp
    144a: 41                           	incl	%ecx
    144b: 52                           	pushl	%edx
    144c: 00 73 68                     	addb	%dh, 104(%ebx)
    144f: 6f                           	outsl	(%esi), %dx
    1450: 72 74                        	jb	0x14c6 <.debug_str+0x14c6>
    1452: 20 75 6e                     	andb	%dh, 110(%ebp)
    1455: 73 69                        	jae	0x14c0 <.debug_str+0x14c0>
    1457: 67 6e                        	outsb	(%si), %dx
    1459: 65 64 20 69 6e               	andb	%ch, %fs:110(%ecx)
    145e: 74 00                        	je	0x1460 <.debug_str+0x1460>
    1460: 74 65                        	je	0x14c7 <.debug_str+0x14c7>
    1462: 72 6d                        	jb	0x14d1 <.debug_str+0x14d1>
    1464: 69 6e 61 6c 5f 63 6f         	imull	$1868783468, 97(%esi), %ebp # imm = 0x6F635F6C
    146b: 6c                           	insb	%dx, %es:(%edi)
    146c: 00 74 65 78                  	addb	%dh, 120(%ebp,%eiz,2)
    1470: 74 5f                        	je	0x14d1 <.debug_str+0x14d1>
    1472: 63 6f 6c                     	arpl	%bp, 108(%edi)
    1475: 6f                           	outsl	(%esi), %dx
    1476: 72 00                        	jb	0x1478 <.debug_str+0x1478>
    1478: 74 74                        	je	0x14ee <.debug_str+0x14ee>
    147a: 79 5f                        	jns	0x14db <.debug_str+0x14db>
    147c: 70 72                        	jo	0x14f0 <.debug_str+0x14f0>
    147e: 69 6e 74 5f 64 65 66         	imull	$1717920863, 116(%esi), %ebp # imm = 0x6665645F
    1485: 61                           	popal
    1486: 75 6c                        	jne	0x14f4 <.debug_str+0x14f4>
    1488: 74 00                        	je	0x148a <.debug_str+0x148a>
    148a: 47                           	incl	%edi
    148b: 4e                           	decl	%esi
    148c: 55                           	pushl	%ebp
    148d: 20 43 39                     	andb	%al, 57(%ebx)
    1490: 39 20                        	cmpl	%esp, (%eax)
    1492: 31 30                        	xorl	%esi, (%eax)
    1494: 2e 33 2e                     	xorl	%cs:(%esi), %ebp
    1497: 30 20                        	xorb	%ah, (%eax)
    1499: 2d 6d 74 75 6e               	subl	$1853191277, %eax       # imm = 0x6E75746D
    149e: 65 3d 67 65 6e 65            	cmpl	$1701733735, %eax       # imm = 0x656E6567
    14a4: 72 69                        	jb	0x150f <.debug_str+0x150f>
    14a6: 63 20                        	arpl	%sp, (%eax)
    14a8: 2d 6d 61 72 63               	subl	$1668440429, %eax       # imm = 0x6372616D
    14ad: 68 3d 69 36 38               	pushl	$943089981              # imm = 0x3836693D
    14b2: 36 20 2d 67 20 2d 4f         	andb	%ch, %ss:1328357479
    14b9: 30 20                        	xorb	%ah, (%eax)
    14bb: 2d 73 74 64 3d               	subl	$1029993587, %eax       # imm = 0x3D647473
    14c0: 67 6e                        	outsb	(%si), %dx
    14c2: 75 39                        	jne	0x14fd <.debug_str+0x14fd>
    14c4: 39 20                        	cmpl	%esp, (%eax)
    14c6: 2d 66 66 72 65               	subl	$1701996134, %eax       # imm = 0x65726666
    14cb: 65 73 74                     	jae	0x1542 <.debug_str+0x1542>
    14ce: 61                           	popal
    14cf: 6e                           	outsb	(%esi), %dx
    14d0: 64 69 6e 67 20 2d 66 61      	imull	$1634086176, %fs:103(%esi), %ebp # imm = 0x61662D20
    14d8: 6c                           	insb	%dx, %es:(%edi)
    14d9: 69 67 6e 2d 6a 75 6d         	imull	$1836411437, 110(%edi), %esp # imm = 0x6D756A2D
    14e0: 70 73                        	jo	0x1555 <.debug_str+0x1555>
    14e2: 20 2d 66 61 6c 69            	andb	%ch, 1768710502
    14e8: 67 6e                        	outsb	(%si), %dx
    14ea: 2d 66 75 6e 63               	subl	$1668183398, %eax       # imm = 0x636E7566
    14ef: 74 69                        	je	0x155a <.debug_str+0x155a>
    14f1: 6f                           	outsl	(%esi), %dx
    14f2: 6e                           	outsb	(%esi), %dx
    14f3: 73 20                        	jae	0x1515 <.debug_str+0x1515>
    14f5: 2d 66 61 6c 69               	subl	$1768710502, %eax       # imm = 0x696C6166
    14fa: 67 6e                        	outsb	(%si), %dx
    14fc: 2d 6c 61 62 65               	subl	$1700946284, %eax       # imm = 0x6562616C
    1501: 6c                           	insb	%dx, %es:(%edi)
    1502: 73 20                        	jae	0x1524 <.debug_str+0x1524>
    1504: 2d 66 61 6c 69               	subl	$1768710502, %eax       # imm = 0x696C6166
    1509: 67 6e                        	outsb	(%si), %dx
    150b: 2d 6c 6f 6f 70               	subl	$1886351212, %eax       # imm = 0x706F6F6C
    1510: 73 20                        	jae	0x1532 <.debug_str+0x1532>
    1512: 2d 66 6f 6d 69               	subl	$1768779622, %eax       # imm = 0x696D6F66
    1517: 74 2d                        	je	0x1546 <.debug_str+0x1546>
    1519: 66 72 61                     	jb	0x157d <.debug_str+0x157d>
    151c: 6d                           	insl	%dx, %es:(%edi)
    151d: 65 2d 70 6f 69 6e            	subl	$1852403568, %eax       # imm = 0x6E696F70
    1523: 74 65                        	je	0x158a <.debug_str+0x158a>
    1525: 72 20                        	jb	0x1547 <.debug_str+0x1547>
    1527: 2d 66 69 6e 6c               	subl	$1819175270, %eax       # imm = 0x6C6E6966
    152c: 69 6e 65 2d 66 75 6e         	imull	$1853187629, 101(%esi), %ebp # imm = 0x6E75662D
    1533: 63 74 69 6f                  	arpl	%si, 111(%ecx,%ebp,2)
    1537: 6e                           	outsb	(%esi), %dx
    1538: 73 20                        	jae	0x155a <.debug_str+0x155a>
    153a: 2d 66 6e 6f 2d               	subl	$762277478, %eax        # imm = 0x2D6F6E66
    153f: 62 75 69                     	bound	%esi, 105(%ebp)
    1542: 6c                           	insb	%dx, %es:(%edi)
    1543: 74 69                        	je	0x15ae <.debug_str+0x15ae>
    1545: 6e                           	outsb	(%esi), %dx
    1546: 00 75 69                     	addb	%dh, 105(%ebp)
    1549: 6e                           	outsb	(%esi), %dx
    154a: 74 31                        	je	0x157d <.debug_str+0x157d>
    154c: 36 00 74 74 79               	addb	%dh, %ss:121(%esp,%esi,2)
    1551: 5f                           	popl	%edi
    1552: 63 6f 6c                     	arpl	%bp, 108(%edi)
    1555: 6f                           	outsl	(%esi), %dx
    1556: 72 00                        	jb	0x1558 <.debug_str+0x1558>
    1558: 2f                           	das
    1559: 55                           	pushl	%ebp
    155a: 73 65                        	jae	0x15c1 <.debug_str+0x15c1>
    155c: 72 73                        	jb	0x15d1 <.debug_str+0x15d1>
    155e: 2f                           	das
    155f: 6d                           	insl	%dx, %es:(%edi)
    1560: 61                           	popal
    1561: 72 74                        	jb	0x15d7 <.debug_str+0x15d7>
    1563: 69 6e 73 69 6d 61 6e         	imull	$1851878761, 115(%esi), %ebp # imm = 0x6E616D69
    156a: 67 6f                        	outsl	(%si), %dx
    156c: 2f                           	das
    156d: 70 72                        	jo	0x15e1 <.debug_str+0x15e1>
    156f: 6f                           	outsl	(%esi), %dx
    1570: 6a 65                        	pushl	$101
    1572: 63 74 73 2f                  	arpl	%si, 47(%ebx,%esi,2)
    1576: 6d                           	insl	%dx, %es:(%edi)
    1577: 6f                           	outsl	(%esi), %dx
    1578: 72 61                        	jb	0x15db <.debug_str+0x15db>
    157a: 62 61 72                     	bound	%esp, 114(%ecx)
    157d: 61                           	popal
    157e: 62 61 4f                     	bound	%esp, 79(%ecx)
    1581: 53                           	pushl	%ebx
    1582: 00 75 69                     	addb	%dh, 105(%ebp)
    1585: 6e                           	outsb	(%esi), %dx
    1586: 74 33                        	je	0x15bb <.debug_str+0x15bb>
    1588: 32 00                        	xorb	(%eax), %al
    158a: 75 6e                        	jne	0x15fa <.debug_str+0x15fa>
    158c: 73 69                        	jae	0x15f7 <.debug_str+0x15f7>
    158e: 67 6e                        	outsb	(%si), %dx
    1590: 65 64 20 69 6e               	andb	%ch, %fs:110(%ecx)
    1595: 74 00                        	je	0x1597 <.debug_str+0x1597>
    1597: 73 69                        	jae	0x1602 <.debug_str+0x1602>
    1599: 7a 65                        	jp	0x1600 <.debug_str+0x1600>
    159b: 5f                           	popl	%edi
    159c: 74 00                        	je	0x159e <.debug_str+0x159e>
    159e: 54                           	pushl	%esp
    159f: 54                           	pushl	%esp
    15a0: 59                           	popl	%ecx
    15a1: 5f                           	popl	%edi
    15a2: 47                           	incl	%edi
    15a3: 52                           	pushl	%edx
    15a4: 45                           	incl	%ebp
    15a5: 45                           	incl	%ebp
    15a6: 4e                           	decl	%esi
    15a7: 00 75 69                     	addb	%dh, 105(%ebp)
    15aa: 6e                           	outsb	(%esi), %dx
    15ab: 74 38                        	je	0x15e5 <.debug_str+0x15e5>
    15ad: 00 6c 6f 6e                  	addb	%ch, 110(%edi,%ebp,2)
    15b1: 67 20 6c 6f                  	andb	%ch, 111(%si)
    15b5: 6e                           	outsb	(%esi), %dx
    15b6: 67 20 75 6e                  	andb	%dh, 110(%di)
    15ba: 73 69                        	jae	0x1625 <.debug_str+0x1625>
    15bc: 67 6e                        	outsb	(%si), %dx
    15be: 65 64 20 69 6e               	andb	%ch, %fs:110(%ecx)
    15c3: 74 00                        	je	0x15c5 <.debug_str+0x15c5>
    15c5: 54                           	pushl	%esp
    15c6: 54                           	pushl	%esp
    15c7: 59                           	popl	%ecx
    15c8: 5f                           	popl	%edi
    15c9: 42                           	incl	%edx
    15ca: 4c                           	decl	%esp
    15cb: 55                           	pushl	%ebp
    15cc: 45                           	incl	%ebp
    15cd: 00 75 6e                     	addb	%dh, 110(%ebp)
    15d0: 73 69                        	jae	0x163b <.debug_str+0x163b>
    15d2: 67 6e                        	outsb	(%si), %dx
    15d4: 65 64 20 63 68               	andb	%ah, %fs:104(%ebx)
    15d9: 61                           	popal
    15da: 72 00                        	jb	0x15dc <.debug_str+0x15dc>
    15dc: 54                           	pushl	%esp
    15dd: 54                           	pushl	%esp
    15de: 59                           	popl	%ecx
    15df: 5f                           	popl	%edi
    15e0: 42                           	incl	%edx
    15e1: 4c                           	decl	%esp
    15e2: 55                           	pushl	%ebp
    15e3: 45                           	incl	%ebp
    15e4: 5f                           	popl	%edi
    15e5: 47                           	incl	%edi
    15e6: 52                           	pushl	%edx
    15e7: 45                           	incl	%ebp
    15e8: 45                           	incl	%ebp
    15e9: 4e                           	decl	%esi
    15ea: 00 63 68                     	addb	%ah, 104(%ebx)
    15ed: 61                           	popal
    15ee: 72 00                        	jb	0x15f0 <.debug_str+0x15f0>
    15f0: 65 6e                        	outsb	%gs:(%esi), %dx
    15f2: 61                           	popal
    15f3: 62 6c 65 5f                  	bound	%ebp, 95(%ebp,%eiz,2)
    15f7: 69 6e 74 65 72 72 75         	imull	$1970434661, 116(%esi), %ebp # imm = 0x75727265
    15fe: 70 74                        	jo	0x1674 <.debug_str+0x1674>
    1600: 73 00                        	jae	0x1602 <.debug_str+0x1602>
    1602: 44                           	incl	%esp
    1603: 65 66 61                     	popaw
    1606: 75 6c                        	jne	0x1674 <.debug_str+0x1674>
    1608: 74 54                        	je	0x165e <.debug_str+0x165e>
    160a: 54                           	pushl	%esp
    160b: 59                           	popl	%ecx
    160c: 00 74 65 72                  	addb	%dh, 114(%ebp,%eiz,2)
    1610: 6d                           	insl	%dx, %es:(%edi)
    1611: 69 6e 61 6c 5f 72 6f         	imull	$1869766508, 97(%esi), %ebp # imm = 0x6F725F6C
    1618: 77 00                        	ja	0x161a <.debug_str+0x161a>
    161a: 54                           	pushl	%esp
    161b: 54                           	pushl	%esp
    161c: 59                           	popl	%ecx
    161d: 5f                           	popl	%edi
    161e: 57                           	pushl	%edi
    161f: 48                           	decl	%eax
    1620: 49                           	decl	%ecx
    1621: 54                           	pushl	%esp
    1622: 45                           	incl	%ebp
    1623: 00 74 65 72                  	addb	%dh, 114(%ebp,%eiz,2)
    1627: 6d                           	insl	%dx, %es:(%edi)
    1628: 69 6e 61 6c 00 54 54         	imull	$1414791276, 97(%esi), %ebp # imm = 0x5454006C
    162f: 59                           	popl	%ecx
    1630: 5f                           	popl	%edi
    1631: 43                           	incl	%ebx
    1632: 4c                           	decl	%esp
    1633: 45                           	incl	%ebp
    1634: 41                           	incl	%ecx
    1635: 52                           	pushl	%edx
    1636: 00 73 68                     	addb	%dh, 104(%ebx)
    1639: 6f                           	outsl	(%esi), %dx
    163a: 72 74                        	jb	0x16b0 <.debug_str+0x16b0>
    163c: 20 75 6e                     	andb	%dh, 110(%ebp)
    163f: 73 69                        	jae	0x16aa <.debug_str+0x16aa>
    1641: 67 6e                        	outsb	(%si), %dx
    1643: 65 64 20 69 6e               	andb	%ch, %fs:110(%ecx)
    1648: 74 00                        	je	0x164a <.debug_str+0x164a>
    164a: 74 65                        	je	0x16b1 <.debug_str+0x16b1>
    164c: 72 6d                        	jb	0x16bb <.debug_str+0x16bb>
    164e: 69 6e 61 6c 5f 63 6f         	imull	$1868783468, 97(%esi), %ebp # imm = 0x6F635F6C
    1655: 6c                           	insb	%dx, %es:(%edi)
    1656: 00 73 74                     	addb	%dh, 116(%ebx)
    1659: 61                           	popal
    165a: 72 74                        	jb	0x16d0 <.debug_str+0x16d0>
    165c: 5f                           	popl	%edi
    165d: 6b 65 72 6e                  	imull	$110, 114(%ebp), %esp
    1661: 65 6c                        	insb	%dx, %es:(%edi)
    1663: 00 74 65 78                  	addb	%dh, 120(%ebp,%eiz,2)
    1667: 74 5f                        	je	0x16c8 <.debug_str+0x16c8>
    1669: 63 6f 6c                     	arpl	%bp, 108(%edi)
    166c: 6f                           	outsl	(%esi), %dx
    166d: 72 00                        	jb	0x166f <.debug_str+0x166f>
    166f: 73 72                        	jae	0x16e3 <.debug_str+0x16e3>
    1671: 63 2f                        	arpl	%bp, (%edi)
    1673: 6b 65 72 6e                  	imull	$110, 114(%ebp), %esp
    1677: 65 6c                        	insb	%dx, %es:(%edi)
    1679: 2f                           	das
    167a: 6b 65 72 6e                  	imull	$110, 114(%ebp), %esp
    167e: 65 6c                        	insb	%dx, %es:(%edi)
    1680: 2e 63 00                     	arpl	%ax, %cs:(%eax)
    1683: 47                           	incl	%edi
    1684: 4e                           	decl	%esi
    1685: 55                           	pushl	%ebp
    1686: 20 43 39                     	andb	%al, 57(%ebx)
    1689: 39 20                        	cmpl	%esp, (%eax)
    168b: 31 30                        	xorl	%esi, (%eax)
    168d: 2e 33 2e                     	xorl	%cs:(%esi), %ebp
    1690: 30 20                        	xorb	%ah, (%eax)
    1692: 2d 6d 74 75 6e               	subl	$1853191277, %eax       # imm = 0x6E75746D
    1697: 65 3d 67 65 6e 65            	cmpl	$1701733735, %eax       # imm = 0x656E6567
    169d: 72 69                        	jb	0x1708 <.debug_str+0x1708>
    169f: 63 20                        	arpl	%sp, (%eax)
    16a1: 2d 6d 61 72 63               	subl	$1668440429, %eax       # imm = 0x6372616D
    16a6: 68 3d 69 36 38               	pushl	$943089981              # imm = 0x3836693D
    16ab: 36 20 2d 67 20 2d 4f         	andb	%ch, %ss:1328357479
    16b2: 30 20                        	xorb	%ah, (%eax)
    16b4: 2d 73 74 64 3d               	subl	$1029993587, %eax       # imm = 0x3D647473
    16b9: 67 6e                        	outsb	(%si), %dx
    16bb: 75 39                        	jne	0x16f6 <.debug_str+0x16f6>
    16bd: 39 20                        	cmpl	%esp, (%eax)
    16bf: 2d 66 66 72 65               	subl	$1701996134, %eax       # imm = 0x65726666
    16c4: 65 73 74                     	jae	0x173b <.debug_str+0x173b>
    16c7: 61                           	popal
    16c8: 6e                           	outsb	(%esi), %dx
    16c9: 64 69 6e 67 20 2d 66 61      	imull	$1634086176, %fs:103(%esi), %ebp # imm = 0x61662D20
    16d1: 6c                           	insb	%dx, %es:(%edi)
    16d2: 69 67 6e 2d 6a 75 6d         	imull	$1836411437, 110(%edi), %esp # imm = 0x6D756A2D
    16d9: 70 73                        	jo	0x174e <.debug_str+0x174e>
    16db: 20 2d 66 61 6c 69            	andb	%ch, 1768710502
    16e1: 67 6e                        	outsb	(%si), %dx
    16e3: 2d 66 75 6e 63               	subl	$1668183398, %eax       # imm = 0x636E7566
    16e8: 74 69                        	je	0x1753 <.debug_str+0x1753>
    16ea: 6f                           	outsl	(%esi), %dx
    16eb: 6e                           	outsb	(%esi), %dx
    16ec: 73 20                        	jae	0x170e <.debug_str+0x170e>
    16ee: 2d 66 61 6c 69               	subl	$1768710502, %eax       # imm = 0x696C6166
    16f3: 67 6e                        	outsb	(%si), %dx
    16f5: 2d 6c 61 62 65               	subl	$1700946284, %eax       # imm = 0x6562616C
    16fa: 6c                           	insb	%dx, %es:(%edi)
    16fb: 73 20                        	jae	0x171d <.debug_str+0x171d>
    16fd: 2d 66 61 6c 69               	subl	$1768710502, %eax       # imm = 0x696C6166
    1702: 67 6e                        	outsb	(%si), %dx
    1704: 2d 6c 6f 6f 70               	subl	$1886351212, %eax       # imm = 0x706F6F6C
    1709: 73 20                        	jae	0x172b <.debug_str+0x172b>
    170b: 2d 66 6f 6d 69               	subl	$1768779622, %eax       # imm = 0x696D6F66
    1710: 74 2d                        	je	0x173f <.debug_str+0x173f>
    1712: 66 72 61                     	jb	0x1776 <.debug_str+0x1776>
    1715: 6d                           	insl	%dx, %es:(%edi)
    1716: 65 2d 70 6f 69 6e            	subl	$1852403568, %eax       # imm = 0x6E696F70
    171c: 74 65                        	je	0x1783 <.debug_str+0x1783>
    171e: 72 20                        	jb	0x1740 <.debug_str+0x1740>
    1720: 2d 66 69 6e 6c               	subl	$1819175270, %eax       # imm = 0x6C6E6966
    1725: 69 6e 65 2d 66 75 6e         	imull	$1853187629, 101(%esi), %ebp # imm = 0x6E75662D
    172c: 63 74 69 6f                  	arpl	%si, 111(%ecx,%ebp,2)
    1730: 6e                           	outsb	(%esi), %dx
    1731: 73 20                        	jae	0x1753 <.debug_str+0x1753>
    1733: 2d 66 6e 6f 2d               	subl	$762277478, %eax        # imm = 0x2D6F6E66
    1738: 62 75 69                     	bound	%esi, 105(%ebp)
    173b: 6c                           	insb	%dx, %es:(%edi)
    173c: 74 69                        	je	0x17a7 <.debug_str+0x17a7>
    173e: 6e                           	outsb	(%esi), %dx
    173f: 00 69 74                     	addb	%ch, 116(%ecx)
    1742: 6f                           	outsl	(%esi), %dx
    1743: 61                           	popal
    1744: 00 74 74 79                  	addb	%dh, 121(%esp,%esi,2)
    1748: 5f                           	popl	%edi
    1749: 63 6f 6c                     	arpl	%bp, 108(%edi)
    174c: 6f                           	outsl	(%esi), %dx
    174d: 72 00                        	jb	0x174f <.debug_str+0x174f>

Disassembly of section .symtab:

00000000 <.symtab>:
		...
      1c: 03 00                        	addl	(%eax), %eax
      1e: 01 00                        	addl	%eax, (%eax)
		...
      2c: 03 00                        	addl	(%eax), %eax
      2e: 03 00                        	addl	(%eax), %eax
		...
      3c: 03 00                        	addl	(%eax), %eax
      3e: 04 00                        	addb	$0, %al
		...
      4c: 03 00                        	addl	(%eax), %eax
      4e: 06                           	pushl	%es
		...
      5b: 00 03                        	addb	%al, (%ebx)
      5d: 00 08                        	addb	%cl, (%eax)
		...
      6b: 00 03                        	addb	%al, (%ebx)
      6d: 00 09                        	addb	%cl, (%ecx)
		...
      7b: 00 03                        	addb	%al, (%ebx)
      7d: 00 0a                        	addb	%cl, (%edx)
		...
      8b: 00 03                        	addb	%al, (%ebx)
      8d: 00 0b                        	addb	%cl, (%ebx)
		...
      9b: 00 03                        	addb	%al, (%ebx)
      9d: 00 0c 00                     	addb	%cl, (%eax,%eax)
		...
      ac: 03 00                        	addl	(%eax), %eax
      ae: 0f 00 00                     	sldtw	(%eax)
		...
      b9: 00 00                        	addb	%al, (%eax)
      bb: 00 03                        	addb	%al, (%ebx)
      bd: 00 10                        	addb	%dl, (%eax)
		...
      cb: 00 03                        	addb	%al, (%ebx)
      cd: 00 13                        	addb	%dl, (%ebx)
		...
      db: 00 03                        	addb	%al, (%ebx)
      dd: 00 14 00                     	addb	%dl, (%eax,%eax)
		...
      ec: 03 00                        	addl	(%eax), %eax
      ee: 17                           	popl	%ss
		...
      fb: 00 03                        	addb	%al, (%ebx)
      fd: 00 18                        	addb	%bl, (%eax)
		...
     10b: 00 03                        	addb	%al, (%ebx)
     10d: 00 19                        	addb	%bl, (%ecx)
     10f: 00 01                        	addb	%al, (%ecx)
		...
     119: 00 00                        	addb	%al, (%eax)
     11b: 00 04 00                     	addb	%al, (%eax,%eax)
     11e: f1                           	<unknown>
     11f: ff 17                        	calll	*(%edi)
     121: 00 00                        	addb	%al, (%eax)
     123: 00 10                        	addb	%dl, (%eax)
		...
     12d: 00 f1                        	addb	%dh, %cl
     12f: ff 1f                        	lcalll	*(%edi)
     131: 00 00                        	addb	%al, (%eax)
     133: 00 1a                        	addb	%bl, (%edx)
     135: 00 00                        	addb	%al, (%eax)
     137: 00 01                        	addb	%al, (%ecx)
     139: 00 00                        	addb	%al, (%eax)
     13b: 00 01                        	addb	%al, (%ecx)
     13d: 00 01                        	addb	%al, (%ecx)
     13f: 00 30                        	addb	%dh, (%eax)
		...
     149: 00 00                        	addb	%al, (%eax)
     14b: 00 04 00                     	addb	%al, (%eax,%eax)
     14e: f1                           	<unknown>
     14f: ff c1                        	incl	%ecx
     151: 00 00                        	addb	%al, (%eax)
     153: 00 00                        	addb	%al, (%eax)
     155: 00 00                        	addb	%al, (%eax)
     157: 00 03                        	addb	%al, (%ebx)
     159: 00 00                        	addb	%al, (%eax)
     15b: 00 01                        	addb	%al, (%ecx)
     15d: 00 03                        	addb	%al, (%ebx)
     15f: 00 3a                        	addb	%bh, (%edx)
     161: 00 00                        	addb	%al, (%eax)
     163: 00 03                        	addb	%al, (%ebx)
     165: 00 00                        	addb	%al, (%eax)
     167: 00 03                        	addb	%al, (%ebx)
     169: 00 00                        	addb	%al, (%eax)
     16b: 00 01                        	addb	%al, (%ecx)
     16d: 00 03                        	addb	%al, (%ebx)
     16f: 00 40 00                     	addb	%al, (%eax)
     172: 00 00                        	addb	%al, (%eax)
     174: 06                           	pushl	%es
     175: 00 00                        	addb	%al, (%eax)
     177: 00 03                        	addb	%al, (%ebx)
     179: 00 00                        	addb	%al, (%eax)
     17b: 00 01                        	addb	%al, (%ecx)
     17d: 00 03                        	addb	%al, (%ebx)
     17f: 00 b7 00 00 00 09            	addb	%dh, 150994944(%edi)
     185: 00 00                        	addb	%al, (%eax)
     187: 00 03                        	addb	%al, (%ebx)
     189: 00 00                        	addb	%al, (%eax)
     18b: 00 01                        	addb	%al, (%ecx)
     18d: 00 03                        	addb	%al, (%ebx)
     18f: 00 5d 00                     	addb	%bl, (%ebp)
     192: 00 00                        	addb	%al, (%eax)
     194: 0c 00                        	orb	$0, %al
     196: 00 00                        	addb	%al, (%eax)
     198: 03 00                        	addl	(%eax), %eax
     19a: 00 00                        	addb	%al, (%eax)
     19c: 01 00                        	addl	%eax, (%eax)
     19e: 03 00                        	addl	(%eax), %eax
     1a0: 44                           	incl	%esp
     1a1: 00 00                        	addb	%al, (%eax)
     1a3: 00 0f                        	addb	%cl, (%edi)
     1a5: 00 00                        	addb	%al, (%eax)
     1a7: 00 03                        	addb	%al, (%ebx)
     1a9: 00 00                        	addb	%al, (%eax)
     1ab: 00 01                        	addb	%al, (%ecx)
     1ad: 00 03                        	addb	%al, (%ebx)
     1af: 00 4b 00                     	addb	%cl, (%ebx)
     1b2: 00 00                        	addb	%al, (%eax)
     1b4: 12 00                        	adcb	(%eax), %al
     1b6: 00 00                        	addb	%al, (%eax)
     1b8: 03 00                        	addl	(%eax), %eax
     1ba: 00 00                        	addb	%al, (%eax)
     1bc: 01 00                        	addl	%eax, (%eax)
     1be: 03 00                        	addl	(%eax), %eax
     1c0: 52                           	pushl	%edx
     1c1: 00 00                        	addb	%al, (%eax)
     1c3: 00 15 00 00 00 03            	addb	%dl, 50331648
     1c9: 00 00                        	addb	%al, (%eax)
     1cb: 00 01                        	addb	%al, (%ecx)
     1cd: 00 03                        	addb	%al, (%ebx)
     1cf: 00 57 00                     	addb	%dl, (%edi)
     1d2: 00 00                        	addb	%al, (%eax)
     1d4: 18 00                        	sbbb	%al, (%eax)
     1d6: 00 00                        	addb	%al, (%eax)
     1d8: 03 00                        	addl	(%eax), %eax
     1da: 00 00                        	addb	%al, (%eax)
     1dc: 01 00                        	addl	%eax, (%eax)
     1de: 03 00                        	addl	(%eax), %eax
     1e0: 62 00                        	bound	%eax, (%eax)
		...
     1ea: 00 00                        	addb	%al, (%eax)
     1ec: 04 00                        	addb	$0, %al
     1ee: f1                           	<unknown>
     1ef: ff c1                        	incl	%ecx
     1f1: 00 00                        	addb	%al, (%eax)
     1f3: 00 20                        	addb	%ah, (%eax)
     1f5: 00 00                        	addb	%al, (%eax)
     1f7: 00 03                        	addb	%al, (%ebx)
     1f9: 00 00                        	addb	%al, (%eax)
     1fb: 00 01                        	addb	%al, (%ecx)
     1fd: 00 03                        	addb	%al, (%ebx)
     1ff: 00 3a                        	addb	%bh, (%edx)
     201: 00 00                        	addb	%al, (%eax)
     203: 00 23                        	addb	%ah, (%ebx)
     205: 00 00                        	addb	%al, (%eax)
     207: 00 03                        	addb	%al, (%ebx)
     209: 00 00                        	addb	%al, (%eax)
     20b: 00 01                        	addb	%al, (%ecx)
     20d: 00 03                        	addb	%al, (%ebx)
     20f: 00 40 00                     	addb	%al, (%eax)
     212: 00 00                        	addb	%al, (%eax)
     214: 26 00 00                     	addb	%al, %es:(%eax)
     217: 00 03                        	addb	%al, (%ebx)
     219: 00 00                        	addb	%al, (%eax)
     21b: 00 01                        	addb	%al, (%ecx)
     21d: 00 03                        	addb	%al, (%ebx)
     21f: 00 b7 00 00 00 29            	addb	%dh, 687865856(%edi)
     225: 00 00                        	addb	%al, (%eax)
     227: 00 03                        	addb	%al, (%ebx)
     229: 00 00                        	addb	%al, (%eax)
     22b: 00 01                        	addb	%al, (%ecx)
     22d: 00 03                        	addb	%al, (%ebx)
     22f: 00 5d 00                     	addb	%bl, (%ebp)
     232: 00 00                        	addb	%al, (%eax)
     234: 2c 00                        	subb	$0, %al
     236: 00 00                        	addb	%al, (%eax)
     238: 03 00                        	addl	(%eax), %eax
     23a: 00 00                        	addb	%al, (%eax)
     23c: 01 00                        	addl	%eax, (%eax)
     23e: 03 00                        	addl	(%eax), %eax
     240: 44                           	incl	%esp
     241: 00 00                        	addb	%al, (%eax)
     243: 00 2f                        	addb	%ch, (%edi)
     245: 00 00                        	addb	%al, (%eax)
     247: 00 03                        	addb	%al, (%ebx)
     249: 00 00                        	addb	%al, (%eax)
     24b: 00 01                        	addb	%al, (%ecx)
     24d: 00 03                        	addb	%al, (%ebx)
     24f: 00 4b 00                     	addb	%cl, (%ebx)
     252: 00 00                        	addb	%al, (%eax)
     254: 32 00                        	xorb	(%eax), %al
     256: 00 00                        	addb	%al, (%eax)
     258: 03 00                        	addl	(%eax), %eax
     25a: 00 00                        	addb	%al, (%eax)
     25c: 01 00                        	addl	%eax, (%eax)
     25e: 03 00                        	addl	(%eax), %eax
     260: 52                           	pushl	%edx
     261: 00 00                        	addb	%al, (%eax)
     263: 00 35 00 00 00 03            	addb	%dh, 50331648
     269: 00 00                        	addb	%al, (%eax)
     26b: 00 01                        	addb	%al, (%ecx)
     26d: 00 03                        	addb	%al, (%ebx)
     26f: 00 57 00                     	addb	%dl, (%edi)
     272: 00 00                        	addb	%al, (%eax)
     274: 38 00                        	cmpb	%al, (%eax)
     276: 00 00                        	addb	%al, (%eax)
     278: 03 00                        	addl	(%eax), %eax
     27a: 00 00                        	addb	%al, (%eax)
     27c: 01 00                        	addl	%eax, (%eax)
     27e: 03 00                        	addl	(%eax), %eax
     280: 69 00 00 00 3b 00            	imull	$3866624, (%eax), %eax  # imm = 0x3B0000
     286: 00 00                        	addb	%al, (%eax)
     288: 01 00                        	addl	%eax, (%eax)
     28a: 00 00                        	addb	%al, (%eax)
     28c: 01 00                        	addl	%eax, (%eax)
     28e: 03 00                        	addl	(%eax), %eax
     290: 7d 00                        	jge	0x292 <.symtab+0x292>
     292: 00 00                        	addb	%al, (%eax)
     294: 40                           	incl	%eax
     295: 00 00                        	addb	%al, (%eax)
     297: 00 00                        	addb	%al, (%eax)
     299: 04 00                        	addb	$0, %al
     29b: 00 01                        	addb	%al, (%ecx)
     29d: 00 03                        	addb	%al, (%ebx)
     29f: 00 82 00 00 00 00            	addb	%al, (%edx)
     2a5: 00 00                        	addb	%al, (%eax)
     2a7: 00 00                        	addb	%al, (%eax)
     2a9: 00 00                        	addb	%al, (%eax)
     2ab: 00 04 00                     	addb	%al, (%eax,%eax)
     2ae: f1                           	<unknown>
     2af: ff c1                        	incl	%ecx
     2b1: 00 00                        	addb	%al, (%eax)
     2b3: 00 40 04                     	addb	%al, 4(%eax)
     2b6: 00 00                        	addb	%al, (%eax)
     2b8: 03 00                        	addl	(%eax), %eax
     2ba: 00 00                        	addb	%al, (%eax)
     2bc: 01 00                        	addl	%eax, (%eax)
     2be: 03 00                        	addl	(%eax), %eax
     2c0: 3a 00                        	cmpb	(%eax), %al
     2c2: 00 00                        	addb	%al, (%eax)
     2c4: 43                           	incl	%ebx
     2c5: 04 00                        	addb	$0, %al
     2c7: 00 03                        	addb	%al, (%ebx)
     2c9: 00 00                        	addb	%al, (%eax)
     2cb: 00 01                        	addb	%al, (%ecx)
     2cd: 00 03                        	addb	%al, (%ebx)
     2cf: 00 40 00                     	addb	%al, (%eax)
     2d2: 00 00                        	addb	%al, (%eax)
     2d4: 46                           	incl	%esi
     2d5: 04 00                        	addb	$0, %al
     2d7: 00 03                        	addb	%al, (%ebx)
     2d9: 00 00                        	addb	%al, (%eax)
     2db: 00 01                        	addb	%al, (%ecx)
     2dd: 00 03                        	addb	%al, (%ebx)
     2df: 00 b7 00 00 00 49            	addb	%dh, 1224736768(%edi)
     2e5: 04 00                        	addb	$0, %al
     2e7: 00 03                        	addb	%al, (%ebx)
     2e9: 00 00                        	addb	%al, (%eax)
     2eb: 00 01                        	addb	%al, (%ecx)
     2ed: 00 03                        	addb	%al, (%ebx)
     2ef: 00 5d 00                     	addb	%bl, (%ebp)
     2f2: 00 00                        	addb	%al, (%eax)
     2f4: 4c                           	decl	%esp
     2f5: 04 00                        	addb	$0, %al
     2f7: 00 03                        	addb	%al, (%ebx)
     2f9: 00 00                        	addb	%al, (%eax)
     2fb: 00 01                        	addb	%al, (%ecx)
     2fd: 00 03                        	addb	%al, (%ebx)
     2ff: 00 44 00 00                  	addb	%al, (%eax,%eax)
     303: 00 4f 04                     	addb	%cl, 4(%edi)
     306: 00 00                        	addb	%al, (%eax)
     308: 03 00                        	addl	(%eax), %eax
     30a: 00 00                        	addb	%al, (%eax)
     30c: 01 00                        	addl	%eax, (%eax)
     30e: 03 00                        	addl	(%eax), %eax
     310: 4b                           	decl	%ebx
     311: 00 00                        	addb	%al, (%eax)
     313: 00 52 04                     	addb	%dl, 4(%edx)
     316: 00 00                        	addb	%al, (%eax)
     318: 03 00                        	addl	(%eax), %eax
     31a: 00 00                        	addb	%al, (%eax)
     31c: 01 00                        	addl	%eax, (%eax)
     31e: 03 00                        	addl	(%eax), %eax
     320: 52                           	pushl	%edx
     321: 00 00                        	addb	%al, (%eax)
     323: 00 55 04                     	addb	%dl, 4(%ebp)
     326: 00 00                        	addb	%al, (%eax)
     328: 03 00                        	addl	(%eax), %eax
     32a: 00 00                        	addb	%al, (%eax)
     32c: 01 00                        	addl	%eax, (%eax)
     32e: 03 00                        	addl	(%eax), %eax
     330: 57                           	pushl	%edi
     331: 00 00                        	addb	%al, (%eax)
     333: 00 58 04                     	addb	%bl, 4(%eax)
     336: 00 00                        	addb	%al, (%eax)
     338: 03 00                        	addl	(%eax), %eax
     33a: 00 00                        	addb	%al, (%eax)
     33c: 01 00                        	addl	%eax, (%eax)
     33e: 03 00                        	addl	(%eax), %eax
     340: 69 00 00 00 5b 04            	imull	$73072640, (%eax), %eax # imm = 0x45B0000
     346: 00 00                        	addb	%al, (%eax)
     348: 01 00                        	addl	%eax, (%eax)
     34a: 00 00                        	addb	%al, (%eax)
     34c: 01 00                        	addl	%eax, (%eax)
     34e: 03 00                        	addl	(%eax), %eax
     350: 8b 00                        	movl	(%eax), %eax
		...
     35a: 00 00                        	addb	%al, (%eax)
     35c: 04 00                        	addb	$0, %al
     35e: f1                           	<unknown>
     35f: ff 91 00 00 00 5c            	calll	*1543503872(%ecx)
     365: 04 00                        	addb	$0, %al
     367: 00 01                        	addb	%al, (%ecx)
     369: 00 00                        	addb	%al, (%eax)
     36b: 00 01                        	addb	%al, (%ecx)
     36d: 00 03                        	addb	%al, (%ebx)
     36f: 00 9b 00 00 00 5d            	addb	%bl, 1560281088(%ebx)
     375: 04 00                        	addb	$0, %al
     377: 00 01                        	addb	%al, (%ecx)
     379: 00 00                        	addb	%al, (%eax)
     37b: 00 01                        	addb	%al, (%ecx)
     37d: 00 03                        	addb	%al, (%ebx)
     37f: 00 a4 00 00 00 5e 04         	addb	%ah, 73269248(%eax,%eax)
     386: 00 00                        	addb	%al, (%eax)
     388: 01 00                        	addl	%eax, (%eax)
     38a: 00 00                        	addb	%al, (%eax)
     38c: 01 00                        	addl	%eax, (%eax)
     38e: 03 00                        	addl	(%eax), %eax
     390: ae                           	scasb	%es:(%edi), %al
     391: 00 00                        	addb	%al, (%eax)
     393: 00 5f 04                     	addb	%bl, 4(%edi)
     396: 00 00                        	addb	%al, (%eax)
     398: 01 00                        	addl	%eax, (%eax)
     39a: 00 00                        	addb	%al, (%eax)
     39c: 01 00                        	addl	%eax, (%eax)
     39e: 03 00                        	addl	(%eax), %eax
     3a0: bd 00 00 00 60               	movl	$1610612736, %ebp       # imm = 0x60000000
     3a5: 04 00                        	addb	$0, %al
     3a7: 00 01                        	addb	%al, (%ecx)
     3a9: 00 00                        	addb	%al, (%eax)
     3ab: 00 01                        	addb	%al, (%ecx)
     3ad: 00 03                        	addb	%al, (%ebx)
     3af: 00 c7                        	addb	%al, %bh
     3b1: 00 00                        	addb	%al, (%eax)
     3b3: 00 00                        	addb	%al, (%eax)
     3b5: 00 00                        	addb	%al, (%eax)
     3b7: 00 03                        	addb	%al, (%ebx)
     3b9: 00 00                        	addb	%al, (%eax)
     3bb: 00 01                        	addb	%al, (%ecx)
     3bd: 00 08                        	addb	%cl, (%eax)
     3bf: 00 d2                        	addb	%dl, %dl
		...
     3c9: 00 00                        	addb	%al, (%eax)
     3cb: 00 04 00                     	addb	%al, (%eax,%eax)
     3ce: f1                           	<unknown>
     3cf: ff 4d 01                     	decl	1(%ebp)
		...
     3da: 00 00                        	addb	%al, (%eax)
     3dc: 04 00                        	addb	$0, %al
     3de: f1                           	<unknown>
     3df: ff 91 00 00 00 7e            	calll	*2113929216(%ecx)
     3e5: 04 00                        	addb	$0, %al
     3e7: 00 01                        	addb	%al, (%ecx)
     3e9: 00 00                        	addb	%al, (%eax)
     3eb: 00 01                        	addb	%al, (%ecx)
     3ed: 00 03                        	addb	%al, (%ebx)
     3ef: 00 9b 00 00 00 7f            	addb	%bl, 2130706432(%ebx)
     3f5: 04 00                        	addb	$0, %al
     3f7: 00 01                        	addb	%al, (%ecx)
     3f9: 00 00                        	addb	%al, (%eax)
     3fb: 00 01                        	addb	%al, (%ecx)
     3fd: 00 03                        	addb	%al, (%ebx)
     3ff: 00 a4 00 00 00 80 04         	addb	%ah, 75497472(%eax,%eax)
     406: 00 00                        	addb	%al, (%eax)
     408: 01 00                        	addl	%eax, (%eax)
     40a: 00 00                        	addb	%al, (%eax)
     40c: 01 00                        	addl	%eax, (%eax)
     40e: 03 00                        	addl	(%eax), %eax
     410: ae                           	scasb	%es:(%edi), %al
     411: 00 00                        	addb	%al, (%eax)
     413: 00 81 04 00 00 01            	addb	%al, 16777220(%ecx)
     419: 00 00                        	addb	%al, (%eax)
     41b: 00 01                        	addb	%al, (%ecx)
     41d: 00 03                        	addb	%al, (%ebx)
     41f: 00 bd 00 00 00 82            	addb	%bh, -2113929216(%ebp)
     425: 04 00                        	addb	$0, %al
     427: 00 01                        	addb	%al, (%ecx)
     429: 00 00                        	addb	%al, (%eax)
     42b: 00 01                        	addb	%al, (%ecx)
     42d: 00 03                        	addb	%al, (%ebx)
     42f: 00 c7                        	addb	%al, %bh
     431: 00 00                        	addb	%al, (%eax)
     433: 00 03                        	addb	%al, (%ebx)
     435: 00 00                        	addb	%al, (%eax)
     437: 00 03                        	addb	%al, (%ebx)
     439: 00 00                        	addb	%al, (%eax)
     43b: 00 01                        	addb	%al, (%ecx)
     43d: 00 08                        	addb	%cl, (%eax)
     43f: 00 d8                        	addb	%bl, %al
     441: 00 00                        	addb	%al, (%eax)
     443: 00 b0 07 00 00 3e            	addb	%dh, 1040187399(%eax)
     449: 00 00                        	addb	%al, (%eax)
     44b: 00 02                        	addb	%al, (%edx)
     44d: 00 01                        	addb	%al, (%ecx)
     44f: 00 f1                        	addb	%dh, %cl
     451: 00 00                        	addb	%al, (%eax)
     453: 00 f0                        	addb	%dh, %al
     455: 07                           	popl	%es
     456: 00 00                        	addb	%al, (%eax)
     458: 12 00                        	adcb	(%eax), %al
     45a: 00 00                        	addb	%al, (%eax)
     45c: 02 00                        	addb	(%eax), %al
     45e: 01 00                        	addl	%eax, (%eax)
     460: 09 01                        	orl	%eax, (%ecx)
     462: 00 00                        	addb	%al, (%eax)
     464: c0 08 00                     	rorb	$0, (%eax)
     467: 00 21                        	addb	%ah, (%ecx)
     469: 00 00                        	addb	%al, (%eax)
     46b: 00 02                        	addb	%al, (%edx)
     46d: 00 01                        	addb	%al, (%ecx)
     46f: 00 23                        	addb	%ah, (%ebx)
     471: 01 00                        	addl	%eax, (%eax)
     473: 00 f0                        	addb	%dh, %al
     475: 08 00                        	orb	%al, (%eax)
     477: 00 15 00 00 00 02            	addb	%dl, 33554432
     47d: 00 01                        	addb	%al, (%ecx)
     47f: 00 37                        	addb	%dh, (%edi)
     481: 01 00                        	addl	%eax, (%eax)
     483: 00 10                        	addb	%dl, (%eax)
     485: 09 00                        	orl	%eax, (%eax)
     487: 00 96 00 00 00 02            	addb	%dl, 33554432(%esi)
     48d: 00 01                        	addb	%al, (%ecx)
     48f: 00 4c 01 00                  	addb	%cl, (%ecx,%eax)
		...
     49b: 00 04 00                     	addb	%al, (%eax,%eax)
     49e: f1                           	<unknown>
     49f: ff 91 00 00 00 83            	calll	*-2097152000(%ecx)
     4a5: 04 00                        	addb	$0, %al
     4a7: 00 01                        	addb	%al, (%ecx)
     4a9: 00 00                        	addb	%al, (%eax)
     4ab: 00 01                        	addb	%al, (%ecx)
     4ad: 00 03                        	addb	%al, (%ebx)
     4af: 00 9b 00 00 00 84            	addb	%bl, -2080374784(%ebx)
     4b5: 04 00                        	addb	$0, %al
     4b7: 00 01                        	addb	%al, (%ecx)
     4b9: 00 00                        	addb	%al, (%eax)
     4bb: 00 01                        	addb	%al, (%ecx)
     4bd: 00 03                        	addb	%al, (%ebx)
     4bf: 00 a4 00 00 00 85 04         	addb	%ah, 75825152(%eax,%eax)
     4c6: 00 00                        	addb	%al, (%eax)
     4c8: 01 00                        	addl	%eax, (%eax)
     4ca: 00 00                        	addb	%al, (%eax)
     4cc: 01 00                        	addl	%eax, (%eax)
     4ce: 03 00                        	addl	(%eax), %eax
     4d0: ae                           	scasb	%es:(%edi), %al
     4d1: 00 00                        	addb	%al, (%eax)
     4d3: 00 86 04 00 00 01            	addb	%al, 16777220(%esi)
     4d9: 00 00                        	addb	%al, (%eax)
     4db: 00 01                        	addb	%al, (%ecx)
     4dd: 00 03                        	addb	%al, (%ebx)
     4df: 00 bd 00 00 00 87            	addb	%bh, -2030043136(%ebp)
     4e5: 04 00                        	addb	$0, %al
     4e7: 00 01                        	addb	%al, (%ecx)
     4e9: 00 00                        	addb	%al, (%eax)
     4eb: 00 01                        	addb	%al, (%ecx)
     4ed: 00 03                        	addb	%al, (%ebx)
     4ef: 00 c7                        	addb	%al, %bh
     4f1: 00 00                        	addb	%al, (%eax)
     4f3: 00 06                        	addb	%al, (%esi)
     4f5: 00 00                        	addb	%al, (%eax)
     4f7: 00 03                        	addb	%al, (%ebx)
     4f9: 00 00                        	addb	%al, (%eax)
     4fb: 00 01                        	addb	%al, (%ecx)
     4fd: 00 08                        	addb	%cl, (%eax)
     4ff: 00 54 01 00                  	addb	%dl, (%ecx,%eax)
		...
     50b: 00 04 00                     	addb	%al, (%eax,%eax)
     50e: f1                           	<unknown>
     50f: ff 5d 01                     	lcalll	*1(%ebp)
		...
     51a: 00 00                        	addb	%al, (%eax)
     51c: 04 00                        	addb	$0, %al
     51e: f1                           	<unknown>
     51f: ff 66 01                     	jmpl	*1(%esi)
		...
     52a: 00 00                        	addb	%al, (%eax)
     52c: 04 00                        	addb	$0, %al
     52e: f1                           	<unknown>
     52f: ff 6e 01                     	ljmpl	*1(%esi)
		...
     53a: 00 00                        	addb	%al, (%eax)
     53c: 04 00                        	addb	$0, %al
     53e: f1                           	<unknown>
     53f: ff 91 00 00 00 b3            	calll	*-1291845632(%ecx)
     545: 04 00                        	addb	$0, %al
     547: 00 01                        	addb	%al, (%ecx)
     549: 00 00                        	addb	%al, (%eax)
     54b: 00 01                        	addb	%al, (%ecx)
     54d: 00 03                        	addb	%al, (%ebx)
     54f: 00 9b 00 00 00 b4            	addb	%bl, -1275068416(%ebx)
     555: 04 00                        	addb	$0, %al
     557: 00 01                        	addb	%al, (%ecx)
     559: 00 00                        	addb	%al, (%eax)
     55b: 00 01                        	addb	%al, (%ecx)
     55d: 00 03                        	addb	%al, (%ebx)
     55f: 00 a4 00 00 00 b5 04         	addb	%ah, 78970880(%eax,%eax)
     566: 00 00                        	addb	%al, (%eax)
     568: 01 00                        	addl	%eax, (%eax)
     56a: 00 00                        	addb	%al, (%eax)
     56c: 01 00                        	addl	%eax, (%eax)
     56e: 03 00                        	addl	(%eax), %eax
     570: ae                           	scasb	%es:(%edi), %al
     571: 00 00                        	addb	%al, (%eax)
     573: 00 b6 04 00 00 01            	addb	%dh, 16777220(%esi)
     579: 00 00                        	addb	%al, (%eax)
     57b: 00 01                        	addb	%al, (%ecx)
     57d: 00 03                        	addb	%al, (%ebx)
     57f: 00 bd 00 00 00 b7            	addb	%bh, -1224736768(%ebp)
     585: 04 00                        	addb	$0, %al
     587: 00 01                        	addb	%al, (%ecx)
     589: 00 00                        	addb	%al, (%eax)
     58b: 00 01                        	addb	%al, (%ecx)
     58d: 00 03                        	addb	%al, (%ebx)
     58f: 00 c7                        	addb	%al, %bh
     591: 00 00                        	addb	%al, (%eax)
     593: 00 09                        	addb	%cl, (%ecx)
     595: 00 00                        	addb	%al, (%eax)
     597: 00 03                        	addb	%al, (%ebx)
     599: 00 00                        	addb	%al, (%eax)
     59b: 00 01                        	addb	%al, (%ecx)
     59d: 00 08                        	addb	%cl, (%eax)
     59f: 00 74 01 00                  	addb	%dh, (%ecx,%eax)
		...
     5ab: 00 04 00                     	addb	%al, (%eax,%eax)
     5ae: f1                           	<unknown>
     5af: ff 7d 01                     	<unknown>
     5b2: 00 00                        	addb	%al, (%eax)
     5b4: 60                           	pushal
     5b5: 0e                           	pushl	%cs
     5b6: 00 00                        	addb	%al, (%eax)
     5b8: f8                           	clc
     5b9: 00 00                        	addb	%al, (%eax)
     5bb: 00 02                        	addb	%al, (%edx)
     5bd: 00 01                        	addb	%al, (%ecx)
     5bf: 00 91 00 00 00 cf            	addb	%dl, -822083584(%ecx)
     5c5: 04 00                        	addb	$0, %al
     5c7: 00 01                        	addb	%al, (%ecx)
     5c9: 00 00                        	addb	%al, (%eax)
     5cb: 00 01                        	addb	%al, (%ecx)
     5cd: 00 03                        	addb	%al, (%ebx)
     5cf: 00 9b 00 00 00 d0            	addb	%bl, -805306368(%ebx)
     5d5: 04 00                        	addb	$0, %al
     5d7: 00 01                        	addb	%al, (%ecx)
     5d9: 00 00                        	addb	%al, (%eax)
     5db: 00 01                        	addb	%al, (%ecx)
     5dd: 00 03                        	addb	%al, (%ebx)
     5df: 00 a4 00 00 00 d1 04         	addb	%ah, 80805888(%eax,%eax)
     5e6: 00 00                        	addb	%al, (%eax)
     5e8: 01 00                        	addl	%eax, (%eax)
     5ea: 00 00                        	addb	%al, (%eax)
     5ec: 01 00                        	addl	%eax, (%eax)
     5ee: 03 00                        	addl	(%eax), %eax
     5f0: ae                           	scasb	%es:(%edi), %al
     5f1: 00 00                        	addb	%al, (%eax)
     5f3: 00 d2                        	addb	%dl, %dl
     5f5: 04 00                        	addb	$0, %al
     5f7: 00 01                        	addb	%al, (%ecx)
     5f9: 00 00                        	addb	%al, (%eax)
     5fb: 00 01                        	addb	%al, (%ecx)
     5fd: 00 03                        	addb	%al, (%ebx)
     5ff: 00 bd 00 00 00 d3            	addb	%bh, -754974720(%ebp)
     605: 04 00                        	addb	$0, %al
     607: 00 01                        	addb	%al, (%ecx)
     609: 00 00                        	addb	%al, (%eax)
     60b: 00 01                        	addb	%al, (%ecx)
     60d: 00 03                        	addb	%al, (%ebx)
     60f: 00 c7                        	addb	%al, %bh
     611: 00 00                        	addb	%al, (%eax)
     613: 00 0c 00                     	addb	%cl, (%eax,%eax)
     616: 00 00                        	addb	%al, (%eax)
     618: 03 00                        	addl	(%eax), %eax
     61a: 00 00                        	addb	%al, (%eax)
     61c: 01 00                        	addl	%eax, (%eax)
     61e: 08 00                        	orb	%al, (%eax)
     620: 82 01 00                     	addb	$0, (%ecx)
     623: 00 60 0f                     	addb	%ah, 15(%eax)
     626: 00 00                        	addb	%al, (%eax)
     628: 03 00                        	addl	(%eax), %eax
     62a: 00 00                        	addb	%al, (%eax)
     62c: 02 00                        	addb	(%eax), %al
     62e: 01 00                        	addl	%eax, (%eax)
     630: 94                           	xchgl	%esp, %eax
     631: 01 00                        	addl	%eax, (%eax)
		...
     63b: 00 04 00                     	addb	%al, (%eax,%eax)
     63e: f1                           	<unknown>
     63f: ff ab 01 00 00 00            	ljmpl	*1(%ebx)
     645: 00 00                        	addb	%al, (%eax)
     647: 00 00                        	addb	%al, (%eax)
     649: 00 00                        	addb	%al, (%eax)
     64b: 00 04 00                     	addb	%al, (%eax,%eax)
     64e: f1                           	<unknown>
     64f: ff c0                        	incl	%eax
     651: 01 00                        	addl	%eax, (%eax)
     653: 00 d0                        	addb	%dl, %al
     655: 0a 00                        	orb	(%eax), %al
     657: 00 6c 00 00                  	addb	%ch, (%eax,%eax)
     65b: 00 12                        	addb	%dl, (%edx)
     65d: 00 01                        	addb	%al, (%ecx)
     65f: 00 cb                        	addb	%cl, %bl
     661: 01 00                        	addl	%eax, (%eax)
     663: 00 10                        	addb	%dl, (%eax)
     665: 08 00                        	orb	%al, (%eax)
     667: 00 08                        	addb	%cl, (%eax)
     669: 00 00                        	addb	%al, (%eax)
     66b: 00 11                        	addb	%dl, (%ecx)
     66d: 00 09                        	addb	%cl, (%ecx)
     66f: 00 dd                        	addb	%bl, %ch
     671: 01 00                        	addl	%eax, (%eax)
     673: 00 00                        	addb	%al, (%eax)
     675: 0e                           	pushl	%cs
     676: 00 00                        	addb	%al, (%eax)
     678: 1c 00                        	sbbb	$0, %al
     67a: 00 00                        	addb	%al, (%eax)
     67c: 12 00                        	adcb	(%eax), %al
     67e: 01 00                        	addl	%eax, (%eax)
     680: ef                           	outl	%eax, %dx
     681: 01 00                        	addl	%eax, (%eax)
     683: 00 08                        	addb	%cl, (%eax)
     685: 08 00                        	orb	%al, (%eax)
     687: 00 08                        	addb	%cl, (%eax)
     689: 00 00                        	addb	%al, (%eax)
     68b: 00 11                        	addb	%dl, (%ecx)
     68d: 00 09                        	addb	%cl, (%ecx)
     68f: 00 fb                        	addb	%bh, %bl
     691: 01 00                        	addl	%eax, (%eax)
     693: 00 80 0a 00 00 32            	addb	%al, 838860810(%eax)
     699: 00 00                        	addb	%al, (%eax)
     69b: 00 12                        	addb	%dl, (%edx)
     69d: 00 01                        	addb	%al, (%ecx)
     69f: 00 07                        	addb	%al, (%edi)
     6a1: 02 00                        	addb	(%eax), %al
     6a3: 00 b0 09 00 00 c6            	addb	%dh, -973078519(%eax)
     6a9: 00 00                        	addb	%al, (%eax)
     6ab: 00 12                        	addb	%dl, (%edx)
     6ad: 00 01                        	addb	%al, (%ecx)
     6af: 00 19                        	addb	%bl, (%ecx)
     6b1: 02 00                        	addb	(%eax), %al
     6b3: 00 1f                        	addb	%bl, (%edi)
     6b5: 00 00                        	addb	%al, (%eax)
     6b7: 00 00                        	addb	%al, (%eax)
     6b9: 00 00                        	addb	%al, (%eax)
     6bb: 00 10                        	addb	%dl, (%eax)
     6bd: 00 04 00                     	addb	%al, (%eax,%eax)
     6c0: 1e                           	pushl	%ds
     6c1: 02 00                        	addb	(%eax), %al
     6c3: 00 00                        	addb	%al, (%eax)
     6c5: 02 00                        	addb	(%eax), %al
     6c7: 00 02                        	addb	%al, (%edx)
     6c9: 00 00                        	addb	%al, (%eax)
     6cb: 00 12                        	addb	%dl, (%edx)
     6cd: 00 01                        	addb	%al, (%ecx)
     6cf: 00 2b                        	addb	%ch, (%ebx)
     6d1: 02 00                        	addb	(%eax), %al
     6d3: 00 10                        	addb	%dl, (%eax)
     6d5: 02 00                        	addb	(%eax), %al
     6d7: 00 ae 00 00 00 12            	addb	%ch, 301989888(%esi)
     6dd: 00 01                        	addb	%al, (%ecx)
     6df: 00 35 02 00 00 e0            	addb	%dh, -536870910
     6e5: 0d 00 00 18 00               	orl	$1572864, %eax          # imm = 0x180000
     6ea: 00 00                        	addb	%al, (%eax)
     6ec: 12 00                        	adcb	(%eax), %al
     6ee: 01 00                        	addl	%eax, (%eax)
     6f0: 3e 02 00                     	addb	%ds:(%eax), %al
     6f3: 00 20                        	addb	%ah, (%eax)
     6f5: 04 00                        	addb	$0, %al
     6f7: 00 71 00                     	addb	%dh, (%ecx)
     6fa: 00 00                        	addb	%al, (%eax)
     6fc: 12 00                        	adcb	(%eax), %al
     6fe: 01 00                        	addl	%eax, (%eax)
     700: 4a                           	decl	%edx
     701: 02 00                        	addb	(%eax), %al
     703: 00 0b                        	addb	%cl, (%ebx)
     705: 00 00                        	addb	%al, (%eax)
     707: 00 00                        	addb	%al, (%eax)
     709: 00 00                        	addb	%al, (%eax)
     70b: 00 10                        	addb	%dl, (%eax)
     70d: 00 04 00                     	addb	%al, (%eax,%eax)
     710: 51                           	pushl	%ecx
     711: 02 00                        	addb	(%eax), %al
     713: 00 20                        	addb	%ah, (%eax)
     715: 05 00 00 4f 00               	addl	$5177344, %eax          # imm = 0x4F0000
     71a: 00 00                        	addb	%al, (%eax)
     71c: 12 00                        	adcb	(%eax), %al
     71e: 01 00                        	addl	%eax, (%eax)
     720: 5c                           	popl	%esp
     721: 02 00                        	addb	(%eax), %al
     723: 00 a0 04 00 00 7b            	addb	%ah, 2063597572(%eax)
     729: 00 00                        	addb	%al, (%eax)
     72b: 00 12                        	addb	%dl, (%edx)
     72d: 00 01                        	addb	%al, (%ecx)
     72f: 00 68 02                     	addb	%ch, 2(%eax)
     732: 00 00                        	addb	%al, (%eax)
     734: c0 05 00 00 17 00 00         	rolb	$0, 1507328
     73b: 00 12                        	addb	%dl, (%edx)
     73d: 00 01                        	addb	%al, (%ecx)
     73f: 00 7d 02                     	addb	%bh, 2(%ebp)
     742: 00 00                        	addb	%al, (%eax)
     744: 30 06                        	xorb	%al, (%esi)
     746: 00 00                        	addb	%al, (%eax)
     748: 89 00                        	movl	%eax, (%eax)
     74a: 00 00                        	addb	%al, (%eax)
     74c: 12 00                        	adcb	(%eax), %al
     74e: 01 00                        	addl	%eax, (%eax)
     750: 86 02                        	xchgb	%al, (%edx)
     752: 00 00                        	addb	%al, (%eax)
     754: e0 05                        	loopne	0x75b <.symtab+0x75b>
     756: 00 00                        	addb	%al, (%eax)
     758: 50                           	pushl	%eax
     759: 00 00                        	addb	%al, (%eax)
     75b: 00 12                        	addb	%dl, (%edx)
     75d: 00 01                        	addb	%al, (%ecx)
     75f: 00 8e 02 00 00 90            	addb	%cl, -1879048190(%esi)
     765: 05 00 00 2c 00               	addl	$2883584, %eax          # imm = 0x2C0000
     76a: 00 00                        	addb	%al, (%eax)
     76c: 12 00                        	adcb	(%eax), %al
     76e: 01 00                        	addl	%eax, (%eax)
     770: 9d                           	popfl
     771: 02 00                        	addb	(%eax), %al
		...
     77b: 00 10                        	addb	%dl, (%eax)
     77d: 00 01                        	addb	%al, (%ecx)
     77f: 00 a4 02 00 00 10 03         	addb	%ah, 51380224(%edx,%eax)
     786: 00 00                        	addb	%al, (%eax)
     788: 0f 00 00                     	sldtw	(%eax)
     78b: 00 12                        	addb	%dl, (%edx)
     78d: 00 01                        	addb	%al, (%ecx)
     78f: 00 b1 02 00 00 20            	addb	%dh, 536870914(%ecx)
     795: 0e                           	pushl	%cs
     796: 00 00                        	addb	%al, (%eax)
     798: 34 00                        	xorb	$0, %al
     79a: 00 00                        	addb	%al, (%eax)
     79c: 12 00                        	adcb	(%eax), %al
     79e: 01 00                        	addl	%eax, (%eax)
     7a0: c2 02 00                     	retl	$2
     7a3: 00 36                        	addb	%dh, (%esi)
     7a5: 00 00                        	addb	%al, (%eax)
     7a7: 00 00                        	addb	%al, (%eax)
     7a9: 00 00                        	addb	%al, (%eax)
     7ab: 00 10                        	addb	%dl, (%eax)
     7ad: 00 04 00                     	addb	%al, (%eax,%eax)
     7b0: c7 02 00 00 10 08            	movl	$135266304, (%edx)      # imm = 0x8100000
     7b6: 00 00                        	addb	%al, (%eax)
     7b8: ae                           	scasb	%es:(%edi), %al
     7b9: 00 00                        	addb	%al, (%eax)
     7bb: 00 12                        	addb	%dl, (%edx)
     7bd: 00 01                        	addb	%al, (%ecx)
     7bf: 00 d3                        	addb	%dl, %bl
     7c1: 02 00                        	addb	(%eax), %al
     7c3: 00 70 05                     	addb	%dh, 5(%eax)
     7c6: 00 00                        	addb	%al, (%eax)
     7c8: 1d 00 00 00 12               	sbbl	$301989888, %eax        # imm = 0x12000000
     7cd: 00 01                        	addb	%al, (%ecx)
     7cf: 00 dc                        	addb	%bl, %ah
     7d1: 02 00                        	addb	(%eax), %al
     7d3: 00 40 0b                     	addb	%al, 11(%eax)
     7d6: 00 00                        	addb	%al, (%eax)
     7d8: 3c 00                        	cmpb	$0, %al
     7da: 00 00                        	addb	%al, (%eax)
     7dc: 12 00                        	adcb	(%eax), %al
     7de: 01 00                        	addl	%eax, (%eax)
     7e0: e3 02                        	jecxz	0x7e4 <.symtab+0x7e4>
		...
     7ea: 00 00                        	addb	%al, (%eax)
     7ec: 10 00                        	adcb	%al, (%eax)
     7ee: 04 00                        	addb	$0, %al
     7f0: ec                           	inb	%dx, %al
     7f1: 02 00                        	addb	(%eax), %al
     7f3: 00 70 0f                     	addb	%dh, 15(%eax)
     7f6: 00 00                        	addb	%al, (%eax)
     7f8: 4a                           	decl	%edx
     7f9: 00 00                        	addb	%al, (%eax)
     7fb: 00 12                        	addb	%dl, (%edx)
     7fd: 00 01                        	addb	%al, (%ecx)
     7ff: 00 f9                        	addb	%bh, %cl
     801: 02 00                        	addb	(%eax), %al
     803: 00 c0                        	addb	%al, %al
     805: 02 00                        	addb	(%eax), %al
     807: 00 4d 00                     	addb	%cl, (%ebp)
     80a: 00 00                        	addb	%al, (%eax)
     80c: 12 00                        	adcb	(%eax), %al
     80e: 01 00                        	addl	%eax, (%eax)
     810: 02 03                        	addb	(%ebx), %al
     812: 00 00                        	addb	%al, (%eax)
     814: 00 00                        	addb	%al, (%eax)
     816: 00 00                        	addb	%al, (%eax)
     818: 00 08                        	addb	%cl, (%eax)
     81a: 00 00                        	addb	%al, (%eax)
     81c: 11 00                        	adcl	%eax, (%eax)
     81e: 09 00                        	orl	%eax, (%eax)
     820: 12 03                        	adcb	(%ebx), %al
     822: 00 00                        	addb	%al, (%eax)
     824: b0 0b                        	movb	$11, %al
     826: 00 00                        	addb	%al, (%eax)
     828: 2c 00                        	subb	$0, %al
     82a: 00 00                        	addb	%al, (%eax)
     82c: 12 00                        	adcb	(%eax), %al
     82e: 01 00                        	addl	%eax, (%eax)
     830: 21 03                        	andl	%eax, (%ebx)
     832: 00 00                        	addb	%al, (%eax)
     834: e0 0b                        	loopne	0x841 <.symtab+0x841>
     836: 00 00                        	addb	%al, (%eax)
     838: 66 00 00                     	addb	%al, (%eax)
     83b: 00 12                        	addb	%dl, (%edx)
     83d: 00 01                        	addb	%al, (%ecx)
     83f: 00 2b                        	addb	%ch, (%ebx)
     841: 03 00                        	addl	(%eax), %eax
     843: 00 c0                        	addb	%al, %al
     845: 0a 00                        	orb	(%eax), %al
     847: 00 06                        	addb	%al, (%esi)
     849: 00 00                        	addb	%al, (%eax)
     84b: 00 12                        	addb	%dl, (%edx)
     84d: 00 01                        	addb	%al, (%ecx)
     84f: 00 35 03 00 00 a0            	addb	%dh, -1610612733
     855: 07                           	popl	%es
     856: 00 00                        	addb	%al, (%eax)
     858: 0d 00 00 00 12               	orl	$301989888, %eax        # imm = 0x12000000
     85d: 00 01                        	addb	%al, (%ecx)
     85f: 00 3e                        	addb	%bh, (%esi)
     861: 03 00                        	addl	(%eax), %eax
     863: 00 c0                        	addb	%al, %al
     865: 06                           	pushl	%es
     866: 00 00                        	addb	%al, (%eax)
     868: da 00                        	fiaddl	(%eax)
     86a: 00 00                        	addb	%al, (%eax)
     86c: 12 00                        	adcb	(%eax), %al
     86e: 01 00                        	addl	%eax, (%eax)
     870: 48                           	decl	%eax
     871: 03 00                        	addl	(%eax), %eax
     873: 00 20                        	addb	%ah, (%eax)
     875: 03 00                        	addl	(%eax), %eax
     877: 00 f2                        	addb	%dh, %dl
     879: 00 00                        	addb	%al, (%eax)
     87b: 00 12                        	addb	%dl, (%edx)
     87d: 00 01                        	addb	%al, (%ecx)
     87f: 00 5d 03                     	addb	%bl, 3(%ebp)
     882: 00 00                        	addb	%al, (%eax)
     884: 42                           	incl	%edx
     885: 00 00                        	addb	%al, (%eax)
     887: 00 00                        	addb	%al, (%eax)
     889: 00 00                        	addb	%al, (%eax)
     88b: 00 10                        	addb	%dl, (%eax)
     88d: 00 04 00                     	addb	%al, (%eax,%eax)
     890: 62 03                        	bound	%eax, (%ebx)
     892: 00 00                        	addb	%al, (%eax)
     894: 90                           	nop
     895: 0d 00 00 19 00               	orl	$1638400, %eax          # imm = 0x190000
     89a: 00 00                        	addb	%al, (%eax)
     89c: 12 00                        	adcb	(%eax), %al
     89e: 01 00                        	addl	%eax, (%eax)
     8a0: 75 03                        	jne	0x8a5 <.symtab+0x8a5>
     8a2: 00 00                        	addb	%al, (%eax)
     8a4: 50                           	pushl	%eax
     8a5: 0c 00                        	orb	$0, %al
     8a7: 00 c3                        	addb	%al, %bl
     8a9: 00 00                        	addb	%al, (%eax)
     8ab: 00 12                        	addb	%dl, (%edx)
     8ad: 00 01                        	addb	%al, (%ecx)
     8af: 00 82 03 00 00 2a            	addb	%al, 704643075(%edx)
     8b5: 00 00                        	addb	%al, (%eax)
     8b7: 00 00                        	addb	%al, (%eax)
     8b9: 00 00                        	addb	%al, (%eax)
     8bb: 00 10                        	addb	%dl, (%eax)
     8bd: 00 04 00                     	addb	%al, (%eax,%eax)
     8c0: 87 03                        	xchgl	%eax, (%ebx)
     8c2: 00 00                        	addb	%al, (%eax)
     8c4: 80 0b 00                     	orb	$0, (%ebx)
     8c7: 00 2b                        	addb	%ch, (%ebx)
     8c9: 00 00                        	addb	%al, (%eax)
     8cb: 00 12                        	addb	%dl, (%edx)
     8cd: 00 01                        	addb	%al, (%ecx)
     8cf: 00 8e 03 00 00 20            	addb	%cl, 536870915(%esi)
     8d5: 0d 00 00 64 00               	orl	$6553600, %eax          # imm = 0x640000
     8da: 00 00                        	addb	%al, (%eax)
     8dc: 12 00                        	adcb	(%eax), %al
     8de: 01 00                        	addl	%eax, (%eax)
     8e0: 98                           	cwtl
     8e1: 03 00                        	addl	(%eax), %eax
     8e3: 00 18                        	addb	%bl, (%eax)
     8e5: 08 00                        	orb	%al, (%eax)
     8e7: 00 04 00                     	addb	%al, (%eax,%eax)
     8ea: 00 00                        	addb	%al, (%eax)
     8ec: 11 00                        	adcl	%eax, (%eax)
     8ee: 09 00                        	orl	%eax, (%eax)
     8f0: a5                           	movsl	(%esi), %es:(%edi)
     8f1: 03 00                        	addl	(%eax), %eax
     8f3: 00 b0 0d 00 00 26            	addb	%dh, 637534221(%eax)
     8f9: 00 00                        	addb	%al, (%eax)
     8fb: 00 12                        	addb	%dl, (%edx)
     8fd: 00 01                        	addb	%al, (%ecx)
     8ff: 00 bd 03 00 00 15            	addb	%bh, 352321539(%ebp)
     905: 00 00                        	addb	%al, (%eax)
     907: 00 00                        	addb	%al, (%eax)
     909: 00 00                        	addb	%al, (%eax)
     90b: 00 10                        	addb	%dl, (%eax)
     90d: 00 04 00                     	addb	%al, (%eax,%eax)
     910: ca 03 00                     	lretl	$3
     913: 00 00                        	addb	%al, (%eax)
     915: 08 00                        	orb	%al, (%eax)
     917: 00 06                        	addb	%al, (%esi)
     919: 00 00                        	addb	%al, (%eax)
     91b: 00 11                        	addb	%dl, (%ecx)
     91d: 00 09                        	addb	%cl, (%ecx)
     91f: 00                           	<unknown>

Disassembly of section .strtab:

00000000 <.strtab>:
       0: 00 73 72                     	addb	%dh, 114(%ebx)
       3: 63 2f                        	arpl	%bp, (%edi)
       5: 6b 65 72 6e                  	imull	$110, 114(%ebp), %esp
       9: 65 6c                        	insb	%dx, %es:(%edi)
       b: 2f                           	das
       c: 6b 65 72 6e                  	imull	$110, 114(%ebp), %esp
      10: 65 6c                        	insb	%dx, %es:(%edi)
      12: 2e 61                        	popal
      14: 73 6d                        	jae	0x83 <.strtab+0x83>
      16: 00 64 61 74                  	addb	%ah, 116(%ecx,%eiz,2)
      1a: 61                           	popal
      1b: 73 65                        	jae	0x82 <.strtab+0x82>
      1d: 67 00 72 65                  	addb	%dh, 101(%bp,%si)
      21: 6d                           	insl	%dx, %es:(%edi)
      22: 61                           	popal
      23: 70 5f                        	jo	0x84 <.strtab+0x84>
      25: 6d                           	insl	%dx, %es:(%edi)
      26: 61                           	popal
      27: 73 74                        	jae	0x9d <.strtab+0x9d>
      29: 65 72 5f                     	jb	0x8b <.strtab+0x8b>
      2c: 70 69                        	jo	0x97 <.strtab+0x97>
      2e: 63 00                        	arpl	%ax, (%eax)
      30: 63 6f 6c                     	arpl	%bp, 108(%edi)
      33: 6f                           	outsl	(%esi), %dx
      34: 75 72                        	jne	0xa8 <.strtab+0xa8>
      36: 73 2e                        	jae	0x66 <.strtab+0x66>
      38: 63 00                        	arpl	%ax, (%eax)
      3a: 42                           	incl	%edx
      3b: 4c                           	decl	%esp
      3c: 41                           	incl	%ecx
      3d: 43                           	incl	%ebx
      3e: 4b                           	decl	%ebx
      3f: 00 52 45                     	addb	%dl, 69(%edx)
      42: 44                           	incl	%esp
      43: 00 59 45                     	addb	%bl, 69(%ecx)
      46: 4c                           	decl	%esp
      47: 4c                           	decl	%esp
      48: 4f                           	decl	%edi
      49: 57                           	pushl	%edi
      4a: 00 50 55                     	addb	%dl, 85(%eax)
      4d: 52                           	pushl	%edx
      4e: 50                           	pushl	%eax
      4f: 4c                           	decl	%esp
      50: 45                           	incl	%ebp
      51: 00 50 49                     	addb	%dl, 73(%eax)
      54: 4e                           	decl	%esi
      55: 4b                           	decl	%ebx
      56: 00 4c 49 47                  	addb	%cl, 71(%ecx,%ecx,2)
      5a: 48                           	decl	%eax
      5b: 54                           	pushl	%esp
      5c: 5f                           	popl	%edi
      5d: 42                           	incl	%edx
      5e: 4c                           	decl	%esp
      5f: 55                           	pushl	%ebp
      60: 45                           	incl	%ebp
      61: 00 66 6f                     	addb	%ah, 111(%esi)
      64: 6e                           	outsb	(%esi), %dx
      65: 74 2e                        	je	0x95 <.strtab+0x95>
      67: 63 00                        	arpl	%ax, (%eax)
      69: 53                           	pushl	%ebx
      6a: 43                           	incl	%ebx
      6b: 52                           	pushl	%edx
      6c: 45                           	incl	%ebp
      6d: 45                           	incl	%ebp
      6e: 4e                           	decl	%esi
      6f: 5f                           	popl	%edi
      70: 50                           	pushl	%eax
      71: 41                           	incl	%ecx
      72: 4c                           	decl	%esp
      73: 45                           	incl	%ebp
      74: 54                           	pushl	%esp
      75: 54                           	pushl	%esp
      76: 45                           	incl	%ebp
      77: 5f                           	popl	%edi
      78: 53                           	pushl	%ebx
      79: 49                           	decl	%ecx
      7a: 5a                           	popl	%edx
      7b: 45                           	incl	%ebp
      7c: 00 46 4f                     	addb	%al, 79(%esi)
      7f: 4e                           	decl	%esi
      80: 54                           	pushl	%esp
      81: 00 73 63                     	addb	%dh, 99(%ebx)
      84: 72 65                        	jb	0xeb <.strtab+0xeb>
      86: 65 6e                        	outsb	%gs:(%esi), %dx
      88: 2e 63 00                     	arpl	%ax, %cs:(%eax)
      8b: 69 64 74 2e 63 00 54 54      	imull	$1414791267, 46(%esp,%esi,2), %esp # imm = 0x54540063
      93: 59                           	popl	%ecx
      94: 5f                           	popl	%edi
      95: 43                           	incl	%ebx
      96: 4c                           	decl	%esp
      97: 45                           	incl	%ebp
      98: 41                           	incl	%ecx
      99: 52                           	pushl	%edx
      9a: 00 54 54 59                  	addb	%dl, 89(%esp,%edx,2)
      9e: 5f                           	popl	%edi
      9f: 42                           	incl	%edx
      a0: 4c                           	decl	%esp
      a1: 55                           	pushl	%ebp
      a2: 45                           	incl	%ebp
      a3: 00 54 54 59                  	addb	%dl, 89(%esp,%edx,2)
      a7: 5f                           	popl	%edi
      a8: 47                           	incl	%edi
      a9: 52                           	pushl	%edx
      aa: 45                           	incl	%ebp
      ab: 45                           	incl	%ebp
      ac: 4e                           	decl	%esi
      ad: 00 54 54 59                  	addb	%dl, 89(%esp,%edx,2)
      b1: 5f                           	popl	%edi
      b2: 42                           	incl	%edx
      b3: 4c                           	decl	%esp
      b4: 55                           	pushl	%ebp
      b5: 45                           	incl	%ebp
      b6: 5f                           	popl	%edi
      b7: 47                           	incl	%edi
      b8: 52                           	pushl	%edx
      b9: 45                           	incl	%ebp
      ba: 45                           	incl	%ebp
      bb: 4e                           	decl	%esi
      bc: 00 54 54 59                  	addb	%dl, 89(%esp,%edx,2)
      c0: 5f                           	popl	%edi
      c1: 57                           	pushl	%edi
      c2: 48                           	decl	%eax
      c3: 49                           	decl	%ecx
      c4: 54                           	pushl	%esp
      c5: 45                           	incl	%ebp
      c6: 00 44 65 66                  	addb	%al, 102(%ebp,%eiz,2)
      ca: 61                           	popal
      cb: 75 6c                        	jne	0x139 <.strtab+0x139>
      cd: 74 54                        	je	0x123 <.strtab+0x123>
      cf: 54                           	pushl	%esp
      d0: 59                           	popl	%ecx
      d1: 00 69 72                     	addb	%ch, 114(%ecx)
      d4: 71 2e                        	jno	0x104 <.strtab+0x104>
      d6: 63 00                        	arpl	%ax, (%eax)
      d8: 68 65 61 70 5f               	pushl	$1601200485             # imm = 0x5F706165
      dd: 76 61                        	jbe	0x140 <.strtab+0x140>
      df: 6c                           	insb	%dx, %es:(%edi)
      e0: 69 64 61 74 65 5f 68 65      	imull	$1701338981, 116(%ecx,%eiz,2), %esp # imm = 0x65685F65
      e8: 61                           	popal
      e9: 70 5f                        	jo	0x14a <.strtab+0x14a>
      eb: 74 61                        	je	0x14e <.strtab+0x14e>
      ed: 62 6c 65 00                  	bound	%ebp, (%ebp,%eiz,2)
      f1: 68 65 61 70 5f               	pushl	$1601200485             # imm = 0x5F706165
      f6: 76 61                        	jbe	0x159 <.strtab+0x159>
      f8: 6c                           	insb	%dx, %es:(%edi)
      f9: 69 64 61 74 65 5f 61 6c      	imull	$1818320741, 116(%ecx,%eiz,2), %esp # imm = 0x6C615F65
     101: 69 67 6e 6d 65 6e 74         	imull	$1953391981, 110(%edi), %esp # imm = 0x746E656D
     108: 00 68 65                     	addb	%ch, 101(%eax)
     10b: 61                           	popal
     10c: 70 5f                        	jo	0x16d <.strtab+0x16d>
     10e: 61                           	popal
     10f: 6c                           	insb	%dx, %es:(%edi)
     110: 69 67 6e 5f 76 61 6c         	imull	$1818326623, 110(%edi), %esp # imm = 0x6C61765F
     117: 75 65                        	jne	0x17e <.strtab+0x17e>
     119: 5f                           	popl	%edi
     11a: 74 6f                        	je	0x18b <.strtab+0x18b>
     11c: 5f                           	popl	%edi
     11d: 75 70                        	jne	0x18f <.strtab+0x18f>
     11f: 70 65                        	jo	0x186 <.strtab+0x186>
     121: 72 00                        	jb	0x123 <.strtab+0x123>
     123: 68 65 61 70 5f               	pushl	$1601200485             # imm = 0x5F706165
     128: 67 65 74 5f                  	je	0x18b <.strtab+0x18b>
     12c: 65 6e                        	outsb	%gs:(%esi), %dx
     12e: 74 72                        	je	0x1a2 <.strtab+0x1a2>
     130: 79 5f                        	jns	0x191 <.strtab+0x191>
     132: 74 79                        	je	0x1ad <.strtab+0x1ad>
     134: 70 65                        	jo	0x19b <.strtab+0x19b>
     136: 00 68 65                     	addb	%ch, 101(%eax)
     139: 61                           	popal
     13a: 70 5f                        	jo	0x19b <.strtab+0x19b>
     13c: 67 65 74 5f                  	je	0x19f <.strtab+0x19f>
     140: 73 74                        	jae	0x1b6 <.strtab+0x1b6>
     142: 61                           	popal
     143: 72 74                        	jb	0x1b9 <.strtab+0x1b9>
     145: 5f                           	popl	%edi
     146: 62 6c 6f 63                  	bound	%ebp, 99(%edi,%ebp,2)
     14a: 6b 00 6b                     	imull	$107, (%eax), %eax
     14d: 68 65 61 70 2e               	pushl	$779116901              # imm = 0x2E706165
     152: 63 00                        	arpl	%ax, (%eax)
     154: 6d                           	insl	%dx, %es:(%edi)
     155: 65 6d                        	insl	%dx, %es:(%edi)
     157: 6f                           	outsl	(%esi), %dx
     158: 72 79                        	jb	0x1d3 <.strtab+0x1d3>
     15a: 2e 63 00                     	arpl	%ax, %cs:(%eax)
     15d: 73 74                        	jae	0x1d3 <.strtab+0x1d3>
     15f: 72 69                        	jb	0x1ca <.strtab+0x1ca>
     161: 6e                           	outsb	(%esi), %dx
     162: 67 2e 63 00                  	arpl	%ax, %cs:(%bx,%si)
     166: 74 69                        	je	0x1d1 <.strtab+0x1d1>
     168: 6d                           	insl	%dx, %es:(%edi)
     169: 65 72 2e                     	jb	0x19a <.strtab+0x19a>
     16c: 63 00                        	arpl	%ax, (%eax)
     16e: 74 74                        	je	0x1e4 <.strtab+0x1e4>
     170: 79 2e                        	jns	0x1a0 <.strtab+0x1a0>
     172: 63 00                        	arpl	%ax, (%eax)
     174: 6b 65 72 6e                  	imull	$110, 114(%ebp), %esp
     178: 65 6c                        	insb	%dx, %es:(%edi)
     17a: 2e 63 00                     	arpl	%ax, %cs:(%eax)
     17d: 69 74 6f 61 00 65 6e 61      	imull	$1634624768, 97(%edi,%ebp,2), %esi # imm = 0x616E6500
     185: 62 6c 65 5f                  	bound	%ebp, 95(%ebp,%eiz,2)
     189: 69 6e 74 65 72 72 75         	imull	$1970434661, 116(%esi), %ebp # imm = 0x75727265
     190: 70 74                        	jo	0x206 <.strtab+0x206>
     192: 73 00                        	jae	0x194 <.strtab+0x194>
     194: 73 72                        	jae	0x208 <.strtab+0x208>
     196: 63 2f                        	arpl	%bp, (%edi)
     198: 6b 65 72 6e                  	imull	$110, 114(%ebp), %esp
     19c: 65 6c                        	insb	%dx, %es:(%edi)
     19e: 2f                           	das
     19f: 69 64 74 2f 69 64 74 2e      	imull	$779379817, 47(%esp,%esi,2), %esp # imm = 0x2E746469
     1a7: 61                           	popal
     1a8: 73 6d                        	jae	0x217 <.strtab+0x217>
     1aa: 00 73 72                     	addb	%dh, 114(%ebx)
     1ad: 63 2f                        	arpl	%bp, (%edi)
     1af: 6b 65 72 6e                  	imull	$110, 114(%ebp), %esp
     1b3: 65 6c                        	insb	%dx, %es:(%edi)
     1b5: 2f                           	das
     1b6: 69 6f 2f 69 6f 2e 61         	imull	$1630433129, 47(%edi), %ebp # imm = 0x612E6F69
     1bd: 73 6d                        	jae	0x22c <.strtab+0x22c>
     1bf: 00 6b 68                     	addb	%ch, 104(%ebx)
     1c2: 65 61                        	popal
     1c4: 70 5f                        	jo	0x225 <.strtab+0x225>
     1c6: 69 6e 69 74 00 6b 65         	imull	$1701511284, 105(%esi), %ebp # imm = 0x656B0074
     1cd: 72 6e                        	jb	0x23d <.strtab+0x23d>
     1cf: 65 6c                        	insb	%dx, %es:(%edi)
     1d1: 5f                           	popl	%edi
     1d2: 68 65 61 70 5f               	pushl	$1601200485             # imm = 0x5F706165
     1d7: 74 61                        	je	0x23a <.strtab+0x23a>
     1d9: 62 6c 65 00                  	bound	%ebp, (%ebp,%eiz,2)
     1dd: 74 74                        	je	0x253 <.strtab+0x253>
     1df: 79 5f                        	jns	0x240 <.strtab+0x240>
     1e1: 70 72                        	jo	0x255 <.strtab+0x255>
     1e3: 69 6e 74 5f 64 65 66         	imull	$1717920863, 116(%esi), %ebp # imm = 0x6665645F
     1ea: 61                           	popal
     1eb: 75 6c                        	jne	0x259 <.strtab+0x259>
     1ed: 74 00                        	je	0x1ef <.strtab+0x1ef>
     1ef: 6b 65 72 6e                  	imull	$110, 114(%ebp), %esp
     1f3: 65 6c                        	insb	%dx, %es:(%edi)
     1f5: 5f                           	popl	%edi
     1f6: 68 65 61 70 00               	pushl	$7364965                # imm = 0x706165
     1fb: 68 65 61 70 5f               	pushl	$1601200485             # imm = 0x5F706165
     200: 6d                           	insl	%dx, %es:(%edi)
     201: 61                           	popal
     202: 6c                           	insb	%dx, %es:(%edi)
     203: 6c                           	insb	%dx, %es:(%edi)
     204: 6f                           	outsl	(%esi), %dx
     205: 63 00                        	arpl	%ax, (%eax)
     207: 68 65 61 70 5f               	pushl	$1601200485             # imm = 0x5F706165
     20c: 6d                           	insl	%dx, %es:(%edi)
     20d: 61                           	popal
     20e: 6c                           	insb	%dx, %es:(%edi)
     20f: 6c                           	insb	%dx, %es:(%edi)
     210: 6f                           	outsl	(%esi), %dx
     211: 63 5f 62                     	arpl	%bx, 98(%edi)
     214: 6c                           	insb	%dx, %es:(%edi)
     215: 6f                           	outsl	(%esi), %dx
     216: 63 6b 00                     	arpl	%bp, (%ebx)
     219: 69 6e 73 62 00 69 6e         	imull	$1852375138, 115(%esi), %ebp # imm = 0x6E690062
     220: 69 74 5f 63 6f 6c 6f 75      	imull	$1970236527, 99(%edi,%ebx,2), %esi # imm = 0x756F6C6F
     228: 72 73                        	jb	0x29d <.strtab+0x29d>
     22a: 00 66 6f                     	addb	%ah, 111(%esi)
     22d: 6e                           	outsb	(%esi), %dx
     22e: 74 5f                        	je	0x28f <.strtab+0x28f>
     230: 63 68 61                     	arpl	%bp, 97(%eax)
     233: 72 00                        	jb	0x235 <.strtab+0x235>
     235: 74 74                        	je	0x2ab <.strtab+0x2ab>
     237: 79 5f                        	jns	0x298 <.strtab+0x298>
     239: 69 6e 69 74 00 70 61         	imull	$1634730100, 105(%esi), %ebp # imm = 0x61700074
     240: 6c                           	insb	%dx, %es:(%edi)
     241: 6c                           	insb	%dx, %es:(%edi)
     242: 65 74 65                     	je	0x2aa <.strtab+0x2aa>
     245: 5f                           	popl	%edi
     246: 73 65                        	jae	0x2ad <.strtab+0x2ad>
     248: 74 00                        	je	0x24a <.strtab+0x24a>
     24a: 69 6e 74 32 30 68 00         	imull	$6828082, 116(%esi), %ebp # imm = 0x683032
     251: 73 63                        	jae	0x2b6 <.strtab+0x2b6>
     253: 72 65                        	jb	0x2ba <.strtab+0x2ba>
     255: 65 6e                        	outsb	%gs:(%esi), %dx
     257: 5f                           	popl	%edi
     258: 73 65                        	jae	0x2bf <.strtab+0x2bf>
     25a: 74 00                        	je	0x25c <.strtab+0x25c>
     25c: 69 6e 69 74 5f 73 63         	imull	$1668505460, 105(%esi), %ebp # imm = 0x63735F74
     263: 72 65                        	jb	0x2ca <.strtab+0x2ca>
     265: 65 6e                        	outsb	%gs:(%esi), %dx
     267: 00 6e 6f                     	addb	%ch, 111(%esi)
     26a: 5f                           	popl	%edi
     26b: 69 6e 74 65 72 72 75         	imull	$1970434661, 116(%esi), %ebp # imm = 0x75727265
     272: 70 74                        	jo	0x2e8 <.strtab+0x2e8>
     274: 5f                           	popl	%edi
     275: 68 61 6e 64 6c               	pushl	$1818521185             # imm = 0x6C646E61
     27a: 65 72 00                     	jb	0x27d <.strtab+0x27d>
     27d: 69 64 74 5f 69 6e 69 74      	imull	$1953066601, 95(%esp,%esi,2), %esp # imm = 0x74696E69
     285: 00 69 64                     	addb	%ch, 100(%ecx)
     288: 74 5f                        	je	0x2e9 <.strtab+0x2e9>
     28a: 73 65                        	jae	0x2f1 <.strtab+0x2f1>
     28c: 74 00                        	je	0x28e <.strtab+0x28e>
     28e: 69 6e 74 32 30 68 5f         	imull	$1600663602, 116(%esi), %ebp # imm = 0x5F683032
     295: 68 61 6e 64 6c               	pushl	$1818521185             # imm = 0x6C646E61
     29a: 65 72 00                     	jb	0x29d <.strtab+0x29d>
     29d: 5f                           	popl	%edi
     29e: 73 74                        	jae	0x314 <.strtab+0x314>
     2a0: 61                           	popal
     2a1: 72 74                        	jb	0x317 <.strtab+0x317>
     2a3: 00 69 6e                     	addb	%ch, 110(%ecx)
     2a6: 69 74 5f 70 61 6c 6c 65      	imull	$1701604449, 112(%edi,%ebx,2), %esi # imm = 0x656C6C61
     2ae: 74 65                        	je	0x315 <.strtab+0x315>
     2b0: 00 74 74 79                  	addb	%dh, 121(%esp,%esi,2)
     2b4: 5f                           	popl	%edi
     2b5: 6b 65 72 6e                  	imull	$110, 114(%ebp), %esp
     2b9: 65 6c                        	insb	%dx, %es:(%edi)
     2bb: 5f                           	popl	%edi
     2bc: 70 61                        	jo	0x31f <.strtab+0x31f>
     2be: 6e                           	outsb	(%esi), %dx
     2bf: 69 63 00 6f 75 74 62         	imull	$1651799407, (%ebx), %esp # imm = 0x6274756F
     2c6: 00 68 65                     	addb	%ch, 101(%eax)
     2c9: 61                           	popal
     2ca: 70 5f                        	jo	0x32b <.strtab+0x32b>
     2cc: 63 72 65                     	arpl	%si, 101(%edx)
     2cf: 61                           	popal
     2d0: 74 65                        	je	0x337 <.strtab+0x337>
     2d2: 00 69 64                     	addb	%ch, 100(%ecx)
     2d5: 74 5f                        	je	0x336 <.strtab+0x336>
     2d7: 7a 65                        	jp	0x33e <.strtab+0x33e>
     2d9: 72 6f                        	jb	0x34a <.strtab+0x34a>
     2db: 00 6d 65                     	addb	%ch, 101(%ebp)
     2de: 6d                           	insl	%dx, %es:(%edi)
     2df: 73 65                        	jae	0x346 <.strtab+0x346>
     2e1: 74 00                        	je	0x2e3 <.strtab+0x2e3>
     2e3: 69 64 74 5f 6c 6f 61 64      	imull	$1684107116, 95(%esp,%esi,2), %esp # imm = 0x64616F6C
     2eb: 00 73 74                     	addb	%dh, 116(%ebx)
     2ee: 61                           	popal
     2ef: 72 74                        	jb	0x365 <.strtab+0x365>
     2f1: 5f                           	popl	%edi
     2f2: 6b 65 72 6e                  	imull	$110, 114(%ebp), %esp
     2f6: 65 6c                        	insb	%dx, %es:(%edi)
     2f8: 00 66 6f                     	addb	%ah, 111(%esi)
     2fb: 6e                           	outsb	(%esi), %dx
     2fc: 74 5f                        	je	0x35d <.strtab+0x35d>
     2fe: 73 74                        	jae	0x374 <.strtab+0x374>
     300: 72 00                        	jb	0x302 <.strtab+0x302>
     302: 69 64 74 5f 64 65 73 63      	imull	$1668506980, 95(%esp,%esi,2), %esp # imm = 0x63736564
     30a: 72 69                        	jb	0x375 <.strtab+0x375>
     30c: 70 74                        	jo	0x382 <.strtab+0x382>
     30e: 6f                           	outsl	(%esi), %dx
     30f: 72 73                        	jb	0x384 <.strtab+0x384>
     311: 00 74 74 79                  	addb	%dh, 121(%esp,%esi,2)
     315: 5f                           	popl	%edi
     316: 69 6e 69 74 69 61 6c         	imull	$1818323316, 105(%esi), %ebp # imm = 0x6C616974
     31d: 69 7a 65 00 74 74 79         	imull	$2037675008, 101(%edx), %edi # imm = 0x79747400
     324: 5f                           	popl	%edi
     325: 63 6c 65 61                  	arpl	%bp, 97(%ebp,%eiz,2)
     329: 72 00                        	jb	0x32b <.strtab+0x32b>
     32b: 68 65 61 70 5f               	pushl	$1601200485             # imm = 0x5F706165
     330: 66 72 65                     	jb	0x398 <.strtab+0x398>
     333: 65 00 69 72                  	addb	%ch, %gs:114(%ecx)
     337: 71 5f                        	jno	0x398 <.strtab+0x398>
     339: 69 6e 69 74 00 72 65         	imull	$1701970036, 105(%esi), %ebp # imm = 0x65720074
     340: 6d                           	insl	%dx, %es:(%edi)
     341: 61                           	popal
     342: 70 5f                        	jo	0x3a3 <.strtab+0x3a3>
     344: 70 69                        	jo	0x3af <.strtab+0x3af>
     346: 63 00                        	arpl	%ax, (%eax)
     348: 69 6e 69 74 5f 64 65         	imull	$1701076852, 105(%esi), %ebp # imm = 0x65645F74
     34f: 66 61                        	popaw
     351: 75 6c                        	jne	0x3bf <.strtab+0x3bf>
     353: 74 5f                        	je	0x3b4 <.strtab+0x3b4>
     355: 70 61                        	jo	0x3b8 <.strtab+0x3b8>
     357: 6c                           	insb	%dx, %es:(%edi)
     358: 6c                           	insb	%dx, %es:(%edi)
     359: 65 74 65                     	je	0x3c1 <.strtab+0x3c1>
     35c: 00 6f 75                     	addb	%ch, 117(%edi)
     35f: 74 77                        	je	0x3d8 <.strtab+0x3d8>
     361: 00 74 74 79                  	addb	%dh, 121(%esp,%esi,2)
     365: 5f                           	popl	%edi
     366: 73 65                        	jae	0x3cd <.strtab+0x3cd>
     368: 74 5f                        	je	0x3c9 <.strtab+0x3c9>
     36a: 74 65                        	je	0x3d1 <.strtab+0x3d1>
     36c: 78 74                        	js	0x3e2 <.strtab+0x3e2>
     36e: 5f                           	popl	%edi
     36f: 63 6f 6c                     	arpl	%bp, 108(%edi)
     372: 6f                           	outsl	(%esi), %dx
     373: 72 00                        	jb	0x375 <.strtab+0x375>
     375: 74 74                        	je	0x3eb <.strtab+0x3eb>
     377: 79 5f                        	jns	0x3d8 <.strtab+0x3d8>
     379: 70 75                        	jo	0x3f0 <.strtab+0x3f0>
     37b: 74 5f                        	je	0x3dc <.strtab+0x3dc>
     37d: 63 68 61                     	arpl	%bp, 97(%eax)
     380: 72 00                        	jb	0x382 <.strtab+0x382>
     382: 69 6e 73 77 00 73 74         	imull	$1953693815, 115(%esi), %ebp # imm = 0x74730077
     389: 72 6c                        	jb	0x3f7 <.strtab+0x3f7>
     38b: 65 6e                        	outsb	%gs:(%esi), %dx
     38d: 00 74 74 79                  	addb	%dh, 121(%esp,%esi,2)
     391: 5f                           	popl	%edi
     392: 70 72                        	jo	0x406 <.strtab+0x406>
     394: 69 6e 74 00 56 49 44         	imull	$1145656832, 116(%esi), %ebp # imm = 0x44495600
     39b: 45                           	incl	%ebp
     39c: 4f                           	decl	%edi
     39d: 5f                           	popl	%edi
     39e: 4d                           	decl	%ebp
     39f: 45                           	incl	%ebp
     3a0: 4d                           	decl	%ebp
     3a1: 4f                           	decl	%edi
     3a2: 52                           	pushl	%edx
     3a3: 59                           	popl	%ecx
     3a4: 00 74 74 79                  	addb	%dh, 121(%esp,%esi,2)
     3a8: 5f                           	popl	%edi
     3a9: 6d                           	insl	%dx, %es:(%edi)
     3aa: 61                           	popal
     3ab: 6b 65 5f 76                  	imull	$118, 95(%ebp), %esp
     3af: 69 64 65 6f 5f 6d 65 6d      	imull	$1835363679, 111(%ebp,%eiz,2), %esp # imm = 0x6D656D5F
     3b7: 5f                           	popl	%edi
     3b8: 63 68 61                     	arpl	%bp, 97(%eax)
     3bb: 72 00                        	jb	0x3bd <.strtab+0x3bd>
     3bd: 6e                           	outsb	(%esi), %dx
     3be: 6f                           	outsl	(%esi), %dx
     3bf: 5f                           	popl	%edi
     3c0: 69 6e 74 65 72 72 75         	imull	$1970434661, 116(%esi), %ebp # imm = 0x75727265
     3c7: 70 74                        	jo	0x43d <.strtab+0x43d>
     3c9: 00 69 64                     	addb	%ch, 100(%ecx)
     3cc: 74 72                        	je	0x440 <.strtab+0x440>
     3ce: 5f                           	popl	%edi
     3cf: 64 65 73 63                  	jae	0x436 <.strtab+0x436>
     3d3: 72 69                        	jb	0x43e <.strtab+0x43e>
     3d5: 70 74                        	jo	0x44b <.strtab+0x44b>
     3d7: 6f                           	outsl	(%esi), %dx
     3d8: 72 00                        	jb	0x3da <.strtab+0x3da>

Disassembly of section .shstrtab:

00000000 <.shstrtab>:
       0: 00 2e                        	addb	%ch, (%esi)
       2: 73 79                        	jae	0x7d <.shstrtab+0x7d>
       4: 6d                           	insl	%dx, %es:(%edi)
       5: 74 61                        	je	0x68 <.shstrtab+0x68>
       7: 62 00                        	bound	%eax, (%eax)
       9: 2e 73 74                     	jae	0x80 <.shstrtab+0x80>
       c: 72 74                        	jb	0x82 <.shstrtab+0x82>
       e: 61                           	popal
       f: 62 00                        	bound	%eax, (%eax)
      11: 2e 73 68                     	jae	0x7c <.shstrtab+0x7c>
      14: 73 74                        	jae	0x8a <.shstrtab+0x8a>
      16: 72 74                        	jb	0x8c <.shstrtab+0x8c>
      18: 61                           	popal
      19: 62 00                        	bound	%eax, (%eax)
      1b: 2e 72 65                     	jb	0x83 <.shstrtab+0x83>
      1e: 6c                           	insb	%dx, %es:(%edi)
      1f: 2e 74 65                     	je	0x87 <.shstrtab+0x87>
      22: 78 74                        	js	0x98 <.shstrtab+0x98>
      24: 00 2e                        	addb	%ch, (%esi)
      26: 72 6f                        	jb	0x97 <.shstrtab+0x97>
      28: 64 61                        	popal
      2a: 74 61                        	je	0x8d <.shstrtab+0x8d>
      2c: 00 2e                        	addb	%ch, (%esi)
      2e: 72 65                        	jb	0x95 <.shstrtab+0x95>
      30: 6c                           	insb	%dx, %es:(%edi)
      31: 2e 61                        	popal
      33: 73 6d                        	jae	0xa2 <.shstrtab+0xa2>
      35: 00 2e                        	addb	%ch, (%esi)
      37: 72 65                        	jb	0x9e <.shstrtab+0x9e>
      39: 6c                           	insb	%dx, %es:(%edi)
      3a: 2e 65 68 5f 66 72 61         	pushl	$1634887263             # imm = 0x6172665F
      41: 6d                           	insl	%dx, %es:(%edi)
      42: 65 00 2e                     	addb	%ch, %gs:(%esi)
      45: 64 61                        	popal
      47: 74 61                        	je	0xaa <.shstrtab+0xaa>
      49: 00 2e                        	addb	%ch, (%esi)
      4b: 62 73 73                     	bound	%esi, 115(%ebx)
      4e: 00 2e                        	addb	%ch, (%esi)
      50: 63 6f 6d                     	arpl	%bp, 109(%edi)
      53: 6d                           	insl	%dx, %es:(%edi)
      54: 65 6e                        	outsb	%gs:(%esi), %dx
      56: 74 00                        	je	0x58 <.shstrtab+0x58>
      58: 2e 6e                        	outsb	%cs:(%esi), %dx
      5a: 6f                           	outsl	(%esi), %dx
      5b: 74 65                        	je	0xc2 <.shstrtab+0xc2>
      5d: 2e 47                        	incl	%edi
      5f: 4e                           	decl	%esi
      60: 55                           	pushl	%ebp
      61: 2d 73 74 61 63               	subl	$1667331187, %eax       # imm = 0x63617473
      66: 6b 00 2e                     	imull	$46, (%eax), %eax
      69: 72 65                        	jb	0xd0 <.shstrtab+0xd0>
      6b: 6c                           	insb	%dx, %es:(%edi)
      6c: 2e 64 65 62 75 67            	bound	%esi, %gs:103(%ebp)
      72: 5f                           	popl	%edi
      73: 61                           	popal
      74: 72 61                        	jb	0xd7 <.shstrtab+0xd7>
      76: 6e                           	outsb	(%esi), %dx
      77: 67 65 73 00                  	jae	0x7b <.shstrtab+0x7b>
      7b: 2e 72 65                     	jb	0xe3 <.shstrtab+0xe3>
      7e: 6c                           	insb	%dx, %es:(%edi)
      7f: 61                           	popal
      80: 2e 64 65 62 75 67            	bound	%esi, %gs:103(%ebp)
      86: 5f                           	popl	%edi
      87: 61                           	popal
      88: 72 61                        	jb	0xeb <.shstrtab+0xeb>
      8a: 6e                           	outsb	(%esi), %dx
      8b: 67 65 73 00                  	jae	0x8f <.shstrtab+0x8f>
      8f: 2e 64 65 62 75 67            	bound	%esi, %gs:103(%ebp)
      95: 5f                           	popl	%edi
      96: 70 75                        	jo	0x10d <.shstrtab+0x10d>
      98: 62 6e 61                     	bound	%ebp, 97(%esi)
      9b: 6d                           	insl	%dx, %es:(%edi)
      9c: 65 73 00                     	jae	0x9f <.shstrtab+0x9f>
      9f: 2e 72 65                     	jb	0x107 <.shstrtab+0x107>
      a2: 6c                           	insb	%dx, %es:(%edi)
      a3: 2e 64 65 62 75 67            	bound	%esi, %gs:103(%ebp)
      a9: 5f                           	popl	%edi
      aa: 69 6e 66 6f 00 2e 72         	imull	$1915617391, 102(%esi), %ebp # imm = 0x722E006F
      b1: 65 6c                        	insb	%dx, %es:(%edi)
      b3: 61                           	popal
      b4: 2e 64 65 62 75 67            	bound	%esi, %gs:103(%ebp)
      ba: 5f                           	popl	%edi
      bb: 69 6e 66 6f 00 2e 64         	imull	$1680736367, 102(%esi), %ebp # imm = 0x642E006F
      c2: 65 62 75 67                  	bound	%esi, %gs:103(%ebp)
      c6: 5f                           	popl	%edi
      c7: 61                           	popal
      c8: 62 62 72                     	bound	%esp, 114(%edx)
      cb: 65 76 00                     	jbe	0xce <.shstrtab+0xce>
      ce: 2e 72 65                     	jb	0x136 <.shstrtab+0x136>
      d1: 6c                           	insb	%dx, %es:(%edi)
      d2: 2e 64 65 62 75 67            	bound	%esi, %gs:103(%ebp)
      d8: 5f                           	popl	%edi
      d9: 6c                           	insb	%dx, %es:(%edi)
      da: 69 6e 65 00 2e 72 65         	imull	$1701981696, 101(%esi), %ebp # imm = 0x65722E00
      e1: 6c                           	insb	%dx, %es:(%edi)
      e2: 61                           	popal
      e3: 2e 64 65 62 75 67            	bound	%esi, %gs:103(%ebp)
      e9: 5f                           	popl	%edi
      ea: 6c                           	insb	%dx, %es:(%edi)
      eb: 69 6e 65 00 2e 64 65         	imull	$1701064192, 101(%esi), %ebp # imm = 0x65642E00
      f2: 62 75 67                     	bound	%esi, 103(%ebp)
      f5: 5f                           	popl	%edi
      f6: 66 72 61                     	jb	0x15a <.shstrtab+0x15a>
      f9: 6d                           	insl	%dx, %es:(%edi)
      fa: 65 00 2e                     	addb	%ch, %gs:(%esi)
      fd: 64 65 62 75 67               	bound	%esi, %gs:103(%ebp)
     102: 5f                           	popl	%edi
     103: 73 74                        	jae	0x179 <.shstrtab+0x179>
     105: 72 00                        	jb	0x107 <.shstrtab+0x107>
     107: 2e 64 65 62 75 67            	bound	%esi, %gs:103(%ebp)
     10d: 5f                           	popl	%edi
     10e: 6c                           	insb	%dx, %es:(%edi)
     10f: 6f                           	outsl	(%esi), %dx
     110: 63 00                        	arpl	%ax, (%eax)
